ARM GAS  C:\Users\kevin\AppData\Local\Temp\ccopMTuX.s 			page 1


   1              		.cpu cortex-m3
   2              		.arch armv7-m
   3              		.fpu softvfp
   4              		.eabi_attribute 20, 1
   5              		.eabi_attribute 21, 1
   6              		.eabi_attribute 23, 3
   7              		.eabi_attribute 24, 1
   8              		.eabi_attribute 25, 1
   9              		.eabi_attribute 26, 1
  10              		.eabi_attribute 30, 1
  11              		.eabi_attribute 34, 1
  12              		.eabi_attribute 18, 4
  13              		.file	"stm32f10x_flash.c"
  14              		.text
  15              	.Ltext0:
  16              		.cfi_sections	.debug_frame
  17              		.file 1 "STM32F10x_StdPeriph_Driver/src/stm32f10x_flash.c"
  18              		.section	.text.FLASH_SetLatency,"ax",%progbits
  19              		.align	1
  20              		.global	FLASH_SetLatency
  21              		.syntax unified
  22              		.thumb
  23              		.thumb_func
  25              	FLASH_SetLatency:
  26              	.LVL0:
  27              	.LFB29:
   1:STM32F10x_StdPeriph_Driver/src/stm32f10x_flash.c **** /**
   2:STM32F10x_StdPeriph_Driver/src/stm32f10x_flash.c ****   ******************************************************************************
   3:STM32F10x_StdPeriph_Driver/src/stm32f10x_flash.c ****   * @file    stm32f10x_flash.c
   4:STM32F10x_StdPeriph_Driver/src/stm32f10x_flash.c ****   * @author  MCD Application Team
   5:STM32F10x_StdPeriph_Driver/src/stm32f10x_flash.c ****   * @version V3.5.0
   6:STM32F10x_StdPeriph_Driver/src/stm32f10x_flash.c ****   * @date    11-March-2011
   7:STM32F10x_StdPeriph_Driver/src/stm32f10x_flash.c ****   * @brief   This file provides all the FLASH firmware functions.
   8:STM32F10x_StdPeriph_Driver/src/stm32f10x_flash.c ****   ******************************************************************************
   9:STM32F10x_StdPeriph_Driver/src/stm32f10x_flash.c ****   * @attention
  10:STM32F10x_StdPeriph_Driver/src/stm32f10x_flash.c ****   *
  11:STM32F10x_StdPeriph_Driver/src/stm32f10x_flash.c ****   * THE PRESENT FIRMWARE WHICH IS FOR GUIDANCE ONLY AIMS AT PROVIDING CUSTOMERS
  12:STM32F10x_StdPeriph_Driver/src/stm32f10x_flash.c ****   * WITH CODING INFORMATION REGARDING THEIR PRODUCTS IN ORDER FOR THEM TO SAVE
  13:STM32F10x_StdPeriph_Driver/src/stm32f10x_flash.c ****   * TIME. AS A RESULT, STMICROELECTRONICS SHALL NOT BE HELD LIABLE FOR ANY
  14:STM32F10x_StdPeriph_Driver/src/stm32f10x_flash.c ****   * DIRECT, INDIRECT OR CONSEQUENTIAL DAMAGES WITH RESPECT TO ANY CLAIMS ARISING
  15:STM32F10x_StdPeriph_Driver/src/stm32f10x_flash.c ****   * FROM THE CONTENT OF SUCH FIRMWARE AND/OR THE USE MADE BY CUSTOMERS OF THE
  16:STM32F10x_StdPeriph_Driver/src/stm32f10x_flash.c ****   * CODING INFORMATION CONTAINED HEREIN IN CONNECTION WITH THEIR PRODUCTS.
  17:STM32F10x_StdPeriph_Driver/src/stm32f10x_flash.c ****   *
  18:STM32F10x_StdPeriph_Driver/src/stm32f10x_flash.c ****   * <h2><center>&copy; COPYRIGHT 2011 STMicroelectronics</center></h2>
  19:STM32F10x_StdPeriph_Driver/src/stm32f10x_flash.c ****   ******************************************************************************
  20:STM32F10x_StdPeriph_Driver/src/stm32f10x_flash.c ****   */
  21:STM32F10x_StdPeriph_Driver/src/stm32f10x_flash.c **** 
  22:STM32F10x_StdPeriph_Driver/src/stm32f10x_flash.c **** /* Includes ------------------------------------------------------------------*/
  23:STM32F10x_StdPeriph_Driver/src/stm32f10x_flash.c **** #include "stm32f10x_flash.h"
  24:STM32F10x_StdPeriph_Driver/src/stm32f10x_flash.c **** 
  25:STM32F10x_StdPeriph_Driver/src/stm32f10x_flash.c **** /** @addtogroup STM32F10x_StdPeriph_Driver
  26:STM32F10x_StdPeriph_Driver/src/stm32f10x_flash.c ****   * @{
  27:STM32F10x_StdPeriph_Driver/src/stm32f10x_flash.c ****   */
  28:STM32F10x_StdPeriph_Driver/src/stm32f10x_flash.c **** 
  29:STM32F10x_StdPeriph_Driver/src/stm32f10x_flash.c **** /** @defgroup FLASH 
  30:STM32F10x_StdPeriph_Driver/src/stm32f10x_flash.c ****   * @brief FLASH driver modules
  31:STM32F10x_StdPeriph_Driver/src/stm32f10x_flash.c ****   * @{
ARM GAS  C:\Users\kevin\AppData\Local\Temp\ccopMTuX.s 			page 2


  32:STM32F10x_StdPeriph_Driver/src/stm32f10x_flash.c ****   */ 
  33:STM32F10x_StdPeriph_Driver/src/stm32f10x_flash.c **** 
  34:STM32F10x_StdPeriph_Driver/src/stm32f10x_flash.c **** /** @defgroup FLASH_Private_TypesDefinitions
  35:STM32F10x_StdPeriph_Driver/src/stm32f10x_flash.c ****   * @{
  36:STM32F10x_StdPeriph_Driver/src/stm32f10x_flash.c ****   */
  37:STM32F10x_StdPeriph_Driver/src/stm32f10x_flash.c **** 
  38:STM32F10x_StdPeriph_Driver/src/stm32f10x_flash.c **** /**
  39:STM32F10x_StdPeriph_Driver/src/stm32f10x_flash.c ****   * @}
  40:STM32F10x_StdPeriph_Driver/src/stm32f10x_flash.c ****   */ 
  41:STM32F10x_StdPeriph_Driver/src/stm32f10x_flash.c **** 
  42:STM32F10x_StdPeriph_Driver/src/stm32f10x_flash.c **** /** @defgroup FLASH_Private_Defines
  43:STM32F10x_StdPeriph_Driver/src/stm32f10x_flash.c ****   * @{
  44:STM32F10x_StdPeriph_Driver/src/stm32f10x_flash.c ****   */ 
  45:STM32F10x_StdPeriph_Driver/src/stm32f10x_flash.c **** 
  46:STM32F10x_StdPeriph_Driver/src/stm32f10x_flash.c **** /* Flash Access Control Register bits */
  47:STM32F10x_StdPeriph_Driver/src/stm32f10x_flash.c **** #define ACR_LATENCY_Mask         ((uint32_t)0x00000038)
  48:STM32F10x_StdPeriph_Driver/src/stm32f10x_flash.c **** #define ACR_HLFCYA_Mask          ((uint32_t)0xFFFFFFF7)
  49:STM32F10x_StdPeriph_Driver/src/stm32f10x_flash.c **** #define ACR_PRFTBE_Mask          ((uint32_t)0xFFFFFFEF)
  50:STM32F10x_StdPeriph_Driver/src/stm32f10x_flash.c **** 
  51:STM32F10x_StdPeriph_Driver/src/stm32f10x_flash.c **** /* Flash Access Control Register bits */
  52:STM32F10x_StdPeriph_Driver/src/stm32f10x_flash.c **** #define ACR_PRFTBS_Mask          ((uint32_t)0x00000020) 
  53:STM32F10x_StdPeriph_Driver/src/stm32f10x_flash.c **** 
  54:STM32F10x_StdPeriph_Driver/src/stm32f10x_flash.c **** /* Flash Control Register bits */
  55:STM32F10x_StdPeriph_Driver/src/stm32f10x_flash.c **** #define CR_PG_Set                ((uint32_t)0x00000001)
  56:STM32F10x_StdPeriph_Driver/src/stm32f10x_flash.c **** #define CR_PG_Reset              ((uint32_t)0x00001FFE) 
  57:STM32F10x_StdPeriph_Driver/src/stm32f10x_flash.c **** #define CR_PER_Set               ((uint32_t)0x00000002)
  58:STM32F10x_StdPeriph_Driver/src/stm32f10x_flash.c **** #define CR_PER_Reset             ((uint32_t)0x00001FFD)
  59:STM32F10x_StdPeriph_Driver/src/stm32f10x_flash.c **** #define CR_MER_Set               ((uint32_t)0x00000004)
  60:STM32F10x_StdPeriph_Driver/src/stm32f10x_flash.c **** #define CR_MER_Reset             ((uint32_t)0x00001FFB)
  61:STM32F10x_StdPeriph_Driver/src/stm32f10x_flash.c **** #define CR_OPTPG_Set             ((uint32_t)0x00000010)
  62:STM32F10x_StdPeriph_Driver/src/stm32f10x_flash.c **** #define CR_OPTPG_Reset           ((uint32_t)0x00001FEF)
  63:STM32F10x_StdPeriph_Driver/src/stm32f10x_flash.c **** #define CR_OPTER_Set             ((uint32_t)0x00000020)
  64:STM32F10x_StdPeriph_Driver/src/stm32f10x_flash.c **** #define CR_OPTER_Reset           ((uint32_t)0x00001FDF)
  65:STM32F10x_StdPeriph_Driver/src/stm32f10x_flash.c **** #define CR_STRT_Set              ((uint32_t)0x00000040)
  66:STM32F10x_StdPeriph_Driver/src/stm32f10x_flash.c **** #define CR_LOCK_Set              ((uint32_t)0x00000080)
  67:STM32F10x_StdPeriph_Driver/src/stm32f10x_flash.c **** 
  68:STM32F10x_StdPeriph_Driver/src/stm32f10x_flash.c **** /* FLASH Mask */
  69:STM32F10x_StdPeriph_Driver/src/stm32f10x_flash.c **** #define RDPRT_Mask               ((uint32_t)0x00000002)
  70:STM32F10x_StdPeriph_Driver/src/stm32f10x_flash.c **** #define WRP0_Mask                ((uint32_t)0x000000FF)
  71:STM32F10x_StdPeriph_Driver/src/stm32f10x_flash.c **** #define WRP1_Mask                ((uint32_t)0x0000FF00)
  72:STM32F10x_StdPeriph_Driver/src/stm32f10x_flash.c **** #define WRP2_Mask                ((uint32_t)0x00FF0000)
  73:STM32F10x_StdPeriph_Driver/src/stm32f10x_flash.c **** #define WRP3_Mask                ((uint32_t)0xFF000000)
  74:STM32F10x_StdPeriph_Driver/src/stm32f10x_flash.c **** #define OB_USER_BFB2             ((uint16_t)0x0008)
  75:STM32F10x_StdPeriph_Driver/src/stm32f10x_flash.c **** 
  76:STM32F10x_StdPeriph_Driver/src/stm32f10x_flash.c **** /* FLASH Keys */
  77:STM32F10x_StdPeriph_Driver/src/stm32f10x_flash.c **** #define RDP_Key                  ((uint16_t)0x00A5)
  78:STM32F10x_StdPeriph_Driver/src/stm32f10x_flash.c **** #define FLASH_KEY1               ((uint32_t)0x45670123)
  79:STM32F10x_StdPeriph_Driver/src/stm32f10x_flash.c **** #define FLASH_KEY2               ((uint32_t)0xCDEF89AB)
  80:STM32F10x_StdPeriph_Driver/src/stm32f10x_flash.c **** 
  81:STM32F10x_StdPeriph_Driver/src/stm32f10x_flash.c **** /* FLASH BANK address */
  82:STM32F10x_StdPeriph_Driver/src/stm32f10x_flash.c **** #define FLASH_BANK1_END_ADDRESS   ((uint32_t)0x807FFFF)
  83:STM32F10x_StdPeriph_Driver/src/stm32f10x_flash.c **** 
  84:STM32F10x_StdPeriph_Driver/src/stm32f10x_flash.c **** /* Delay definition */   
  85:STM32F10x_StdPeriph_Driver/src/stm32f10x_flash.c **** #define EraseTimeout          ((uint32_t)0x000B0000)
  86:STM32F10x_StdPeriph_Driver/src/stm32f10x_flash.c **** #define ProgramTimeout        ((uint32_t)0x00002000)
  87:STM32F10x_StdPeriph_Driver/src/stm32f10x_flash.c **** /**
  88:STM32F10x_StdPeriph_Driver/src/stm32f10x_flash.c ****   * @}
ARM GAS  C:\Users\kevin\AppData\Local\Temp\ccopMTuX.s 			page 3


  89:STM32F10x_StdPeriph_Driver/src/stm32f10x_flash.c ****   */ 
  90:STM32F10x_StdPeriph_Driver/src/stm32f10x_flash.c **** 
  91:STM32F10x_StdPeriph_Driver/src/stm32f10x_flash.c **** /** @defgroup FLASH_Private_Macros
  92:STM32F10x_StdPeriph_Driver/src/stm32f10x_flash.c ****   * @{
  93:STM32F10x_StdPeriph_Driver/src/stm32f10x_flash.c ****   */
  94:STM32F10x_StdPeriph_Driver/src/stm32f10x_flash.c **** 
  95:STM32F10x_StdPeriph_Driver/src/stm32f10x_flash.c **** /**
  96:STM32F10x_StdPeriph_Driver/src/stm32f10x_flash.c ****   * @}
  97:STM32F10x_StdPeriph_Driver/src/stm32f10x_flash.c ****   */ 
  98:STM32F10x_StdPeriph_Driver/src/stm32f10x_flash.c **** 
  99:STM32F10x_StdPeriph_Driver/src/stm32f10x_flash.c **** /** @defgroup FLASH_Private_Variables
 100:STM32F10x_StdPeriph_Driver/src/stm32f10x_flash.c ****   * @{
 101:STM32F10x_StdPeriph_Driver/src/stm32f10x_flash.c ****   */
 102:STM32F10x_StdPeriph_Driver/src/stm32f10x_flash.c **** 
 103:STM32F10x_StdPeriph_Driver/src/stm32f10x_flash.c **** /**
 104:STM32F10x_StdPeriph_Driver/src/stm32f10x_flash.c ****   * @}
 105:STM32F10x_StdPeriph_Driver/src/stm32f10x_flash.c ****   */ 
 106:STM32F10x_StdPeriph_Driver/src/stm32f10x_flash.c **** 
 107:STM32F10x_StdPeriph_Driver/src/stm32f10x_flash.c **** /** @defgroup FLASH_Private_FunctionPrototypes
 108:STM32F10x_StdPeriph_Driver/src/stm32f10x_flash.c ****   * @{
 109:STM32F10x_StdPeriph_Driver/src/stm32f10x_flash.c ****   */
 110:STM32F10x_StdPeriph_Driver/src/stm32f10x_flash.c ****   
 111:STM32F10x_StdPeriph_Driver/src/stm32f10x_flash.c **** /**
 112:STM32F10x_StdPeriph_Driver/src/stm32f10x_flash.c ****   * @}
 113:STM32F10x_StdPeriph_Driver/src/stm32f10x_flash.c ****   */
 114:STM32F10x_StdPeriph_Driver/src/stm32f10x_flash.c **** 
 115:STM32F10x_StdPeriph_Driver/src/stm32f10x_flash.c **** /** @defgroup FLASH_Private_Functions
 116:STM32F10x_StdPeriph_Driver/src/stm32f10x_flash.c ****   * @{
 117:STM32F10x_StdPeriph_Driver/src/stm32f10x_flash.c ****   */
 118:STM32F10x_StdPeriph_Driver/src/stm32f10x_flash.c **** 
 119:STM32F10x_StdPeriph_Driver/src/stm32f10x_flash.c **** /**
 120:STM32F10x_StdPeriph_Driver/src/stm32f10x_flash.c **** @code  
 121:STM32F10x_StdPeriph_Driver/src/stm32f10x_flash.c ****  
 122:STM32F10x_StdPeriph_Driver/src/stm32f10x_flash.c ****  This driver provides functions to configure and program the Flash memory of all STM32F10x devices,
 123:STM32F10x_StdPeriph_Driver/src/stm32f10x_flash.c ****  including the latest STM32F10x_XL density devices. 
 124:STM32F10x_StdPeriph_Driver/src/stm32f10x_flash.c **** 
 125:STM32F10x_StdPeriph_Driver/src/stm32f10x_flash.c ****  STM32F10x_XL devices feature up to 1 Mbyte with dual bank architecture for read-while-write (RWW) 
 126:STM32F10x_StdPeriph_Driver/src/stm32f10x_flash.c ****     - bank1: fixed size of 512 Kbytes (256 pages of 2Kbytes each)
 127:STM32F10x_StdPeriph_Driver/src/stm32f10x_flash.c ****     - bank2: up to 512 Kbytes (up to 256 pages of 2Kbytes each)
 128:STM32F10x_StdPeriph_Driver/src/stm32f10x_flash.c ****  While other STM32F10x devices features only one bank with memory up to 512 Kbytes.
 129:STM32F10x_StdPeriph_Driver/src/stm32f10x_flash.c **** 
 130:STM32F10x_StdPeriph_Driver/src/stm32f10x_flash.c ****  In version V3.3.0, some functions were updated and new ones were added to support
 131:STM32F10x_StdPeriph_Driver/src/stm32f10x_flash.c ****  STM32F10x_XL devices. Thus some functions manages all devices, while other are 
 132:STM32F10x_StdPeriph_Driver/src/stm32f10x_flash.c ****  dedicated for XL devices only.
 133:STM32F10x_StdPeriph_Driver/src/stm32f10x_flash.c ****  
 134:STM32F10x_StdPeriph_Driver/src/stm32f10x_flash.c ****  The table below presents the list of available functions depending on the used STM32F10x devices. 
 135:STM32F10x_StdPeriph_Driver/src/stm32f10x_flash.c ****       
 136:STM32F10x_StdPeriph_Driver/src/stm32f10x_flash.c ****    ***************************************************
 137:STM32F10x_StdPeriph_Driver/src/stm32f10x_flash.c ****    * Legacy functions used for all STM32F10x devices *
 138:STM32F10x_StdPeriph_Driver/src/stm32f10x_flash.c ****    ***************************************************
 139:STM32F10x_StdPeriph_Driver/src/stm32f10x_flash.c ****    +-----------------------------------------------------------------------------------------------
 140:STM32F10x_StdPeriph_Driver/src/stm32f10x_flash.c ****    |       Functions prototypes         |STM32F10x_XL|Other STM32F10x|    Comments                 
 141:STM32F10x_StdPeriph_Driver/src/stm32f10x_flash.c ****    |                                    |   devices  |  devices      |                             
 142:STM32F10x_StdPeriph_Driver/src/stm32f10x_flash.c ****    |-----------------------------------------------------------------------------------------------
 143:STM32F10x_StdPeriph_Driver/src/stm32f10x_flash.c ****    |FLASH_SetLatency                    |    Yes     |      Yes      | No change                   
 144:STM32F10x_StdPeriph_Driver/src/stm32f10x_flash.c ****    |-----------------------------------------------------------------------------------------------
 145:STM32F10x_StdPeriph_Driver/src/stm32f10x_flash.c ****    |FLASH_HalfCycleAccessCmd            |    Yes     |      Yes      | No change                   
ARM GAS  C:\Users\kevin\AppData\Local\Temp\ccopMTuX.s 			page 4


 146:STM32F10x_StdPeriph_Driver/src/stm32f10x_flash.c ****    |-----------------------------------------------------------------------------------------------
 147:STM32F10x_StdPeriph_Driver/src/stm32f10x_flash.c ****    |FLASH_PrefetchBufferCmd             |    Yes     |      Yes      | No change                   
 148:STM32F10x_StdPeriph_Driver/src/stm32f10x_flash.c ****    |-----------------------------------------------------------------------------------------------
 149:STM32F10x_StdPeriph_Driver/src/stm32f10x_flash.c ****    |FLASH_Unlock                        |    Yes     |      Yes      | - For STM32F10X_XL devices: 
 150:STM32F10x_StdPeriph_Driver/src/stm32f10x_flash.c ****    |                                    |            |               | - For other devices: unlock 
 151:STM32F10x_StdPeriph_Driver/src/stm32f10x_flash.c ****    |                                    |            |               |   to FLASH_UnlockBank1 funct
 152:STM32F10x_StdPeriph_Driver/src/stm32f10x_flash.c ****    |-----------------------------------------------------------------------------------------------
 153:STM32F10x_StdPeriph_Driver/src/stm32f10x_flash.c ****    |FLASH_Lock                          |    Yes     |      Yes      | - For STM32F10X_XL devices: 
 154:STM32F10x_StdPeriph_Driver/src/stm32f10x_flash.c ****    |                                    |            |               | - For other devices: lock Ba
 155:STM32F10x_StdPeriph_Driver/src/stm32f10x_flash.c ****    |                                    |            |               |   to FLASH_LockBank1 functio
 156:STM32F10x_StdPeriph_Driver/src/stm32f10x_flash.c ****    |-----------------------------------------------------------------------------------------------
 157:STM32F10x_StdPeriph_Driver/src/stm32f10x_flash.c ****    |FLASH_ErasePage                     |    Yes     |      Yes      | - For STM32F10x_XL devices: 
 158:STM32F10x_StdPeriph_Driver/src/stm32f10x_flash.c ****    |                                    |            |               | - For other devices: erase a
 159:STM32F10x_StdPeriph_Driver/src/stm32f10x_flash.c ****    |-----------------------------------------------------------------------------------------------
 160:STM32F10x_StdPeriph_Driver/src/stm32f10x_flash.c ****    |FLASH_EraseAllPages                 |    Yes     |      Yes      | - For STM32F10x_XL devices: 
 161:STM32F10x_StdPeriph_Driver/src/stm32f10x_flash.c ****    |                                    |            |               | - For other devices: erase a
 162:STM32F10x_StdPeriph_Driver/src/stm32f10x_flash.c ****    |-----------------------------------------------------------------------------------------------
 163:STM32F10x_StdPeriph_Driver/src/stm32f10x_flash.c ****    |FLASH_EraseOptionBytes              |    Yes     |      Yes      | No change                   
 164:STM32F10x_StdPeriph_Driver/src/stm32f10x_flash.c ****    |-----------------------------------------------------------------------------------------------
 165:STM32F10x_StdPeriph_Driver/src/stm32f10x_flash.c ****    |FLASH_ProgramWord                   |    Yes     |      Yes      | Updated to program up to 1MB
 166:STM32F10x_StdPeriph_Driver/src/stm32f10x_flash.c ****    |-----------------------------------------------------------------------------------------------
 167:STM32F10x_StdPeriph_Driver/src/stm32f10x_flash.c ****    |FLASH_ProgramHalfWord               |    Yes     |      Yes      | Updated to program up to 1MB
 168:STM32F10x_StdPeriph_Driver/src/stm32f10x_flash.c ****    |-----------------------------------------------------------------------------------------------
 169:STM32F10x_StdPeriph_Driver/src/stm32f10x_flash.c ****    |FLASH_ProgramOptionByteData         |    Yes     |      Yes      | No change                   
 170:STM32F10x_StdPeriph_Driver/src/stm32f10x_flash.c ****    |-----------------------------------------------------------------------------------------------
 171:STM32F10x_StdPeriph_Driver/src/stm32f10x_flash.c ****    |FLASH_EnableWriteProtection         |    Yes     |      Yes      | No change                   
 172:STM32F10x_StdPeriph_Driver/src/stm32f10x_flash.c ****    |-----------------------------------------------------------------------------------------------
 173:STM32F10x_StdPeriph_Driver/src/stm32f10x_flash.c ****    |FLASH_ReadOutProtection             |    Yes     |      Yes      | No change                   
 174:STM32F10x_StdPeriph_Driver/src/stm32f10x_flash.c ****    |-----------------------------------------------------------------------------------------------
 175:STM32F10x_StdPeriph_Driver/src/stm32f10x_flash.c ****    |FLASH_UserOptionByteConfig          |    Yes     |      Yes      | No change                   
 176:STM32F10x_StdPeriph_Driver/src/stm32f10x_flash.c ****    |-----------------------------------------------------------------------------------------------
 177:STM32F10x_StdPeriph_Driver/src/stm32f10x_flash.c ****    |FLASH_GetUserOptionByte             |    Yes     |      Yes      | No change                   
 178:STM32F10x_StdPeriph_Driver/src/stm32f10x_flash.c ****    |-----------------------------------------------------------------------------------------------
 179:STM32F10x_StdPeriph_Driver/src/stm32f10x_flash.c ****    |FLASH_GetWriteProtectionOptionByte  |    Yes     |      Yes      | No change                   
 180:STM32F10x_StdPeriph_Driver/src/stm32f10x_flash.c ****    |-----------------------------------------------------------------------------------------------
 181:STM32F10x_StdPeriph_Driver/src/stm32f10x_flash.c ****    |FLASH_GetReadOutProtectionStatus    |    Yes     |      Yes      | No change                   
 182:STM32F10x_StdPeriph_Driver/src/stm32f10x_flash.c ****    |-----------------------------------------------------------------------------------------------
 183:STM32F10x_StdPeriph_Driver/src/stm32f10x_flash.c ****    |FLASH_GetPrefetchBufferStatus       |    Yes     |      Yes      | No change                   
 184:STM32F10x_StdPeriph_Driver/src/stm32f10x_flash.c ****    |-----------------------------------------------------------------------------------------------
 185:STM32F10x_StdPeriph_Driver/src/stm32f10x_flash.c ****    |FLASH_ITConfig                      |    Yes     |      Yes      | - For STM32F10x_XL devices: 
 186:STM32F10x_StdPeriph_Driver/src/stm32f10x_flash.c ****    |                                    |            |               | - For other devices: enable 
 187:STM32F10x_StdPeriph_Driver/src/stm32f10x_flash.c ****    |-----------------------------------------------------------------------------------------------
 188:STM32F10x_StdPeriph_Driver/src/stm32f10x_flash.c ****    |FLASH_GetFlagStatus                 |    Yes     |      Yes      | - For STM32F10x_XL devices: 
 189:STM32F10x_StdPeriph_Driver/src/stm32f10x_flash.c ****    |                                    |            |               | - For other devices: return 
 190:STM32F10x_StdPeriph_Driver/src/stm32f10x_flash.c ****    |-----------------------------------------------------------------------------------------------
 191:STM32F10x_StdPeriph_Driver/src/stm32f10x_flash.c ****    |FLASH_ClearFlag                     |    Yes     |      Yes      | - For STM32F10x_XL devices: 
 192:STM32F10x_StdPeriph_Driver/src/stm32f10x_flash.c ****    |                                    |            |               | - For other devices: clear B
 193:STM32F10x_StdPeriph_Driver/src/stm32f10x_flash.c ****    |-----------------------------------------------------------------------------------------------
 194:STM32F10x_StdPeriph_Driver/src/stm32f10x_flash.c ****    |FLASH_GetStatus                     |    Yes     |      Yes      | - Return the status of Bank1
 195:STM32F10x_StdPeriph_Driver/src/stm32f10x_flash.c ****    |                                    |            |               |   equivalent to FLASH_GetBan
 196:STM32F10x_StdPeriph_Driver/src/stm32f10x_flash.c ****    |-----------------------------------------------------------------------------------------------
 197:STM32F10x_StdPeriph_Driver/src/stm32f10x_flash.c ****    |FLASH_WaitForLastOperation          |    Yes     |      Yes      | - Wait for Bank1 last operat
 198:STM32F10x_StdPeriph_Driver/src/stm32f10x_flash.c ****    |                                    |            |               |   equivalent to: FLASH_WaitF
 199:STM32F10x_StdPeriph_Driver/src/stm32f10x_flash.c ****    +-----------------------------------------------------------------------------------------------
 200:STM32F10x_StdPeriph_Driver/src/stm32f10x_flash.c **** 
 201:STM32F10x_StdPeriph_Driver/src/stm32f10x_flash.c ****    ************************************************************************************************
 202:STM32F10x_StdPeriph_Driver/src/stm32f10x_flash.c ****    * New functions used for all STM32F10x devices to manage Bank1:                                 
ARM GAS  C:\Users\kevin\AppData\Local\Temp\ccopMTuX.s 			page 5


 203:STM32F10x_StdPeriph_Driver/src/stm32f10x_flash.c ****    *   - These functions are mainly useful for STM32F10x_XL density devices, to have separate contr
 204:STM32F10x_StdPeriph_Driver/src/stm32f10x_flash.c ****    *   - For other devices, these functions are optional (covered by functions listed above)       
 205:STM32F10x_StdPeriph_Driver/src/stm32f10x_flash.c ****    ************************************************************************************************
 206:STM32F10x_StdPeriph_Driver/src/stm32f10x_flash.c ****    +-----------------------------------------------------------------------------------------------
 207:STM32F10x_StdPeriph_Driver/src/stm32f10x_flash.c ****    |       Functions prototypes         |STM32F10x_XL|Other STM32F10x|    Comments                 
 208:STM32F10x_StdPeriph_Driver/src/stm32f10x_flash.c ****    |                                    |   devices  |  devices      |                             
 209:STM32F10x_StdPeriph_Driver/src/stm32f10x_flash.c ****    |-----------------------------------------------------------------------------------------------
 210:STM32F10x_StdPeriph_Driver/src/stm32f10x_flash.c ****    | FLASH_UnlockBank1                  |    Yes     |      Yes      | - Unlock Bank1              
 211:STM32F10x_StdPeriph_Driver/src/stm32f10x_flash.c ****    |-----------------------------------------------------------------------------------------------
 212:STM32F10x_StdPeriph_Driver/src/stm32f10x_flash.c ****    |FLASH_LockBank1                     |    Yes     |      Yes      | - Lock Bank1                
 213:STM32F10x_StdPeriph_Driver/src/stm32f10x_flash.c ****    |-----------------------------------------------------------------------------------------------
 214:STM32F10x_StdPeriph_Driver/src/stm32f10x_flash.c ****    | FLASH_EraseAllBank1Pages           |    Yes     |      Yes      | - Erase all pages in Bank1  
 215:STM32F10x_StdPeriph_Driver/src/stm32f10x_flash.c ****    |-----------------------------------------------------------------------------------------------
 216:STM32F10x_StdPeriph_Driver/src/stm32f10x_flash.c ****    | FLASH_GetBank1Status               |    Yes     |      Yes      | - Return the status of Bank1
 217:STM32F10x_StdPeriph_Driver/src/stm32f10x_flash.c ****    |-----------------------------------------------------------------------------------------------
 218:STM32F10x_StdPeriph_Driver/src/stm32f10x_flash.c ****    | FLASH_WaitForLastBank1Operation    |    Yes     |      Yes      | - Wait for Bank1 last operat
 219:STM32F10x_StdPeriph_Driver/src/stm32f10x_flash.c ****    +-----------------------------------------------------------------------------------------------
 220:STM32F10x_StdPeriph_Driver/src/stm32f10x_flash.c **** 
 221:STM32F10x_StdPeriph_Driver/src/stm32f10x_flash.c ****    *****************************************************************************
 222:STM32F10x_StdPeriph_Driver/src/stm32f10x_flash.c ****    * New Functions used only with STM32F10x_XL density devices to manage Bank2 *
 223:STM32F10x_StdPeriph_Driver/src/stm32f10x_flash.c ****    *****************************************************************************
 224:STM32F10x_StdPeriph_Driver/src/stm32f10x_flash.c ****    +-----------------------------------------------------------------------------------------------
 225:STM32F10x_StdPeriph_Driver/src/stm32f10x_flash.c ****    |       Functions prototypes         |STM32F10x_XL|Other STM32F10x|    Comments                 
 226:STM32F10x_StdPeriph_Driver/src/stm32f10x_flash.c ****    |                                    |   devices  |  devices      |                             
 227:STM32F10x_StdPeriph_Driver/src/stm32f10x_flash.c ****    |-----------------------------------------------------------------------------------------------
 228:STM32F10x_StdPeriph_Driver/src/stm32f10x_flash.c ****    | FLASH_UnlockBank2                  |    Yes     |      No       | - Unlock Bank2              
 229:STM32F10x_StdPeriph_Driver/src/stm32f10x_flash.c ****    |-----------------------------------------------------------------------------------------------
 230:STM32F10x_StdPeriph_Driver/src/stm32f10x_flash.c ****    |FLASH_LockBank2                     |    Yes     |      No       | - Lock Bank2                
 231:STM32F10x_StdPeriph_Driver/src/stm32f10x_flash.c ****    |-----------------------------------------------------------------------------------------------
 232:STM32F10x_StdPeriph_Driver/src/stm32f10x_flash.c ****    | FLASH_EraseAllBank2Pages           |    Yes     |      No       | - Erase all pages in Bank2  
 233:STM32F10x_StdPeriph_Driver/src/stm32f10x_flash.c ****    |-----------------------------------------------------------------------------------------------
 234:STM32F10x_StdPeriph_Driver/src/stm32f10x_flash.c ****    | FLASH_GetBank2Status               |    Yes     |      No       | - Return the status of Bank2
 235:STM32F10x_StdPeriph_Driver/src/stm32f10x_flash.c ****    |-----------------------------------------------------------------------------------------------
 236:STM32F10x_StdPeriph_Driver/src/stm32f10x_flash.c ****    | FLASH_WaitForLastBank2Operation    |    Yes     |      No       | - Wait for Bank2 last operat
 237:STM32F10x_StdPeriph_Driver/src/stm32f10x_flash.c ****    |-----------------------------------------------------------------------------------------------
 238:STM32F10x_StdPeriph_Driver/src/stm32f10x_flash.c ****    | FLASH_BootConfig                   |    Yes     |      No       | - Configure to boot from Ban
 239:STM32F10x_StdPeriph_Driver/src/stm32f10x_flash.c ****    +-----------------------------------------------------------------------------------------------
 240:STM32F10x_StdPeriph_Driver/src/stm32f10x_flash.c **** @endcode
 241:STM32F10x_StdPeriph_Driver/src/stm32f10x_flash.c **** */
 242:STM32F10x_StdPeriph_Driver/src/stm32f10x_flash.c **** 
 243:STM32F10x_StdPeriph_Driver/src/stm32f10x_flash.c **** 
 244:STM32F10x_StdPeriph_Driver/src/stm32f10x_flash.c **** /**
 245:STM32F10x_StdPeriph_Driver/src/stm32f10x_flash.c ****   * @brief  Sets the code latency value.
 246:STM32F10x_StdPeriph_Driver/src/stm32f10x_flash.c ****   * @note   This function can be used for all STM32F10x devices.
 247:STM32F10x_StdPeriph_Driver/src/stm32f10x_flash.c ****   * @param  FLASH_Latency: specifies the FLASH Latency value.
 248:STM32F10x_StdPeriph_Driver/src/stm32f10x_flash.c ****   *   This parameter can be one of the following values:
 249:STM32F10x_StdPeriph_Driver/src/stm32f10x_flash.c ****   *     @arg FLASH_Latency_0: FLASH Zero Latency cycle
 250:STM32F10x_StdPeriph_Driver/src/stm32f10x_flash.c ****   *     @arg FLASH_Latency_1: FLASH One Latency cycle
 251:STM32F10x_StdPeriph_Driver/src/stm32f10x_flash.c ****   *     @arg FLASH_Latency_2: FLASH Two Latency cycles
 252:STM32F10x_StdPeriph_Driver/src/stm32f10x_flash.c ****   * @retval None
 253:STM32F10x_StdPeriph_Driver/src/stm32f10x_flash.c ****   */
 254:STM32F10x_StdPeriph_Driver/src/stm32f10x_flash.c **** void FLASH_SetLatency(uint32_t FLASH_Latency)
 255:STM32F10x_StdPeriph_Driver/src/stm32f10x_flash.c **** {
  28              		.loc 1 255 1 view -0
  29              		.cfi_startproc
  30              		@ args = 0, pretend = 0, frame = 0
  31              		@ frame_needed = 0, uses_anonymous_args = 0
ARM GAS  C:\Users\kevin\AppData\Local\Temp\ccopMTuX.s 			page 6


  32              		@ link register save eliminated.
 256:STM32F10x_StdPeriph_Driver/src/stm32f10x_flash.c ****   uint32_t tmpreg = 0;
  33              		.loc 1 256 3 view .LVU1
 257:STM32F10x_StdPeriph_Driver/src/stm32f10x_flash.c ****   
 258:STM32F10x_StdPeriph_Driver/src/stm32f10x_flash.c ****   /* Check the parameters */
 259:STM32F10x_StdPeriph_Driver/src/stm32f10x_flash.c ****   assert_param(IS_FLASH_LATENCY(FLASH_Latency));
  34              		.loc 1 259 3 view .LVU2
 260:STM32F10x_StdPeriph_Driver/src/stm32f10x_flash.c ****   
 261:STM32F10x_StdPeriph_Driver/src/stm32f10x_flash.c ****   /* Read the ACR register */
 262:STM32F10x_StdPeriph_Driver/src/stm32f10x_flash.c ****   tmpreg = FLASH->ACR;  
  35              		.loc 1 262 3 view .LVU3
  36              		.loc 1 262 10 is_stmt 0 view .LVU4
  37 0000 034A     		ldr	r2, .L2
  38 0002 1368     		ldr	r3, [r2]
  39              	.LVL1:
 263:STM32F10x_StdPeriph_Driver/src/stm32f10x_flash.c ****   
 264:STM32F10x_StdPeriph_Driver/src/stm32f10x_flash.c ****   /* Sets the Latency value */
 265:STM32F10x_StdPeriph_Driver/src/stm32f10x_flash.c ****   tmpreg &= ACR_LATENCY_Mask;
  40              		.loc 1 265 3 is_stmt 1 view .LVU5
  41              		.loc 1 265 10 is_stmt 0 view .LVU6
  42 0004 03F03803 		and	r3, r3, #56
  43              	.LVL2:
 266:STM32F10x_StdPeriph_Driver/src/stm32f10x_flash.c ****   tmpreg |= FLASH_Latency;
  44              		.loc 1 266 3 is_stmt 1 view .LVU7
  45              		.loc 1 266 10 is_stmt 0 view .LVU8
  46 0008 0343     		orrs	r3, r3, r0
  47              	.LVL3:
 267:STM32F10x_StdPeriph_Driver/src/stm32f10x_flash.c ****   
 268:STM32F10x_StdPeriph_Driver/src/stm32f10x_flash.c ****   /* Write the ACR register */
 269:STM32F10x_StdPeriph_Driver/src/stm32f10x_flash.c ****   FLASH->ACR = tmpreg;
  48              		.loc 1 269 3 is_stmt 1 view .LVU9
  49              		.loc 1 269 14 is_stmt 0 view .LVU10
  50 000a 1360     		str	r3, [r2]
 270:STM32F10x_StdPeriph_Driver/src/stm32f10x_flash.c **** }
  51              		.loc 1 270 1 view .LVU11
  52 000c 7047     		bx	lr
  53              	.L3:
  54 000e 00BF     		.align	2
  55              	.L2:
  56 0010 00200240 		.word	1073881088
  57              		.cfi_endproc
  58              	.LFE29:
  60              		.section	.text.FLASH_HalfCycleAccessCmd,"ax",%progbits
  61              		.align	1
  62              		.global	FLASH_HalfCycleAccessCmd
  63              		.syntax unified
  64              		.thumb
  65              		.thumb_func
  67              	FLASH_HalfCycleAccessCmd:
  68              	.LVL4:
  69              	.LFB30:
 271:STM32F10x_StdPeriph_Driver/src/stm32f10x_flash.c **** 
 272:STM32F10x_StdPeriph_Driver/src/stm32f10x_flash.c **** /**
 273:STM32F10x_StdPeriph_Driver/src/stm32f10x_flash.c ****   * @brief  Enables or disables the Half cycle flash access.
 274:STM32F10x_StdPeriph_Driver/src/stm32f10x_flash.c ****   * @note   This function can be used for all STM32F10x devices.
 275:STM32F10x_StdPeriph_Driver/src/stm32f10x_flash.c ****   * @param  FLASH_HalfCycleAccess: specifies the FLASH Half cycle Access mode.
 276:STM32F10x_StdPeriph_Driver/src/stm32f10x_flash.c ****   *   This parameter can be one of the following values:
ARM GAS  C:\Users\kevin\AppData\Local\Temp\ccopMTuX.s 			page 7


 277:STM32F10x_StdPeriph_Driver/src/stm32f10x_flash.c ****   *     @arg FLASH_HalfCycleAccess_Enable: FLASH Half Cycle Enable
 278:STM32F10x_StdPeriph_Driver/src/stm32f10x_flash.c ****   *     @arg FLASH_HalfCycleAccess_Disable: FLASH Half Cycle Disable
 279:STM32F10x_StdPeriph_Driver/src/stm32f10x_flash.c ****   * @retval None
 280:STM32F10x_StdPeriph_Driver/src/stm32f10x_flash.c ****   */
 281:STM32F10x_StdPeriph_Driver/src/stm32f10x_flash.c **** void FLASH_HalfCycleAccessCmd(uint32_t FLASH_HalfCycleAccess)
 282:STM32F10x_StdPeriph_Driver/src/stm32f10x_flash.c **** {
  70              		.loc 1 282 1 is_stmt 1 view -0
  71              		.cfi_startproc
  72              		@ args = 0, pretend = 0, frame = 0
  73              		@ frame_needed = 0, uses_anonymous_args = 0
  74              		@ link register save eliminated.
 283:STM32F10x_StdPeriph_Driver/src/stm32f10x_flash.c ****   /* Check the parameters */
 284:STM32F10x_StdPeriph_Driver/src/stm32f10x_flash.c ****   assert_param(IS_FLASH_HALFCYCLEACCESS_STATE(FLASH_HalfCycleAccess));
  75              		.loc 1 284 3 view .LVU13
 285:STM32F10x_StdPeriph_Driver/src/stm32f10x_flash.c ****   
 286:STM32F10x_StdPeriph_Driver/src/stm32f10x_flash.c ****   /* Enable or disable the Half cycle access */
 287:STM32F10x_StdPeriph_Driver/src/stm32f10x_flash.c ****   FLASH->ACR &= ACR_HLFCYA_Mask;
  76              		.loc 1 287 3 view .LVU14
  77              		.loc 1 287 8 is_stmt 0 view .LVU15
  78 0000 044B     		ldr	r3, .L5
  79 0002 1A68     		ldr	r2, [r3]
  80              		.loc 1 287 14 view .LVU16
  81 0004 22F00802 		bic	r2, r2, #8
  82 0008 1A60     		str	r2, [r3]
 288:STM32F10x_StdPeriph_Driver/src/stm32f10x_flash.c ****   FLASH->ACR |= FLASH_HalfCycleAccess;
  83              		.loc 1 288 3 is_stmt 1 view .LVU17
  84              		.loc 1 288 8 is_stmt 0 view .LVU18
  85 000a 1A68     		ldr	r2, [r3]
  86              		.loc 1 288 14 view .LVU19
  87 000c 0243     		orrs	r2, r2, r0
  88 000e 1A60     		str	r2, [r3]
 289:STM32F10x_StdPeriph_Driver/src/stm32f10x_flash.c **** }
  89              		.loc 1 289 1 view .LVU20
  90 0010 7047     		bx	lr
  91              	.L6:
  92 0012 00BF     		.align	2
  93              	.L5:
  94 0014 00200240 		.word	1073881088
  95              		.cfi_endproc
  96              	.LFE30:
  98              		.section	.text.FLASH_PrefetchBufferCmd,"ax",%progbits
  99              		.align	1
 100              		.global	FLASH_PrefetchBufferCmd
 101              		.syntax unified
 102              		.thumb
 103              		.thumb_func
 105              	FLASH_PrefetchBufferCmd:
 106              	.LVL5:
 107              	.LFB31:
 290:STM32F10x_StdPeriph_Driver/src/stm32f10x_flash.c **** 
 291:STM32F10x_StdPeriph_Driver/src/stm32f10x_flash.c **** /**
 292:STM32F10x_StdPeriph_Driver/src/stm32f10x_flash.c ****   * @brief  Enables or disables the Prefetch Buffer.
 293:STM32F10x_StdPeriph_Driver/src/stm32f10x_flash.c ****   * @note   This function can be used for all STM32F10x devices.
 294:STM32F10x_StdPeriph_Driver/src/stm32f10x_flash.c ****   * @param  FLASH_PrefetchBuffer: specifies the Prefetch buffer status.
 295:STM32F10x_StdPeriph_Driver/src/stm32f10x_flash.c ****   *   This parameter can be one of the following values:
 296:STM32F10x_StdPeriph_Driver/src/stm32f10x_flash.c ****   *     @arg FLASH_PrefetchBuffer_Enable: FLASH Prefetch Buffer Enable
 297:STM32F10x_StdPeriph_Driver/src/stm32f10x_flash.c ****   *     @arg FLASH_PrefetchBuffer_Disable: FLASH Prefetch Buffer Disable
ARM GAS  C:\Users\kevin\AppData\Local\Temp\ccopMTuX.s 			page 8


 298:STM32F10x_StdPeriph_Driver/src/stm32f10x_flash.c ****   * @retval None
 299:STM32F10x_StdPeriph_Driver/src/stm32f10x_flash.c ****   */
 300:STM32F10x_StdPeriph_Driver/src/stm32f10x_flash.c **** void FLASH_PrefetchBufferCmd(uint32_t FLASH_PrefetchBuffer)
 301:STM32F10x_StdPeriph_Driver/src/stm32f10x_flash.c **** {
 108              		.loc 1 301 1 is_stmt 1 view -0
 109              		.cfi_startproc
 110              		@ args = 0, pretend = 0, frame = 0
 111              		@ frame_needed = 0, uses_anonymous_args = 0
 112              		@ link register save eliminated.
 302:STM32F10x_StdPeriph_Driver/src/stm32f10x_flash.c ****   /* Check the parameters */
 303:STM32F10x_StdPeriph_Driver/src/stm32f10x_flash.c ****   assert_param(IS_FLASH_PREFETCHBUFFER_STATE(FLASH_PrefetchBuffer));
 113              		.loc 1 303 3 view .LVU22
 304:STM32F10x_StdPeriph_Driver/src/stm32f10x_flash.c ****   
 305:STM32F10x_StdPeriph_Driver/src/stm32f10x_flash.c ****   /* Enable or disable the Prefetch Buffer */
 306:STM32F10x_StdPeriph_Driver/src/stm32f10x_flash.c ****   FLASH->ACR &= ACR_PRFTBE_Mask;
 114              		.loc 1 306 3 view .LVU23
 115              		.loc 1 306 8 is_stmt 0 view .LVU24
 116 0000 044B     		ldr	r3, .L8
 117 0002 1A68     		ldr	r2, [r3]
 118              		.loc 1 306 14 view .LVU25
 119 0004 22F01002 		bic	r2, r2, #16
 120 0008 1A60     		str	r2, [r3]
 307:STM32F10x_StdPeriph_Driver/src/stm32f10x_flash.c ****   FLASH->ACR |= FLASH_PrefetchBuffer;
 121              		.loc 1 307 3 is_stmt 1 view .LVU26
 122              		.loc 1 307 8 is_stmt 0 view .LVU27
 123 000a 1A68     		ldr	r2, [r3]
 124              		.loc 1 307 14 view .LVU28
 125 000c 0243     		orrs	r2, r2, r0
 126 000e 1A60     		str	r2, [r3]
 308:STM32F10x_StdPeriph_Driver/src/stm32f10x_flash.c **** }
 127              		.loc 1 308 1 view .LVU29
 128 0010 7047     		bx	lr
 129              	.L9:
 130 0012 00BF     		.align	2
 131              	.L8:
 132 0014 00200240 		.word	1073881088
 133              		.cfi_endproc
 134              	.LFE31:
 136              		.section	.text.FLASH_Unlock,"ax",%progbits
 137              		.align	1
 138              		.global	FLASH_Unlock
 139              		.syntax unified
 140              		.thumb
 141              		.thumb_func
 143              	FLASH_Unlock:
 144              	.LFB32:
 309:STM32F10x_StdPeriph_Driver/src/stm32f10x_flash.c **** 
 310:STM32F10x_StdPeriph_Driver/src/stm32f10x_flash.c **** /**
 311:STM32F10x_StdPeriph_Driver/src/stm32f10x_flash.c ****   * @brief  Unlocks the FLASH Program Erase Controller.
 312:STM32F10x_StdPeriph_Driver/src/stm32f10x_flash.c ****   * @note   This function can be used for all STM32F10x devices.
 313:STM32F10x_StdPeriph_Driver/src/stm32f10x_flash.c ****   *         - For STM32F10X_XL devices this function unlocks Bank1 and Bank2.
 314:STM32F10x_StdPeriph_Driver/src/stm32f10x_flash.c ****   *         - For all other devices it unlocks Bank1 and it is equivalent 
 315:STM32F10x_StdPeriph_Driver/src/stm32f10x_flash.c ****   *           to FLASH_UnlockBank1 function.. 
 316:STM32F10x_StdPeriph_Driver/src/stm32f10x_flash.c ****   * @param  None
 317:STM32F10x_StdPeriph_Driver/src/stm32f10x_flash.c ****   * @retval None
 318:STM32F10x_StdPeriph_Driver/src/stm32f10x_flash.c ****   */
 319:STM32F10x_StdPeriph_Driver/src/stm32f10x_flash.c **** void FLASH_Unlock(void)
ARM GAS  C:\Users\kevin\AppData\Local\Temp\ccopMTuX.s 			page 9


 320:STM32F10x_StdPeriph_Driver/src/stm32f10x_flash.c **** {
 145              		.loc 1 320 1 is_stmt 1 view -0
 146              		.cfi_startproc
 147              		@ args = 0, pretend = 0, frame = 0
 148              		@ frame_needed = 0, uses_anonymous_args = 0
 149              		@ link register save eliminated.
 321:STM32F10x_StdPeriph_Driver/src/stm32f10x_flash.c ****   /* Authorize the FPEC of Bank1 Access */
 322:STM32F10x_StdPeriph_Driver/src/stm32f10x_flash.c ****   FLASH->KEYR = FLASH_KEY1;
 150              		.loc 1 322 3 view .LVU31
 151              		.loc 1 322 15 is_stmt 0 view .LVU32
 152 0000 034B     		ldr	r3, .L11
 153 0002 044A     		ldr	r2, .L11+4
 154 0004 5A60     		str	r2, [r3, #4]
 323:STM32F10x_StdPeriph_Driver/src/stm32f10x_flash.c ****   FLASH->KEYR = FLASH_KEY2;
 155              		.loc 1 323 3 is_stmt 1 view .LVU33
 156              		.loc 1 323 15 is_stmt 0 view .LVU34
 157 0006 02F18832 		add	r2, r2, #-2004318072
 158 000a 5A60     		str	r2, [r3, #4]
 324:STM32F10x_StdPeriph_Driver/src/stm32f10x_flash.c **** 
 325:STM32F10x_StdPeriph_Driver/src/stm32f10x_flash.c **** #ifdef STM32F10X_XL
 326:STM32F10x_StdPeriph_Driver/src/stm32f10x_flash.c ****   /* Authorize the FPEC of Bank2 Access */
 327:STM32F10x_StdPeriph_Driver/src/stm32f10x_flash.c ****   FLASH->KEYR2 = FLASH_KEY1;
 328:STM32F10x_StdPeriph_Driver/src/stm32f10x_flash.c ****   FLASH->KEYR2 = FLASH_KEY2;
 329:STM32F10x_StdPeriph_Driver/src/stm32f10x_flash.c **** #endif /* STM32F10X_XL */
 330:STM32F10x_StdPeriph_Driver/src/stm32f10x_flash.c **** }
 159              		.loc 1 330 1 view .LVU35
 160 000c 7047     		bx	lr
 161              	.L12:
 162 000e 00BF     		.align	2
 163              	.L11:
 164 0010 00200240 		.word	1073881088
 165 0014 23016745 		.word	1164378403
 166              		.cfi_endproc
 167              	.LFE32:
 169              		.section	.text.FLASH_UnlockBank1,"ax",%progbits
 170              		.align	1
 171              		.global	FLASH_UnlockBank1
 172              		.syntax unified
 173              		.thumb
 174              		.thumb_func
 176              	FLASH_UnlockBank1:
 177              	.LFB33:
 331:STM32F10x_StdPeriph_Driver/src/stm32f10x_flash.c **** /**
 332:STM32F10x_StdPeriph_Driver/src/stm32f10x_flash.c ****   * @brief  Unlocks the FLASH Bank1 Program Erase Controller.
 333:STM32F10x_StdPeriph_Driver/src/stm32f10x_flash.c ****   * @note   This function can be used for all STM32F10x devices.
 334:STM32F10x_StdPeriph_Driver/src/stm32f10x_flash.c ****   *         - For STM32F10X_XL devices this function unlocks Bank1.
 335:STM32F10x_StdPeriph_Driver/src/stm32f10x_flash.c ****   *         - For all other devices it unlocks Bank1 and it is 
 336:STM32F10x_StdPeriph_Driver/src/stm32f10x_flash.c ****   *           equivalent to FLASH_Unlock function.
 337:STM32F10x_StdPeriph_Driver/src/stm32f10x_flash.c ****   * @param  None
 338:STM32F10x_StdPeriph_Driver/src/stm32f10x_flash.c ****   * @retval None
 339:STM32F10x_StdPeriph_Driver/src/stm32f10x_flash.c ****   */
 340:STM32F10x_StdPeriph_Driver/src/stm32f10x_flash.c **** void FLASH_UnlockBank1(void)
 341:STM32F10x_StdPeriph_Driver/src/stm32f10x_flash.c **** {
 178              		.loc 1 341 1 is_stmt 1 view -0
 179              		.cfi_startproc
 180              		@ args = 0, pretend = 0, frame = 0
 181              		@ frame_needed = 0, uses_anonymous_args = 0
ARM GAS  C:\Users\kevin\AppData\Local\Temp\ccopMTuX.s 			page 10


 182              		@ link register save eliminated.
 342:STM32F10x_StdPeriph_Driver/src/stm32f10x_flash.c ****   /* Authorize the FPEC of Bank1 Access */
 343:STM32F10x_StdPeriph_Driver/src/stm32f10x_flash.c ****   FLASH->KEYR = FLASH_KEY1;
 183              		.loc 1 343 3 view .LVU37
 184              		.loc 1 343 15 is_stmt 0 view .LVU38
 185 0000 034B     		ldr	r3, .L14
 186 0002 044A     		ldr	r2, .L14+4
 187 0004 5A60     		str	r2, [r3, #4]
 344:STM32F10x_StdPeriph_Driver/src/stm32f10x_flash.c ****   FLASH->KEYR = FLASH_KEY2;
 188              		.loc 1 344 3 is_stmt 1 view .LVU39
 189              		.loc 1 344 15 is_stmt 0 view .LVU40
 190 0006 02F18832 		add	r2, r2, #-2004318072
 191 000a 5A60     		str	r2, [r3, #4]
 345:STM32F10x_StdPeriph_Driver/src/stm32f10x_flash.c **** }
 192              		.loc 1 345 1 view .LVU41
 193 000c 7047     		bx	lr
 194              	.L15:
 195 000e 00BF     		.align	2
 196              	.L14:
 197 0010 00200240 		.word	1073881088
 198 0014 23016745 		.word	1164378403
 199              		.cfi_endproc
 200              	.LFE33:
 202              		.section	.text.FLASH_Lock,"ax",%progbits
 203              		.align	1
 204              		.global	FLASH_Lock
 205              		.syntax unified
 206              		.thumb
 207              		.thumb_func
 209              	FLASH_Lock:
 210              	.LFB34:
 346:STM32F10x_StdPeriph_Driver/src/stm32f10x_flash.c **** 
 347:STM32F10x_StdPeriph_Driver/src/stm32f10x_flash.c **** #ifdef STM32F10X_XL
 348:STM32F10x_StdPeriph_Driver/src/stm32f10x_flash.c **** /**
 349:STM32F10x_StdPeriph_Driver/src/stm32f10x_flash.c ****   * @brief  Unlocks the FLASH Bank2 Program Erase Controller.
 350:STM32F10x_StdPeriph_Driver/src/stm32f10x_flash.c ****   * @note   This function can be used only for STM32F10X_XL density devices.
 351:STM32F10x_StdPeriph_Driver/src/stm32f10x_flash.c ****   * @param  None
 352:STM32F10x_StdPeriph_Driver/src/stm32f10x_flash.c ****   * @retval None
 353:STM32F10x_StdPeriph_Driver/src/stm32f10x_flash.c ****   */
 354:STM32F10x_StdPeriph_Driver/src/stm32f10x_flash.c **** void FLASH_UnlockBank2(void)
 355:STM32F10x_StdPeriph_Driver/src/stm32f10x_flash.c **** {
 356:STM32F10x_StdPeriph_Driver/src/stm32f10x_flash.c ****   /* Authorize the FPEC of Bank2 Access */
 357:STM32F10x_StdPeriph_Driver/src/stm32f10x_flash.c ****   FLASH->KEYR2 = FLASH_KEY1;
 358:STM32F10x_StdPeriph_Driver/src/stm32f10x_flash.c ****   FLASH->KEYR2 = FLASH_KEY2;
 359:STM32F10x_StdPeriph_Driver/src/stm32f10x_flash.c **** 
 360:STM32F10x_StdPeriph_Driver/src/stm32f10x_flash.c **** }
 361:STM32F10x_StdPeriph_Driver/src/stm32f10x_flash.c **** #endif /* STM32F10X_XL */
 362:STM32F10x_StdPeriph_Driver/src/stm32f10x_flash.c **** 
 363:STM32F10x_StdPeriph_Driver/src/stm32f10x_flash.c **** /**
 364:STM32F10x_StdPeriph_Driver/src/stm32f10x_flash.c ****   * @brief  Locks the FLASH Program Erase Controller.
 365:STM32F10x_StdPeriph_Driver/src/stm32f10x_flash.c ****   * @note   This function can be used for all STM32F10x devices.
 366:STM32F10x_StdPeriph_Driver/src/stm32f10x_flash.c ****   *         - For STM32F10X_XL devices this function Locks Bank1 and Bank2.
 367:STM32F10x_StdPeriph_Driver/src/stm32f10x_flash.c ****   *         - For all other devices it Locks Bank1 and it is equivalent 
 368:STM32F10x_StdPeriph_Driver/src/stm32f10x_flash.c ****   *           to FLASH_LockBank1 function.
 369:STM32F10x_StdPeriph_Driver/src/stm32f10x_flash.c ****   * @param  None
 370:STM32F10x_StdPeriph_Driver/src/stm32f10x_flash.c ****   * @retval None
 371:STM32F10x_StdPeriph_Driver/src/stm32f10x_flash.c ****   */
ARM GAS  C:\Users\kevin\AppData\Local\Temp\ccopMTuX.s 			page 11


 372:STM32F10x_StdPeriph_Driver/src/stm32f10x_flash.c **** void FLASH_Lock(void)
 373:STM32F10x_StdPeriph_Driver/src/stm32f10x_flash.c **** {
 211              		.loc 1 373 1 is_stmt 1 view -0
 212              		.cfi_startproc
 213              		@ args = 0, pretend = 0, frame = 0
 214              		@ frame_needed = 0, uses_anonymous_args = 0
 215              		@ link register save eliminated.
 374:STM32F10x_StdPeriph_Driver/src/stm32f10x_flash.c ****   /* Set the Lock Bit to lock the FPEC and the CR of  Bank1 */
 375:STM32F10x_StdPeriph_Driver/src/stm32f10x_flash.c ****   FLASH->CR |= CR_LOCK_Set;
 216              		.loc 1 375 3 view .LVU43
 217              		.loc 1 375 8 is_stmt 0 view .LVU44
 218 0000 024A     		ldr	r2, .L17
 219 0002 1369     		ldr	r3, [r2, #16]
 220              		.loc 1 375 13 view .LVU45
 221 0004 43F08003 		orr	r3, r3, #128
 222 0008 1361     		str	r3, [r2, #16]
 376:STM32F10x_StdPeriph_Driver/src/stm32f10x_flash.c **** 
 377:STM32F10x_StdPeriph_Driver/src/stm32f10x_flash.c **** #ifdef STM32F10X_XL
 378:STM32F10x_StdPeriph_Driver/src/stm32f10x_flash.c ****   /* Set the Lock Bit to lock the FPEC and the CR of  Bank2 */
 379:STM32F10x_StdPeriph_Driver/src/stm32f10x_flash.c ****   FLASH->CR2 |= CR_LOCK_Set;
 380:STM32F10x_StdPeriph_Driver/src/stm32f10x_flash.c **** #endif /* STM32F10X_XL */
 381:STM32F10x_StdPeriph_Driver/src/stm32f10x_flash.c **** }
 223              		.loc 1 381 1 view .LVU46
 224 000a 7047     		bx	lr
 225              	.L18:
 226              		.align	2
 227              	.L17:
 228 000c 00200240 		.word	1073881088
 229              		.cfi_endproc
 230              	.LFE34:
 232              		.section	.text.FLASH_LockBank1,"ax",%progbits
 233              		.align	1
 234              		.global	FLASH_LockBank1
 235              		.syntax unified
 236              		.thumb
 237              		.thumb_func
 239              	FLASH_LockBank1:
 240              	.LFB35:
 382:STM32F10x_StdPeriph_Driver/src/stm32f10x_flash.c **** 
 383:STM32F10x_StdPeriph_Driver/src/stm32f10x_flash.c **** /**
 384:STM32F10x_StdPeriph_Driver/src/stm32f10x_flash.c ****   * @brief  Locks the FLASH Bank1 Program Erase Controller.
 385:STM32F10x_StdPeriph_Driver/src/stm32f10x_flash.c ****   * @note   this function can be used for all STM32F10x devices.
 386:STM32F10x_StdPeriph_Driver/src/stm32f10x_flash.c ****   *         - For STM32F10X_XL devices this function Locks Bank1.
 387:STM32F10x_StdPeriph_Driver/src/stm32f10x_flash.c ****   *         - For all other devices it Locks Bank1 and it is equivalent 
 388:STM32F10x_StdPeriph_Driver/src/stm32f10x_flash.c ****   *           to FLASH_Lock function.
 389:STM32F10x_StdPeriph_Driver/src/stm32f10x_flash.c ****   * @param  None
 390:STM32F10x_StdPeriph_Driver/src/stm32f10x_flash.c ****   * @retval None
 391:STM32F10x_StdPeriph_Driver/src/stm32f10x_flash.c ****   */
 392:STM32F10x_StdPeriph_Driver/src/stm32f10x_flash.c **** void FLASH_LockBank1(void)
 393:STM32F10x_StdPeriph_Driver/src/stm32f10x_flash.c **** {
 241              		.loc 1 393 1 is_stmt 1 view -0
 242              		.cfi_startproc
 243              		@ args = 0, pretend = 0, frame = 0
 244              		@ frame_needed = 0, uses_anonymous_args = 0
 245              		@ link register save eliminated.
 394:STM32F10x_StdPeriph_Driver/src/stm32f10x_flash.c ****   /* Set the Lock Bit to lock the FPEC and the CR of  Bank1 */
 395:STM32F10x_StdPeriph_Driver/src/stm32f10x_flash.c ****   FLASH->CR |= CR_LOCK_Set;
ARM GAS  C:\Users\kevin\AppData\Local\Temp\ccopMTuX.s 			page 12


 246              		.loc 1 395 3 view .LVU48
 247              		.loc 1 395 8 is_stmt 0 view .LVU49
 248 0000 024A     		ldr	r2, .L20
 249 0002 1369     		ldr	r3, [r2, #16]
 250              		.loc 1 395 13 view .LVU50
 251 0004 43F08003 		orr	r3, r3, #128
 252 0008 1361     		str	r3, [r2, #16]
 396:STM32F10x_StdPeriph_Driver/src/stm32f10x_flash.c **** }
 253              		.loc 1 396 1 view .LVU51
 254 000a 7047     		bx	lr
 255              	.L21:
 256              		.align	2
 257              	.L20:
 258 000c 00200240 		.word	1073881088
 259              		.cfi_endproc
 260              	.LFE35:
 262              		.section	.text.FLASH_GetUserOptionByte,"ax",%progbits
 263              		.align	1
 264              		.global	FLASH_GetUserOptionByte
 265              		.syntax unified
 266              		.thumb
 267              		.thumb_func
 269              	FLASH_GetUserOptionByte:
 270              	.LFB46:
 397:STM32F10x_StdPeriph_Driver/src/stm32f10x_flash.c **** 
 398:STM32F10x_StdPeriph_Driver/src/stm32f10x_flash.c **** #ifdef STM32F10X_XL
 399:STM32F10x_StdPeriph_Driver/src/stm32f10x_flash.c **** /**
 400:STM32F10x_StdPeriph_Driver/src/stm32f10x_flash.c ****   * @brief  Locks the FLASH Bank2 Program Erase Controller.
 401:STM32F10x_StdPeriph_Driver/src/stm32f10x_flash.c ****   * @note   This function can be used only for STM32F10X_XL density devices.
 402:STM32F10x_StdPeriph_Driver/src/stm32f10x_flash.c ****   * @param  None
 403:STM32F10x_StdPeriph_Driver/src/stm32f10x_flash.c ****   * @retval None
 404:STM32F10x_StdPeriph_Driver/src/stm32f10x_flash.c ****   */
 405:STM32F10x_StdPeriph_Driver/src/stm32f10x_flash.c **** void FLASH_LockBank2(void)
 406:STM32F10x_StdPeriph_Driver/src/stm32f10x_flash.c **** {
 407:STM32F10x_StdPeriph_Driver/src/stm32f10x_flash.c ****   /* Set the Lock Bit to lock the FPEC and the CR of  Bank2 */
 408:STM32F10x_StdPeriph_Driver/src/stm32f10x_flash.c ****   FLASH->CR2 |= CR_LOCK_Set;
 409:STM32F10x_StdPeriph_Driver/src/stm32f10x_flash.c **** }
 410:STM32F10x_StdPeriph_Driver/src/stm32f10x_flash.c **** #endif /* STM32F10X_XL */
 411:STM32F10x_StdPeriph_Driver/src/stm32f10x_flash.c **** 
 412:STM32F10x_StdPeriph_Driver/src/stm32f10x_flash.c **** /**
 413:STM32F10x_StdPeriph_Driver/src/stm32f10x_flash.c ****   * @brief  Erases a specified FLASH page.
 414:STM32F10x_StdPeriph_Driver/src/stm32f10x_flash.c ****   * @note   This function can be used for all STM32F10x devices.
 415:STM32F10x_StdPeriph_Driver/src/stm32f10x_flash.c ****   * @param  Page_Address: The page address to be erased.
 416:STM32F10x_StdPeriph_Driver/src/stm32f10x_flash.c ****   * @retval FLASH Status: The returned value can be: FLASH_BUSY, FLASH_ERROR_PG,
 417:STM32F10x_StdPeriph_Driver/src/stm32f10x_flash.c ****   *         FLASH_ERROR_WRP, FLASH_COMPLETE or FLASH_TIMEOUT.
 418:STM32F10x_StdPeriph_Driver/src/stm32f10x_flash.c ****   */
 419:STM32F10x_StdPeriph_Driver/src/stm32f10x_flash.c **** FLASH_Status FLASH_ErasePage(uint32_t Page_Address)
 420:STM32F10x_StdPeriph_Driver/src/stm32f10x_flash.c **** {
 421:STM32F10x_StdPeriph_Driver/src/stm32f10x_flash.c ****   FLASH_Status status = FLASH_COMPLETE;
 422:STM32F10x_StdPeriph_Driver/src/stm32f10x_flash.c ****   /* Check the parameters */
 423:STM32F10x_StdPeriph_Driver/src/stm32f10x_flash.c ****   assert_param(IS_FLASH_ADDRESS(Page_Address));
 424:STM32F10x_StdPeriph_Driver/src/stm32f10x_flash.c **** 
 425:STM32F10x_StdPeriph_Driver/src/stm32f10x_flash.c **** #ifdef STM32F10X_XL
 426:STM32F10x_StdPeriph_Driver/src/stm32f10x_flash.c ****   if(Page_Address < FLASH_BANK1_END_ADDRESS)  
 427:STM32F10x_StdPeriph_Driver/src/stm32f10x_flash.c ****   {
 428:STM32F10x_StdPeriph_Driver/src/stm32f10x_flash.c ****     /* Wait for last operation to be completed */
 429:STM32F10x_StdPeriph_Driver/src/stm32f10x_flash.c ****     status = FLASH_WaitForLastBank1Operation(EraseTimeout);
ARM GAS  C:\Users\kevin\AppData\Local\Temp\ccopMTuX.s 			page 13


 430:STM32F10x_StdPeriph_Driver/src/stm32f10x_flash.c ****     if(status == FLASH_COMPLETE)
 431:STM32F10x_StdPeriph_Driver/src/stm32f10x_flash.c ****     { 
 432:STM32F10x_StdPeriph_Driver/src/stm32f10x_flash.c ****       /* if the previous operation is completed, proceed to erase the page */
 433:STM32F10x_StdPeriph_Driver/src/stm32f10x_flash.c ****       FLASH->CR|= CR_PER_Set;
 434:STM32F10x_StdPeriph_Driver/src/stm32f10x_flash.c ****       FLASH->AR = Page_Address; 
 435:STM32F10x_StdPeriph_Driver/src/stm32f10x_flash.c ****       FLASH->CR|= CR_STRT_Set;
 436:STM32F10x_StdPeriph_Driver/src/stm32f10x_flash.c ****     
 437:STM32F10x_StdPeriph_Driver/src/stm32f10x_flash.c ****       /* Wait for last operation to be completed */
 438:STM32F10x_StdPeriph_Driver/src/stm32f10x_flash.c ****       status = FLASH_WaitForLastBank1Operation(EraseTimeout);
 439:STM32F10x_StdPeriph_Driver/src/stm32f10x_flash.c **** 
 440:STM32F10x_StdPeriph_Driver/src/stm32f10x_flash.c ****       /* Disable the PER Bit */
 441:STM32F10x_StdPeriph_Driver/src/stm32f10x_flash.c ****       FLASH->CR &= CR_PER_Reset;
 442:STM32F10x_StdPeriph_Driver/src/stm32f10x_flash.c ****     }
 443:STM32F10x_StdPeriph_Driver/src/stm32f10x_flash.c ****   }
 444:STM32F10x_StdPeriph_Driver/src/stm32f10x_flash.c ****   else
 445:STM32F10x_StdPeriph_Driver/src/stm32f10x_flash.c ****   {
 446:STM32F10x_StdPeriph_Driver/src/stm32f10x_flash.c ****     /* Wait for last operation to be completed */
 447:STM32F10x_StdPeriph_Driver/src/stm32f10x_flash.c ****     status = FLASH_WaitForLastBank2Operation(EraseTimeout);
 448:STM32F10x_StdPeriph_Driver/src/stm32f10x_flash.c ****     if(status == FLASH_COMPLETE)
 449:STM32F10x_StdPeriph_Driver/src/stm32f10x_flash.c ****     { 
 450:STM32F10x_StdPeriph_Driver/src/stm32f10x_flash.c ****       /* if the previous operation is completed, proceed to erase the page */
 451:STM32F10x_StdPeriph_Driver/src/stm32f10x_flash.c ****       FLASH->CR2|= CR_PER_Set;
 452:STM32F10x_StdPeriph_Driver/src/stm32f10x_flash.c ****       FLASH->AR2 = Page_Address; 
 453:STM32F10x_StdPeriph_Driver/src/stm32f10x_flash.c ****       FLASH->CR2|= CR_STRT_Set;
 454:STM32F10x_StdPeriph_Driver/src/stm32f10x_flash.c ****     
 455:STM32F10x_StdPeriph_Driver/src/stm32f10x_flash.c ****       /* Wait for last operation to be completed */
 456:STM32F10x_StdPeriph_Driver/src/stm32f10x_flash.c ****       status = FLASH_WaitForLastBank2Operation(EraseTimeout);
 457:STM32F10x_StdPeriph_Driver/src/stm32f10x_flash.c ****       
 458:STM32F10x_StdPeriph_Driver/src/stm32f10x_flash.c ****       /* Disable the PER Bit */
 459:STM32F10x_StdPeriph_Driver/src/stm32f10x_flash.c ****       FLASH->CR2 &= CR_PER_Reset;
 460:STM32F10x_StdPeriph_Driver/src/stm32f10x_flash.c ****     }
 461:STM32F10x_StdPeriph_Driver/src/stm32f10x_flash.c ****   }
 462:STM32F10x_StdPeriph_Driver/src/stm32f10x_flash.c **** #else
 463:STM32F10x_StdPeriph_Driver/src/stm32f10x_flash.c ****   /* Wait for last operation to be completed */
 464:STM32F10x_StdPeriph_Driver/src/stm32f10x_flash.c ****   status = FLASH_WaitForLastOperation(EraseTimeout);
 465:STM32F10x_StdPeriph_Driver/src/stm32f10x_flash.c ****   
 466:STM32F10x_StdPeriph_Driver/src/stm32f10x_flash.c ****   if(status == FLASH_COMPLETE)
 467:STM32F10x_StdPeriph_Driver/src/stm32f10x_flash.c ****   { 
 468:STM32F10x_StdPeriph_Driver/src/stm32f10x_flash.c ****     /* if the previous operation is completed, proceed to erase the page */
 469:STM32F10x_StdPeriph_Driver/src/stm32f10x_flash.c ****     FLASH->CR|= CR_PER_Set;
 470:STM32F10x_StdPeriph_Driver/src/stm32f10x_flash.c ****     FLASH->AR = Page_Address; 
 471:STM32F10x_StdPeriph_Driver/src/stm32f10x_flash.c ****     FLASH->CR|= CR_STRT_Set;
 472:STM32F10x_StdPeriph_Driver/src/stm32f10x_flash.c ****     
 473:STM32F10x_StdPeriph_Driver/src/stm32f10x_flash.c ****     /* Wait for last operation to be completed */
 474:STM32F10x_StdPeriph_Driver/src/stm32f10x_flash.c ****     status = FLASH_WaitForLastOperation(EraseTimeout);
 475:STM32F10x_StdPeriph_Driver/src/stm32f10x_flash.c ****     
 476:STM32F10x_StdPeriph_Driver/src/stm32f10x_flash.c ****     /* Disable the PER Bit */
 477:STM32F10x_StdPeriph_Driver/src/stm32f10x_flash.c ****     FLASH->CR &= CR_PER_Reset;
 478:STM32F10x_StdPeriph_Driver/src/stm32f10x_flash.c ****   }
 479:STM32F10x_StdPeriph_Driver/src/stm32f10x_flash.c **** #endif /* STM32F10X_XL */
 480:STM32F10x_StdPeriph_Driver/src/stm32f10x_flash.c **** 
 481:STM32F10x_StdPeriph_Driver/src/stm32f10x_flash.c ****   /* Return the Erase Status */
 482:STM32F10x_StdPeriph_Driver/src/stm32f10x_flash.c ****   return status;
 483:STM32F10x_StdPeriph_Driver/src/stm32f10x_flash.c **** }
 484:STM32F10x_StdPeriph_Driver/src/stm32f10x_flash.c **** 
 485:STM32F10x_StdPeriph_Driver/src/stm32f10x_flash.c **** /**
 486:STM32F10x_StdPeriph_Driver/src/stm32f10x_flash.c ****   * @brief  Erases all FLASH pages.
ARM GAS  C:\Users\kevin\AppData\Local\Temp\ccopMTuX.s 			page 14


 487:STM32F10x_StdPeriph_Driver/src/stm32f10x_flash.c ****   * @note   This function can be used for all STM32F10x devices.
 488:STM32F10x_StdPeriph_Driver/src/stm32f10x_flash.c ****   * @param  None
 489:STM32F10x_StdPeriph_Driver/src/stm32f10x_flash.c ****   * @retval FLASH Status: The returned value can be: FLASH_ERROR_PG,
 490:STM32F10x_StdPeriph_Driver/src/stm32f10x_flash.c ****   *         FLASH_ERROR_WRP, FLASH_COMPLETE or FLASH_TIMEOUT.
 491:STM32F10x_StdPeriph_Driver/src/stm32f10x_flash.c ****   */
 492:STM32F10x_StdPeriph_Driver/src/stm32f10x_flash.c **** FLASH_Status FLASH_EraseAllPages(void)
 493:STM32F10x_StdPeriph_Driver/src/stm32f10x_flash.c **** {
 494:STM32F10x_StdPeriph_Driver/src/stm32f10x_flash.c ****   FLASH_Status status = FLASH_COMPLETE;
 495:STM32F10x_StdPeriph_Driver/src/stm32f10x_flash.c **** 
 496:STM32F10x_StdPeriph_Driver/src/stm32f10x_flash.c **** #ifdef STM32F10X_XL
 497:STM32F10x_StdPeriph_Driver/src/stm32f10x_flash.c ****   /* Wait for last operation to be completed */
 498:STM32F10x_StdPeriph_Driver/src/stm32f10x_flash.c ****   status = FLASH_WaitForLastBank1Operation(EraseTimeout);
 499:STM32F10x_StdPeriph_Driver/src/stm32f10x_flash.c ****   
 500:STM32F10x_StdPeriph_Driver/src/stm32f10x_flash.c ****   if(status == FLASH_COMPLETE)
 501:STM32F10x_StdPeriph_Driver/src/stm32f10x_flash.c ****   {
 502:STM32F10x_StdPeriph_Driver/src/stm32f10x_flash.c ****     /* if the previous operation is completed, proceed to erase all pages */
 503:STM32F10x_StdPeriph_Driver/src/stm32f10x_flash.c ****      FLASH->CR |= CR_MER_Set;
 504:STM32F10x_StdPeriph_Driver/src/stm32f10x_flash.c ****      FLASH->CR |= CR_STRT_Set;
 505:STM32F10x_StdPeriph_Driver/src/stm32f10x_flash.c ****     
 506:STM32F10x_StdPeriph_Driver/src/stm32f10x_flash.c ****     /* Wait for last operation to be completed */
 507:STM32F10x_StdPeriph_Driver/src/stm32f10x_flash.c ****     status = FLASH_WaitForLastBank1Operation(EraseTimeout);
 508:STM32F10x_StdPeriph_Driver/src/stm32f10x_flash.c ****     
 509:STM32F10x_StdPeriph_Driver/src/stm32f10x_flash.c ****     /* Disable the MER Bit */
 510:STM32F10x_StdPeriph_Driver/src/stm32f10x_flash.c ****     FLASH->CR &= CR_MER_Reset;
 511:STM32F10x_StdPeriph_Driver/src/stm32f10x_flash.c ****   }    
 512:STM32F10x_StdPeriph_Driver/src/stm32f10x_flash.c ****   if(status == FLASH_COMPLETE)
 513:STM32F10x_StdPeriph_Driver/src/stm32f10x_flash.c ****   {
 514:STM32F10x_StdPeriph_Driver/src/stm32f10x_flash.c ****     /* if the previous operation is completed, proceed to erase all pages */
 515:STM32F10x_StdPeriph_Driver/src/stm32f10x_flash.c ****      FLASH->CR2 |= CR_MER_Set;
 516:STM32F10x_StdPeriph_Driver/src/stm32f10x_flash.c ****      FLASH->CR2 |= CR_STRT_Set;
 517:STM32F10x_StdPeriph_Driver/src/stm32f10x_flash.c ****     
 518:STM32F10x_StdPeriph_Driver/src/stm32f10x_flash.c ****     /* Wait for last operation to be completed */
 519:STM32F10x_StdPeriph_Driver/src/stm32f10x_flash.c ****     status = FLASH_WaitForLastBank2Operation(EraseTimeout);
 520:STM32F10x_StdPeriph_Driver/src/stm32f10x_flash.c ****     
 521:STM32F10x_StdPeriph_Driver/src/stm32f10x_flash.c ****     /* Disable the MER Bit */
 522:STM32F10x_StdPeriph_Driver/src/stm32f10x_flash.c ****     FLASH->CR2 &= CR_MER_Reset;
 523:STM32F10x_StdPeriph_Driver/src/stm32f10x_flash.c ****   }
 524:STM32F10x_StdPeriph_Driver/src/stm32f10x_flash.c **** #else
 525:STM32F10x_StdPeriph_Driver/src/stm32f10x_flash.c ****   /* Wait for last operation to be completed */
 526:STM32F10x_StdPeriph_Driver/src/stm32f10x_flash.c ****   status = FLASH_WaitForLastOperation(EraseTimeout);
 527:STM32F10x_StdPeriph_Driver/src/stm32f10x_flash.c ****   if(status == FLASH_COMPLETE)
 528:STM32F10x_StdPeriph_Driver/src/stm32f10x_flash.c ****   {
 529:STM32F10x_StdPeriph_Driver/src/stm32f10x_flash.c ****     /* if the previous operation is completed, proceed to erase all pages */
 530:STM32F10x_StdPeriph_Driver/src/stm32f10x_flash.c ****      FLASH->CR |= CR_MER_Set;
 531:STM32F10x_StdPeriph_Driver/src/stm32f10x_flash.c ****      FLASH->CR |= CR_STRT_Set;
 532:STM32F10x_StdPeriph_Driver/src/stm32f10x_flash.c ****     
 533:STM32F10x_StdPeriph_Driver/src/stm32f10x_flash.c ****     /* Wait for last operation to be completed */
 534:STM32F10x_StdPeriph_Driver/src/stm32f10x_flash.c ****     status = FLASH_WaitForLastOperation(EraseTimeout);
 535:STM32F10x_StdPeriph_Driver/src/stm32f10x_flash.c **** 
 536:STM32F10x_StdPeriph_Driver/src/stm32f10x_flash.c ****     /* Disable the MER Bit */
 537:STM32F10x_StdPeriph_Driver/src/stm32f10x_flash.c ****     FLASH->CR &= CR_MER_Reset;
 538:STM32F10x_StdPeriph_Driver/src/stm32f10x_flash.c ****   }
 539:STM32F10x_StdPeriph_Driver/src/stm32f10x_flash.c **** #endif /* STM32F10X_XL */
 540:STM32F10x_StdPeriph_Driver/src/stm32f10x_flash.c **** 
 541:STM32F10x_StdPeriph_Driver/src/stm32f10x_flash.c ****   /* Return the Erase Status */
 542:STM32F10x_StdPeriph_Driver/src/stm32f10x_flash.c ****   return status;
 543:STM32F10x_StdPeriph_Driver/src/stm32f10x_flash.c **** }
ARM GAS  C:\Users\kevin\AppData\Local\Temp\ccopMTuX.s 			page 15


 544:STM32F10x_StdPeriph_Driver/src/stm32f10x_flash.c **** 
 545:STM32F10x_StdPeriph_Driver/src/stm32f10x_flash.c **** /**
 546:STM32F10x_StdPeriph_Driver/src/stm32f10x_flash.c ****   * @brief  Erases all Bank1 FLASH pages.
 547:STM32F10x_StdPeriph_Driver/src/stm32f10x_flash.c ****   * @note   This function can be used for all STM32F10x devices.
 548:STM32F10x_StdPeriph_Driver/src/stm32f10x_flash.c ****   *         - For STM32F10X_XL devices this function erases all Bank1 pages.
 549:STM32F10x_StdPeriph_Driver/src/stm32f10x_flash.c ****   *         - For all other devices it erases all Bank1 pages and it is equivalent 
 550:STM32F10x_StdPeriph_Driver/src/stm32f10x_flash.c ****   *           to FLASH_EraseAllPages function.
 551:STM32F10x_StdPeriph_Driver/src/stm32f10x_flash.c ****   * @param  None
 552:STM32F10x_StdPeriph_Driver/src/stm32f10x_flash.c ****   * @retval FLASH Status: The returned value can be: FLASH_ERROR_PG,
 553:STM32F10x_StdPeriph_Driver/src/stm32f10x_flash.c ****   *         FLASH_ERROR_WRP, FLASH_COMPLETE or FLASH_TIMEOUT.
 554:STM32F10x_StdPeriph_Driver/src/stm32f10x_flash.c ****   */
 555:STM32F10x_StdPeriph_Driver/src/stm32f10x_flash.c **** FLASH_Status FLASH_EraseAllBank1Pages(void)
 556:STM32F10x_StdPeriph_Driver/src/stm32f10x_flash.c **** {
 557:STM32F10x_StdPeriph_Driver/src/stm32f10x_flash.c ****   FLASH_Status status = FLASH_COMPLETE;
 558:STM32F10x_StdPeriph_Driver/src/stm32f10x_flash.c ****   /* Wait for last operation to be completed */
 559:STM32F10x_StdPeriph_Driver/src/stm32f10x_flash.c ****   status = FLASH_WaitForLastBank1Operation(EraseTimeout);
 560:STM32F10x_StdPeriph_Driver/src/stm32f10x_flash.c ****   
 561:STM32F10x_StdPeriph_Driver/src/stm32f10x_flash.c ****   if(status == FLASH_COMPLETE)
 562:STM32F10x_StdPeriph_Driver/src/stm32f10x_flash.c ****   {
 563:STM32F10x_StdPeriph_Driver/src/stm32f10x_flash.c ****     /* if the previous operation is completed, proceed to erase all pages */
 564:STM32F10x_StdPeriph_Driver/src/stm32f10x_flash.c ****      FLASH->CR |= CR_MER_Set;
 565:STM32F10x_StdPeriph_Driver/src/stm32f10x_flash.c ****      FLASH->CR |= CR_STRT_Set;
 566:STM32F10x_StdPeriph_Driver/src/stm32f10x_flash.c ****     
 567:STM32F10x_StdPeriph_Driver/src/stm32f10x_flash.c ****     /* Wait for last operation to be completed */
 568:STM32F10x_StdPeriph_Driver/src/stm32f10x_flash.c ****     status = FLASH_WaitForLastBank1Operation(EraseTimeout);
 569:STM32F10x_StdPeriph_Driver/src/stm32f10x_flash.c ****     
 570:STM32F10x_StdPeriph_Driver/src/stm32f10x_flash.c ****     /* Disable the MER Bit */
 571:STM32F10x_StdPeriph_Driver/src/stm32f10x_flash.c ****     FLASH->CR &= CR_MER_Reset;
 572:STM32F10x_StdPeriph_Driver/src/stm32f10x_flash.c ****   }    
 573:STM32F10x_StdPeriph_Driver/src/stm32f10x_flash.c ****   /* Return the Erase Status */
 574:STM32F10x_StdPeriph_Driver/src/stm32f10x_flash.c ****   return status;
 575:STM32F10x_StdPeriph_Driver/src/stm32f10x_flash.c **** }
 576:STM32F10x_StdPeriph_Driver/src/stm32f10x_flash.c **** 
 577:STM32F10x_StdPeriph_Driver/src/stm32f10x_flash.c **** #ifdef STM32F10X_XL
 578:STM32F10x_StdPeriph_Driver/src/stm32f10x_flash.c **** /**
 579:STM32F10x_StdPeriph_Driver/src/stm32f10x_flash.c ****   * @brief  Erases all Bank2 FLASH pages.
 580:STM32F10x_StdPeriph_Driver/src/stm32f10x_flash.c ****   * @note   This function can be used only for STM32F10x_XL density devices.
 581:STM32F10x_StdPeriph_Driver/src/stm32f10x_flash.c ****   * @param  None
 582:STM32F10x_StdPeriph_Driver/src/stm32f10x_flash.c ****   * @retval FLASH Status: The returned value can be: FLASH_ERROR_PG,
 583:STM32F10x_StdPeriph_Driver/src/stm32f10x_flash.c ****   *         FLASH_ERROR_WRP, FLASH_COMPLETE or FLASH_TIMEOUT.
 584:STM32F10x_StdPeriph_Driver/src/stm32f10x_flash.c ****   */
 585:STM32F10x_StdPeriph_Driver/src/stm32f10x_flash.c **** FLASH_Status FLASH_EraseAllBank2Pages(void)
 586:STM32F10x_StdPeriph_Driver/src/stm32f10x_flash.c **** {
 587:STM32F10x_StdPeriph_Driver/src/stm32f10x_flash.c ****   FLASH_Status status = FLASH_COMPLETE;
 588:STM32F10x_StdPeriph_Driver/src/stm32f10x_flash.c ****   /* Wait for last operation to be completed */
 589:STM32F10x_StdPeriph_Driver/src/stm32f10x_flash.c ****   status = FLASH_WaitForLastBank2Operation(EraseTimeout);
 590:STM32F10x_StdPeriph_Driver/src/stm32f10x_flash.c ****   
 591:STM32F10x_StdPeriph_Driver/src/stm32f10x_flash.c ****   if(status == FLASH_COMPLETE)
 592:STM32F10x_StdPeriph_Driver/src/stm32f10x_flash.c ****   {
 593:STM32F10x_StdPeriph_Driver/src/stm32f10x_flash.c ****     /* if the previous operation is completed, proceed to erase all pages */
 594:STM32F10x_StdPeriph_Driver/src/stm32f10x_flash.c ****      FLASH->CR2 |= CR_MER_Set;
 595:STM32F10x_StdPeriph_Driver/src/stm32f10x_flash.c ****      FLASH->CR2 |= CR_STRT_Set;
 596:STM32F10x_StdPeriph_Driver/src/stm32f10x_flash.c ****     
 597:STM32F10x_StdPeriph_Driver/src/stm32f10x_flash.c ****     /* Wait for last operation to be completed */
 598:STM32F10x_StdPeriph_Driver/src/stm32f10x_flash.c ****     status = FLASH_WaitForLastBank2Operation(EraseTimeout);
 599:STM32F10x_StdPeriph_Driver/src/stm32f10x_flash.c **** 
 600:STM32F10x_StdPeriph_Driver/src/stm32f10x_flash.c ****     /* Disable the MER Bit */
ARM GAS  C:\Users\kevin\AppData\Local\Temp\ccopMTuX.s 			page 16


 601:STM32F10x_StdPeriph_Driver/src/stm32f10x_flash.c ****     FLASH->CR2 &= CR_MER_Reset;
 602:STM32F10x_StdPeriph_Driver/src/stm32f10x_flash.c ****   }    
 603:STM32F10x_StdPeriph_Driver/src/stm32f10x_flash.c ****   /* Return the Erase Status */
 604:STM32F10x_StdPeriph_Driver/src/stm32f10x_flash.c ****   return status;
 605:STM32F10x_StdPeriph_Driver/src/stm32f10x_flash.c **** }
 606:STM32F10x_StdPeriph_Driver/src/stm32f10x_flash.c **** #endif /* STM32F10X_XL */
 607:STM32F10x_StdPeriph_Driver/src/stm32f10x_flash.c **** 
 608:STM32F10x_StdPeriph_Driver/src/stm32f10x_flash.c **** /**
 609:STM32F10x_StdPeriph_Driver/src/stm32f10x_flash.c ****   * @brief  Erases the FLASH option bytes.
 610:STM32F10x_StdPeriph_Driver/src/stm32f10x_flash.c ****   * @note   This functions erases all option bytes except the Read protection (RDP). 
 611:STM32F10x_StdPeriph_Driver/src/stm32f10x_flash.c ****   * @note   This function can be used for all STM32F10x devices.
 612:STM32F10x_StdPeriph_Driver/src/stm32f10x_flash.c ****   * @param  None
 613:STM32F10x_StdPeriph_Driver/src/stm32f10x_flash.c ****   * @retval FLASH Status: The returned value can be: FLASH_ERROR_PG,
 614:STM32F10x_StdPeriph_Driver/src/stm32f10x_flash.c ****   *         FLASH_ERROR_WRP, FLASH_COMPLETE or FLASH_TIMEOUT.
 615:STM32F10x_StdPeriph_Driver/src/stm32f10x_flash.c ****   */
 616:STM32F10x_StdPeriph_Driver/src/stm32f10x_flash.c **** FLASH_Status FLASH_EraseOptionBytes(void)
 617:STM32F10x_StdPeriph_Driver/src/stm32f10x_flash.c **** {
 618:STM32F10x_StdPeriph_Driver/src/stm32f10x_flash.c ****   uint16_t rdptmp = RDP_Key;
 619:STM32F10x_StdPeriph_Driver/src/stm32f10x_flash.c **** 
 620:STM32F10x_StdPeriph_Driver/src/stm32f10x_flash.c ****   FLASH_Status status = FLASH_COMPLETE;
 621:STM32F10x_StdPeriph_Driver/src/stm32f10x_flash.c **** 
 622:STM32F10x_StdPeriph_Driver/src/stm32f10x_flash.c ****   /* Get the actual read protection Option Byte value */ 
 623:STM32F10x_StdPeriph_Driver/src/stm32f10x_flash.c ****   if(FLASH_GetReadOutProtectionStatus() != RESET)
 624:STM32F10x_StdPeriph_Driver/src/stm32f10x_flash.c ****   {
 625:STM32F10x_StdPeriph_Driver/src/stm32f10x_flash.c ****     rdptmp = 0x00;  
 626:STM32F10x_StdPeriph_Driver/src/stm32f10x_flash.c ****   }
 627:STM32F10x_StdPeriph_Driver/src/stm32f10x_flash.c **** 
 628:STM32F10x_StdPeriph_Driver/src/stm32f10x_flash.c ****   /* Wait for last operation to be completed */
 629:STM32F10x_StdPeriph_Driver/src/stm32f10x_flash.c ****   status = FLASH_WaitForLastOperation(EraseTimeout);
 630:STM32F10x_StdPeriph_Driver/src/stm32f10x_flash.c ****   if(status == FLASH_COMPLETE)
 631:STM32F10x_StdPeriph_Driver/src/stm32f10x_flash.c ****   {
 632:STM32F10x_StdPeriph_Driver/src/stm32f10x_flash.c ****     /* Authorize the small information block programming */
 633:STM32F10x_StdPeriph_Driver/src/stm32f10x_flash.c ****     FLASH->OPTKEYR = FLASH_KEY1;
 634:STM32F10x_StdPeriph_Driver/src/stm32f10x_flash.c ****     FLASH->OPTKEYR = FLASH_KEY2;
 635:STM32F10x_StdPeriph_Driver/src/stm32f10x_flash.c ****     
 636:STM32F10x_StdPeriph_Driver/src/stm32f10x_flash.c ****     /* if the previous operation is completed, proceed to erase the option bytes */
 637:STM32F10x_StdPeriph_Driver/src/stm32f10x_flash.c ****     FLASH->CR |= CR_OPTER_Set;
 638:STM32F10x_StdPeriph_Driver/src/stm32f10x_flash.c ****     FLASH->CR |= CR_STRT_Set;
 639:STM32F10x_StdPeriph_Driver/src/stm32f10x_flash.c ****     /* Wait for last operation to be completed */
 640:STM32F10x_StdPeriph_Driver/src/stm32f10x_flash.c ****     status = FLASH_WaitForLastOperation(EraseTimeout);
 641:STM32F10x_StdPeriph_Driver/src/stm32f10x_flash.c ****     
 642:STM32F10x_StdPeriph_Driver/src/stm32f10x_flash.c ****     if(status == FLASH_COMPLETE)
 643:STM32F10x_StdPeriph_Driver/src/stm32f10x_flash.c ****     {
 644:STM32F10x_StdPeriph_Driver/src/stm32f10x_flash.c ****       /* if the erase operation is completed, disable the OPTER Bit */
 645:STM32F10x_StdPeriph_Driver/src/stm32f10x_flash.c ****       FLASH->CR &= CR_OPTER_Reset;
 646:STM32F10x_StdPeriph_Driver/src/stm32f10x_flash.c ****        
 647:STM32F10x_StdPeriph_Driver/src/stm32f10x_flash.c ****       /* Enable the Option Bytes Programming operation */
 648:STM32F10x_StdPeriph_Driver/src/stm32f10x_flash.c ****       FLASH->CR |= CR_OPTPG_Set;
 649:STM32F10x_StdPeriph_Driver/src/stm32f10x_flash.c ****       /* Restore the last read protection Option Byte value */
 650:STM32F10x_StdPeriph_Driver/src/stm32f10x_flash.c ****       OB->RDP = (uint16_t)rdptmp; 
 651:STM32F10x_StdPeriph_Driver/src/stm32f10x_flash.c ****       /* Wait for last operation to be completed */
 652:STM32F10x_StdPeriph_Driver/src/stm32f10x_flash.c ****       status = FLASH_WaitForLastOperation(ProgramTimeout);
 653:STM32F10x_StdPeriph_Driver/src/stm32f10x_flash.c ****  
 654:STM32F10x_StdPeriph_Driver/src/stm32f10x_flash.c ****       if(status != FLASH_TIMEOUT)
 655:STM32F10x_StdPeriph_Driver/src/stm32f10x_flash.c ****       {
 656:STM32F10x_StdPeriph_Driver/src/stm32f10x_flash.c ****         /* if the program operation is completed, disable the OPTPG Bit */
 657:STM32F10x_StdPeriph_Driver/src/stm32f10x_flash.c ****         FLASH->CR &= CR_OPTPG_Reset;
ARM GAS  C:\Users\kevin\AppData\Local\Temp\ccopMTuX.s 			page 17


 658:STM32F10x_StdPeriph_Driver/src/stm32f10x_flash.c ****       }
 659:STM32F10x_StdPeriph_Driver/src/stm32f10x_flash.c ****     }
 660:STM32F10x_StdPeriph_Driver/src/stm32f10x_flash.c ****     else
 661:STM32F10x_StdPeriph_Driver/src/stm32f10x_flash.c ****     {
 662:STM32F10x_StdPeriph_Driver/src/stm32f10x_flash.c ****       if (status != FLASH_TIMEOUT)
 663:STM32F10x_StdPeriph_Driver/src/stm32f10x_flash.c ****       {
 664:STM32F10x_StdPeriph_Driver/src/stm32f10x_flash.c ****         /* Disable the OPTPG Bit */
 665:STM32F10x_StdPeriph_Driver/src/stm32f10x_flash.c ****         FLASH->CR &= CR_OPTPG_Reset;
 666:STM32F10x_StdPeriph_Driver/src/stm32f10x_flash.c ****       }
 667:STM32F10x_StdPeriph_Driver/src/stm32f10x_flash.c ****     }  
 668:STM32F10x_StdPeriph_Driver/src/stm32f10x_flash.c ****   }
 669:STM32F10x_StdPeriph_Driver/src/stm32f10x_flash.c ****   /* Return the erase status */
 670:STM32F10x_StdPeriph_Driver/src/stm32f10x_flash.c ****   return status;
 671:STM32F10x_StdPeriph_Driver/src/stm32f10x_flash.c **** }
 672:STM32F10x_StdPeriph_Driver/src/stm32f10x_flash.c **** 
 673:STM32F10x_StdPeriph_Driver/src/stm32f10x_flash.c **** /**
 674:STM32F10x_StdPeriph_Driver/src/stm32f10x_flash.c ****   * @brief  Programs a word at a specified address.
 675:STM32F10x_StdPeriph_Driver/src/stm32f10x_flash.c ****   * @note   This function can be used for all STM32F10x devices.
 676:STM32F10x_StdPeriph_Driver/src/stm32f10x_flash.c ****   * @param  Address: specifies the address to be programmed.
 677:STM32F10x_StdPeriph_Driver/src/stm32f10x_flash.c ****   * @param  Data: specifies the data to be programmed.
 678:STM32F10x_StdPeriph_Driver/src/stm32f10x_flash.c ****   * @retval FLASH Status: The returned value can be: FLASH_ERROR_PG,
 679:STM32F10x_StdPeriph_Driver/src/stm32f10x_flash.c ****   *         FLASH_ERROR_WRP, FLASH_COMPLETE or FLASH_TIMEOUT. 
 680:STM32F10x_StdPeriph_Driver/src/stm32f10x_flash.c ****   */
 681:STM32F10x_StdPeriph_Driver/src/stm32f10x_flash.c **** FLASH_Status FLASH_ProgramWord(uint32_t Address, uint32_t Data)
 682:STM32F10x_StdPeriph_Driver/src/stm32f10x_flash.c **** {
 683:STM32F10x_StdPeriph_Driver/src/stm32f10x_flash.c ****   FLASH_Status status = FLASH_COMPLETE;
 684:STM32F10x_StdPeriph_Driver/src/stm32f10x_flash.c ****   __IO uint32_t tmp = 0;
 685:STM32F10x_StdPeriph_Driver/src/stm32f10x_flash.c **** 
 686:STM32F10x_StdPeriph_Driver/src/stm32f10x_flash.c ****   /* Check the parameters */
 687:STM32F10x_StdPeriph_Driver/src/stm32f10x_flash.c ****   assert_param(IS_FLASH_ADDRESS(Address));
 688:STM32F10x_StdPeriph_Driver/src/stm32f10x_flash.c **** 
 689:STM32F10x_StdPeriph_Driver/src/stm32f10x_flash.c **** #ifdef STM32F10X_XL
 690:STM32F10x_StdPeriph_Driver/src/stm32f10x_flash.c ****   if(Address < FLASH_BANK1_END_ADDRESS - 2)
 691:STM32F10x_StdPeriph_Driver/src/stm32f10x_flash.c ****   { 
 692:STM32F10x_StdPeriph_Driver/src/stm32f10x_flash.c ****     /* Wait for last operation to be completed */
 693:STM32F10x_StdPeriph_Driver/src/stm32f10x_flash.c ****     status = FLASH_WaitForLastBank1Operation(ProgramTimeout); 
 694:STM32F10x_StdPeriph_Driver/src/stm32f10x_flash.c ****     if(status == FLASH_COMPLETE)
 695:STM32F10x_StdPeriph_Driver/src/stm32f10x_flash.c ****     {
 696:STM32F10x_StdPeriph_Driver/src/stm32f10x_flash.c ****       /* if the previous operation is completed, proceed to program the new first 
 697:STM32F10x_StdPeriph_Driver/src/stm32f10x_flash.c ****         half word */
 698:STM32F10x_StdPeriph_Driver/src/stm32f10x_flash.c ****       FLASH->CR |= CR_PG_Set;
 699:STM32F10x_StdPeriph_Driver/src/stm32f10x_flash.c ****   
 700:STM32F10x_StdPeriph_Driver/src/stm32f10x_flash.c ****       *(__IO uint16_t*)Address = (uint16_t)Data;
 701:STM32F10x_StdPeriph_Driver/src/stm32f10x_flash.c ****       /* Wait for last operation to be completed */
 702:STM32F10x_StdPeriph_Driver/src/stm32f10x_flash.c ****       status = FLASH_WaitForLastOperation(ProgramTimeout);
 703:STM32F10x_StdPeriph_Driver/src/stm32f10x_flash.c ****  
 704:STM32F10x_StdPeriph_Driver/src/stm32f10x_flash.c ****       if(status == FLASH_COMPLETE)
 705:STM32F10x_StdPeriph_Driver/src/stm32f10x_flash.c ****       {
 706:STM32F10x_StdPeriph_Driver/src/stm32f10x_flash.c ****         /* if the previous operation is completed, proceed to program the new second 
 707:STM32F10x_StdPeriph_Driver/src/stm32f10x_flash.c ****         half word */
 708:STM32F10x_StdPeriph_Driver/src/stm32f10x_flash.c ****         tmp = Address + 2;
 709:STM32F10x_StdPeriph_Driver/src/stm32f10x_flash.c **** 
 710:STM32F10x_StdPeriph_Driver/src/stm32f10x_flash.c ****         *(__IO uint16_t*) tmp = Data >> 16;
 711:STM32F10x_StdPeriph_Driver/src/stm32f10x_flash.c ****     
 712:STM32F10x_StdPeriph_Driver/src/stm32f10x_flash.c ****         /* Wait for last operation to be completed */
 713:STM32F10x_StdPeriph_Driver/src/stm32f10x_flash.c ****         status = FLASH_WaitForLastOperation(ProgramTimeout);
 714:STM32F10x_StdPeriph_Driver/src/stm32f10x_flash.c ****         
ARM GAS  C:\Users\kevin\AppData\Local\Temp\ccopMTuX.s 			page 18


 715:STM32F10x_StdPeriph_Driver/src/stm32f10x_flash.c ****         /* Disable the PG Bit */
 716:STM32F10x_StdPeriph_Driver/src/stm32f10x_flash.c ****         FLASH->CR &= CR_PG_Reset;
 717:STM32F10x_StdPeriph_Driver/src/stm32f10x_flash.c ****       }
 718:STM32F10x_StdPeriph_Driver/src/stm32f10x_flash.c ****       else
 719:STM32F10x_StdPeriph_Driver/src/stm32f10x_flash.c ****       {
 720:STM32F10x_StdPeriph_Driver/src/stm32f10x_flash.c ****         /* Disable the PG Bit */
 721:STM32F10x_StdPeriph_Driver/src/stm32f10x_flash.c ****         FLASH->CR &= CR_PG_Reset;
 722:STM32F10x_StdPeriph_Driver/src/stm32f10x_flash.c ****        }
 723:STM32F10x_StdPeriph_Driver/src/stm32f10x_flash.c ****     }
 724:STM32F10x_StdPeriph_Driver/src/stm32f10x_flash.c ****   }
 725:STM32F10x_StdPeriph_Driver/src/stm32f10x_flash.c ****   else if(Address == (FLASH_BANK1_END_ADDRESS - 1))
 726:STM32F10x_StdPeriph_Driver/src/stm32f10x_flash.c ****   {
 727:STM32F10x_StdPeriph_Driver/src/stm32f10x_flash.c ****     /* Wait for last operation to be completed */
 728:STM32F10x_StdPeriph_Driver/src/stm32f10x_flash.c ****     status = FLASH_WaitForLastBank1Operation(ProgramTimeout);
 729:STM32F10x_StdPeriph_Driver/src/stm32f10x_flash.c **** 
 730:STM32F10x_StdPeriph_Driver/src/stm32f10x_flash.c ****     if(status == FLASH_COMPLETE)
 731:STM32F10x_StdPeriph_Driver/src/stm32f10x_flash.c ****     {
 732:STM32F10x_StdPeriph_Driver/src/stm32f10x_flash.c ****       /* if the previous operation is completed, proceed to program the new first 
 733:STM32F10x_StdPeriph_Driver/src/stm32f10x_flash.c ****         half word */
 734:STM32F10x_StdPeriph_Driver/src/stm32f10x_flash.c ****       FLASH->CR |= CR_PG_Set;
 735:STM32F10x_StdPeriph_Driver/src/stm32f10x_flash.c ****   
 736:STM32F10x_StdPeriph_Driver/src/stm32f10x_flash.c ****       *(__IO uint16_t*)Address = (uint16_t)Data;
 737:STM32F10x_StdPeriph_Driver/src/stm32f10x_flash.c **** 
 738:STM32F10x_StdPeriph_Driver/src/stm32f10x_flash.c ****       /* Wait for last operation to be completed */
 739:STM32F10x_StdPeriph_Driver/src/stm32f10x_flash.c ****       status = FLASH_WaitForLastBank1Operation(ProgramTimeout);
 740:STM32F10x_StdPeriph_Driver/src/stm32f10x_flash.c ****       
 741:STM32F10x_StdPeriph_Driver/src/stm32f10x_flash.c **** 	  /* Disable the PG Bit */
 742:STM32F10x_StdPeriph_Driver/src/stm32f10x_flash.c ****       FLASH->CR &= CR_PG_Reset;
 743:STM32F10x_StdPeriph_Driver/src/stm32f10x_flash.c ****     }
 744:STM32F10x_StdPeriph_Driver/src/stm32f10x_flash.c ****     else
 745:STM32F10x_StdPeriph_Driver/src/stm32f10x_flash.c ****     {
 746:STM32F10x_StdPeriph_Driver/src/stm32f10x_flash.c ****       /* Disable the PG Bit */
 747:STM32F10x_StdPeriph_Driver/src/stm32f10x_flash.c ****       FLASH->CR &= CR_PG_Reset;
 748:STM32F10x_StdPeriph_Driver/src/stm32f10x_flash.c ****     }
 749:STM32F10x_StdPeriph_Driver/src/stm32f10x_flash.c **** 
 750:STM32F10x_StdPeriph_Driver/src/stm32f10x_flash.c ****     /* Wait for last operation to be completed */
 751:STM32F10x_StdPeriph_Driver/src/stm32f10x_flash.c ****     status = FLASH_WaitForLastBank2Operation(ProgramTimeout);
 752:STM32F10x_StdPeriph_Driver/src/stm32f10x_flash.c **** 
 753:STM32F10x_StdPeriph_Driver/src/stm32f10x_flash.c ****     if(status == FLASH_COMPLETE)
 754:STM32F10x_StdPeriph_Driver/src/stm32f10x_flash.c ****     {
 755:STM32F10x_StdPeriph_Driver/src/stm32f10x_flash.c ****       /* if the previous operation is completed, proceed to program the new second 
 756:STM32F10x_StdPeriph_Driver/src/stm32f10x_flash.c ****       half word */
 757:STM32F10x_StdPeriph_Driver/src/stm32f10x_flash.c ****       FLASH->CR2 |= CR_PG_Set;
 758:STM32F10x_StdPeriph_Driver/src/stm32f10x_flash.c ****       tmp = Address + 2;
 759:STM32F10x_StdPeriph_Driver/src/stm32f10x_flash.c **** 
 760:STM32F10x_StdPeriph_Driver/src/stm32f10x_flash.c ****       *(__IO uint16_t*) tmp = Data >> 16;
 761:STM32F10x_StdPeriph_Driver/src/stm32f10x_flash.c ****     
 762:STM32F10x_StdPeriph_Driver/src/stm32f10x_flash.c ****       /* Wait for last operation to be completed */
 763:STM32F10x_StdPeriph_Driver/src/stm32f10x_flash.c ****       status = FLASH_WaitForLastBank2Operation(ProgramTimeout);
 764:STM32F10x_StdPeriph_Driver/src/stm32f10x_flash.c ****         
 765:STM32F10x_StdPeriph_Driver/src/stm32f10x_flash.c ****       /* Disable the PG Bit */
 766:STM32F10x_StdPeriph_Driver/src/stm32f10x_flash.c ****       FLASH->CR2 &= CR_PG_Reset;
 767:STM32F10x_StdPeriph_Driver/src/stm32f10x_flash.c ****     }
 768:STM32F10x_StdPeriph_Driver/src/stm32f10x_flash.c ****     else
 769:STM32F10x_StdPeriph_Driver/src/stm32f10x_flash.c ****     {
 770:STM32F10x_StdPeriph_Driver/src/stm32f10x_flash.c ****       /* Disable the PG Bit */
 771:STM32F10x_StdPeriph_Driver/src/stm32f10x_flash.c ****       FLASH->CR2 &= CR_PG_Reset;
ARM GAS  C:\Users\kevin\AppData\Local\Temp\ccopMTuX.s 			page 19


 772:STM32F10x_StdPeriph_Driver/src/stm32f10x_flash.c ****     }
 773:STM32F10x_StdPeriph_Driver/src/stm32f10x_flash.c ****   }
 774:STM32F10x_StdPeriph_Driver/src/stm32f10x_flash.c ****   else
 775:STM32F10x_StdPeriph_Driver/src/stm32f10x_flash.c ****   {
 776:STM32F10x_StdPeriph_Driver/src/stm32f10x_flash.c ****     /* Wait for last operation to be completed */
 777:STM32F10x_StdPeriph_Driver/src/stm32f10x_flash.c ****     status = FLASH_WaitForLastBank2Operation(ProgramTimeout);
 778:STM32F10x_StdPeriph_Driver/src/stm32f10x_flash.c **** 
 779:STM32F10x_StdPeriph_Driver/src/stm32f10x_flash.c ****     if(status == FLASH_COMPLETE)
 780:STM32F10x_StdPeriph_Driver/src/stm32f10x_flash.c ****     {
 781:STM32F10x_StdPeriph_Driver/src/stm32f10x_flash.c ****       /* if the previous operation is completed, proceed to program the new first 
 782:STM32F10x_StdPeriph_Driver/src/stm32f10x_flash.c ****         half word */
 783:STM32F10x_StdPeriph_Driver/src/stm32f10x_flash.c ****       FLASH->CR2 |= CR_PG_Set;
 784:STM32F10x_StdPeriph_Driver/src/stm32f10x_flash.c ****   
 785:STM32F10x_StdPeriph_Driver/src/stm32f10x_flash.c ****       *(__IO uint16_t*)Address = (uint16_t)Data;
 786:STM32F10x_StdPeriph_Driver/src/stm32f10x_flash.c ****       /* Wait for last operation to be completed */
 787:STM32F10x_StdPeriph_Driver/src/stm32f10x_flash.c ****       status = FLASH_WaitForLastBank2Operation(ProgramTimeout);
 788:STM32F10x_StdPeriph_Driver/src/stm32f10x_flash.c ****  
 789:STM32F10x_StdPeriph_Driver/src/stm32f10x_flash.c ****       if(status == FLASH_COMPLETE)
 790:STM32F10x_StdPeriph_Driver/src/stm32f10x_flash.c ****       {
 791:STM32F10x_StdPeriph_Driver/src/stm32f10x_flash.c ****         /* if the previous operation is completed, proceed to program the new second 
 792:STM32F10x_StdPeriph_Driver/src/stm32f10x_flash.c ****         half word */
 793:STM32F10x_StdPeriph_Driver/src/stm32f10x_flash.c ****         tmp = Address + 2;
 794:STM32F10x_StdPeriph_Driver/src/stm32f10x_flash.c **** 
 795:STM32F10x_StdPeriph_Driver/src/stm32f10x_flash.c ****         *(__IO uint16_t*) tmp = Data >> 16;
 796:STM32F10x_StdPeriph_Driver/src/stm32f10x_flash.c ****     
 797:STM32F10x_StdPeriph_Driver/src/stm32f10x_flash.c ****         /* Wait for last operation to be completed */
 798:STM32F10x_StdPeriph_Driver/src/stm32f10x_flash.c ****         status = FLASH_WaitForLastBank2Operation(ProgramTimeout);
 799:STM32F10x_StdPeriph_Driver/src/stm32f10x_flash.c ****         
 800:STM32F10x_StdPeriph_Driver/src/stm32f10x_flash.c ****         /* Disable the PG Bit */
 801:STM32F10x_StdPeriph_Driver/src/stm32f10x_flash.c ****         FLASH->CR2 &= CR_PG_Reset;
 802:STM32F10x_StdPeriph_Driver/src/stm32f10x_flash.c ****       }
 803:STM32F10x_StdPeriph_Driver/src/stm32f10x_flash.c ****       else
 804:STM32F10x_StdPeriph_Driver/src/stm32f10x_flash.c ****       {
 805:STM32F10x_StdPeriph_Driver/src/stm32f10x_flash.c ****         /* Disable the PG Bit */
 806:STM32F10x_StdPeriph_Driver/src/stm32f10x_flash.c ****         FLASH->CR2 &= CR_PG_Reset;
 807:STM32F10x_StdPeriph_Driver/src/stm32f10x_flash.c ****       }
 808:STM32F10x_StdPeriph_Driver/src/stm32f10x_flash.c ****     }
 809:STM32F10x_StdPeriph_Driver/src/stm32f10x_flash.c ****   }
 810:STM32F10x_StdPeriph_Driver/src/stm32f10x_flash.c **** #else
 811:STM32F10x_StdPeriph_Driver/src/stm32f10x_flash.c ****   /* Wait for last operation to be completed */
 812:STM32F10x_StdPeriph_Driver/src/stm32f10x_flash.c ****   status = FLASH_WaitForLastOperation(ProgramTimeout);
 813:STM32F10x_StdPeriph_Driver/src/stm32f10x_flash.c ****   
 814:STM32F10x_StdPeriph_Driver/src/stm32f10x_flash.c ****   if(status == FLASH_COMPLETE)
 815:STM32F10x_StdPeriph_Driver/src/stm32f10x_flash.c ****   {
 816:STM32F10x_StdPeriph_Driver/src/stm32f10x_flash.c ****     /* if the previous operation is completed, proceed to program the new first 
 817:STM32F10x_StdPeriph_Driver/src/stm32f10x_flash.c ****     half word */
 818:STM32F10x_StdPeriph_Driver/src/stm32f10x_flash.c ****     FLASH->CR |= CR_PG_Set;
 819:STM32F10x_StdPeriph_Driver/src/stm32f10x_flash.c ****   
 820:STM32F10x_StdPeriph_Driver/src/stm32f10x_flash.c ****     *(__IO uint16_t*)Address = (uint16_t)Data;
 821:STM32F10x_StdPeriph_Driver/src/stm32f10x_flash.c ****     /* Wait for last operation to be completed */
 822:STM32F10x_StdPeriph_Driver/src/stm32f10x_flash.c ****     status = FLASH_WaitForLastOperation(ProgramTimeout);
 823:STM32F10x_StdPeriph_Driver/src/stm32f10x_flash.c ****  
 824:STM32F10x_StdPeriph_Driver/src/stm32f10x_flash.c ****     if(status == FLASH_COMPLETE)
 825:STM32F10x_StdPeriph_Driver/src/stm32f10x_flash.c ****     {
 826:STM32F10x_StdPeriph_Driver/src/stm32f10x_flash.c ****       /* if the previous operation is completed, proceed to program the new second 
 827:STM32F10x_StdPeriph_Driver/src/stm32f10x_flash.c ****       half word */
 828:STM32F10x_StdPeriph_Driver/src/stm32f10x_flash.c ****       tmp = Address + 2;
ARM GAS  C:\Users\kevin\AppData\Local\Temp\ccopMTuX.s 			page 20


 829:STM32F10x_StdPeriph_Driver/src/stm32f10x_flash.c **** 
 830:STM32F10x_StdPeriph_Driver/src/stm32f10x_flash.c ****       *(__IO uint16_t*) tmp = Data >> 16;
 831:STM32F10x_StdPeriph_Driver/src/stm32f10x_flash.c ****     
 832:STM32F10x_StdPeriph_Driver/src/stm32f10x_flash.c ****       /* Wait for last operation to be completed */
 833:STM32F10x_StdPeriph_Driver/src/stm32f10x_flash.c ****       status = FLASH_WaitForLastOperation(ProgramTimeout);
 834:STM32F10x_StdPeriph_Driver/src/stm32f10x_flash.c ****         
 835:STM32F10x_StdPeriph_Driver/src/stm32f10x_flash.c ****       /* Disable the PG Bit */
 836:STM32F10x_StdPeriph_Driver/src/stm32f10x_flash.c ****       FLASH->CR &= CR_PG_Reset;
 837:STM32F10x_StdPeriph_Driver/src/stm32f10x_flash.c ****     }
 838:STM32F10x_StdPeriph_Driver/src/stm32f10x_flash.c ****     else
 839:STM32F10x_StdPeriph_Driver/src/stm32f10x_flash.c ****     {
 840:STM32F10x_StdPeriph_Driver/src/stm32f10x_flash.c ****       /* Disable the PG Bit */
 841:STM32F10x_StdPeriph_Driver/src/stm32f10x_flash.c ****       FLASH->CR &= CR_PG_Reset;
 842:STM32F10x_StdPeriph_Driver/src/stm32f10x_flash.c ****     }
 843:STM32F10x_StdPeriph_Driver/src/stm32f10x_flash.c ****   }         
 844:STM32F10x_StdPeriph_Driver/src/stm32f10x_flash.c **** #endif /* STM32F10X_XL */
 845:STM32F10x_StdPeriph_Driver/src/stm32f10x_flash.c ****    
 846:STM32F10x_StdPeriph_Driver/src/stm32f10x_flash.c ****   /* Return the Program Status */
 847:STM32F10x_StdPeriph_Driver/src/stm32f10x_flash.c ****   return status;
 848:STM32F10x_StdPeriph_Driver/src/stm32f10x_flash.c **** }
 849:STM32F10x_StdPeriph_Driver/src/stm32f10x_flash.c **** 
 850:STM32F10x_StdPeriph_Driver/src/stm32f10x_flash.c **** /**
 851:STM32F10x_StdPeriph_Driver/src/stm32f10x_flash.c ****   * @brief  Programs a half word at a specified address.
 852:STM32F10x_StdPeriph_Driver/src/stm32f10x_flash.c ****   * @note   This function can be used for all STM32F10x devices.
 853:STM32F10x_StdPeriph_Driver/src/stm32f10x_flash.c ****   * @param  Address: specifies the address to be programmed.
 854:STM32F10x_StdPeriph_Driver/src/stm32f10x_flash.c ****   * @param  Data: specifies the data to be programmed.
 855:STM32F10x_StdPeriph_Driver/src/stm32f10x_flash.c ****   * @retval FLASH Status: The returned value can be: FLASH_ERROR_PG,
 856:STM32F10x_StdPeriph_Driver/src/stm32f10x_flash.c ****   *         FLASH_ERROR_WRP, FLASH_COMPLETE or FLASH_TIMEOUT. 
 857:STM32F10x_StdPeriph_Driver/src/stm32f10x_flash.c ****   */
 858:STM32F10x_StdPeriph_Driver/src/stm32f10x_flash.c **** FLASH_Status FLASH_ProgramHalfWord(uint32_t Address, uint16_t Data)
 859:STM32F10x_StdPeriph_Driver/src/stm32f10x_flash.c **** {
 860:STM32F10x_StdPeriph_Driver/src/stm32f10x_flash.c ****   FLASH_Status status = FLASH_COMPLETE;
 861:STM32F10x_StdPeriph_Driver/src/stm32f10x_flash.c ****   /* Check the parameters */
 862:STM32F10x_StdPeriph_Driver/src/stm32f10x_flash.c ****   assert_param(IS_FLASH_ADDRESS(Address));
 863:STM32F10x_StdPeriph_Driver/src/stm32f10x_flash.c **** 
 864:STM32F10x_StdPeriph_Driver/src/stm32f10x_flash.c **** #ifdef STM32F10X_XL
 865:STM32F10x_StdPeriph_Driver/src/stm32f10x_flash.c ****   /* Wait for last operation to be completed */
 866:STM32F10x_StdPeriph_Driver/src/stm32f10x_flash.c ****   status = FLASH_WaitForLastOperation(ProgramTimeout);
 867:STM32F10x_StdPeriph_Driver/src/stm32f10x_flash.c ****   
 868:STM32F10x_StdPeriph_Driver/src/stm32f10x_flash.c ****   if(Address < FLASH_BANK1_END_ADDRESS)
 869:STM32F10x_StdPeriph_Driver/src/stm32f10x_flash.c ****   {
 870:STM32F10x_StdPeriph_Driver/src/stm32f10x_flash.c ****     if(status == FLASH_COMPLETE)
 871:STM32F10x_StdPeriph_Driver/src/stm32f10x_flash.c ****     {
 872:STM32F10x_StdPeriph_Driver/src/stm32f10x_flash.c ****       /* if the previous operation is completed, proceed to program the new data */
 873:STM32F10x_StdPeriph_Driver/src/stm32f10x_flash.c ****       FLASH->CR |= CR_PG_Set;
 874:STM32F10x_StdPeriph_Driver/src/stm32f10x_flash.c ****   
 875:STM32F10x_StdPeriph_Driver/src/stm32f10x_flash.c ****       *(__IO uint16_t*)Address = Data;
 876:STM32F10x_StdPeriph_Driver/src/stm32f10x_flash.c ****       /* Wait for last operation to be completed */
 877:STM32F10x_StdPeriph_Driver/src/stm32f10x_flash.c ****       status = FLASH_WaitForLastBank1Operation(ProgramTimeout);
 878:STM32F10x_StdPeriph_Driver/src/stm32f10x_flash.c **** 
 879:STM32F10x_StdPeriph_Driver/src/stm32f10x_flash.c ****       /* Disable the PG Bit */
 880:STM32F10x_StdPeriph_Driver/src/stm32f10x_flash.c ****       FLASH->CR &= CR_PG_Reset;
 881:STM32F10x_StdPeriph_Driver/src/stm32f10x_flash.c ****     }
 882:STM32F10x_StdPeriph_Driver/src/stm32f10x_flash.c ****   }
 883:STM32F10x_StdPeriph_Driver/src/stm32f10x_flash.c ****   else
 884:STM32F10x_StdPeriph_Driver/src/stm32f10x_flash.c ****   {
 885:STM32F10x_StdPeriph_Driver/src/stm32f10x_flash.c ****     if(status == FLASH_COMPLETE)
ARM GAS  C:\Users\kevin\AppData\Local\Temp\ccopMTuX.s 			page 21


 886:STM32F10x_StdPeriph_Driver/src/stm32f10x_flash.c ****     {
 887:STM32F10x_StdPeriph_Driver/src/stm32f10x_flash.c ****       /* if the previous operation is completed, proceed to program the new data */
 888:STM32F10x_StdPeriph_Driver/src/stm32f10x_flash.c ****       FLASH->CR2 |= CR_PG_Set;
 889:STM32F10x_StdPeriph_Driver/src/stm32f10x_flash.c ****   
 890:STM32F10x_StdPeriph_Driver/src/stm32f10x_flash.c ****       *(__IO uint16_t*)Address = Data;
 891:STM32F10x_StdPeriph_Driver/src/stm32f10x_flash.c ****       /* Wait for last operation to be completed */
 892:STM32F10x_StdPeriph_Driver/src/stm32f10x_flash.c ****       status = FLASH_WaitForLastBank2Operation(ProgramTimeout);
 893:STM32F10x_StdPeriph_Driver/src/stm32f10x_flash.c **** 
 894:STM32F10x_StdPeriph_Driver/src/stm32f10x_flash.c ****       /* Disable the PG Bit */
 895:STM32F10x_StdPeriph_Driver/src/stm32f10x_flash.c ****       FLASH->CR2 &= CR_PG_Reset;
 896:STM32F10x_StdPeriph_Driver/src/stm32f10x_flash.c ****     }
 897:STM32F10x_StdPeriph_Driver/src/stm32f10x_flash.c ****   }
 898:STM32F10x_StdPeriph_Driver/src/stm32f10x_flash.c **** #else
 899:STM32F10x_StdPeriph_Driver/src/stm32f10x_flash.c ****   /* Wait for last operation to be completed */
 900:STM32F10x_StdPeriph_Driver/src/stm32f10x_flash.c ****   status = FLASH_WaitForLastOperation(ProgramTimeout);
 901:STM32F10x_StdPeriph_Driver/src/stm32f10x_flash.c ****   
 902:STM32F10x_StdPeriph_Driver/src/stm32f10x_flash.c ****   if(status == FLASH_COMPLETE)
 903:STM32F10x_StdPeriph_Driver/src/stm32f10x_flash.c ****   {
 904:STM32F10x_StdPeriph_Driver/src/stm32f10x_flash.c ****     /* if the previous operation is completed, proceed to program the new data */
 905:STM32F10x_StdPeriph_Driver/src/stm32f10x_flash.c ****     FLASH->CR |= CR_PG_Set;
 906:STM32F10x_StdPeriph_Driver/src/stm32f10x_flash.c ****   
 907:STM32F10x_StdPeriph_Driver/src/stm32f10x_flash.c ****     *(__IO uint16_t*)Address = Data;
 908:STM32F10x_StdPeriph_Driver/src/stm32f10x_flash.c ****     /* Wait for last operation to be completed */
 909:STM32F10x_StdPeriph_Driver/src/stm32f10x_flash.c ****     status = FLASH_WaitForLastOperation(ProgramTimeout);
 910:STM32F10x_StdPeriph_Driver/src/stm32f10x_flash.c ****     
 911:STM32F10x_StdPeriph_Driver/src/stm32f10x_flash.c ****     /* Disable the PG Bit */
 912:STM32F10x_StdPeriph_Driver/src/stm32f10x_flash.c ****     FLASH->CR &= CR_PG_Reset;
 913:STM32F10x_StdPeriph_Driver/src/stm32f10x_flash.c ****   } 
 914:STM32F10x_StdPeriph_Driver/src/stm32f10x_flash.c **** #endif  /* STM32F10X_XL */
 915:STM32F10x_StdPeriph_Driver/src/stm32f10x_flash.c ****   
 916:STM32F10x_StdPeriph_Driver/src/stm32f10x_flash.c ****   /* Return the Program Status */
 917:STM32F10x_StdPeriph_Driver/src/stm32f10x_flash.c ****   return status;
 918:STM32F10x_StdPeriph_Driver/src/stm32f10x_flash.c **** }
 919:STM32F10x_StdPeriph_Driver/src/stm32f10x_flash.c **** 
 920:STM32F10x_StdPeriph_Driver/src/stm32f10x_flash.c **** /**
 921:STM32F10x_StdPeriph_Driver/src/stm32f10x_flash.c ****   * @brief  Programs a half word at a specified Option Byte Data address.
 922:STM32F10x_StdPeriph_Driver/src/stm32f10x_flash.c ****   * @note   This function can be used for all STM32F10x devices.
 923:STM32F10x_StdPeriph_Driver/src/stm32f10x_flash.c ****   * @param  Address: specifies the address to be programmed.
 924:STM32F10x_StdPeriph_Driver/src/stm32f10x_flash.c ****   *   This parameter can be 0x1FFFF804 or 0x1FFFF806. 
 925:STM32F10x_StdPeriph_Driver/src/stm32f10x_flash.c ****   * @param  Data: specifies the data to be programmed.
 926:STM32F10x_StdPeriph_Driver/src/stm32f10x_flash.c ****   * @retval FLASH Status: The returned value can be: FLASH_ERROR_PG,
 927:STM32F10x_StdPeriph_Driver/src/stm32f10x_flash.c ****   *         FLASH_ERROR_WRP, FLASH_COMPLETE or FLASH_TIMEOUT. 
 928:STM32F10x_StdPeriph_Driver/src/stm32f10x_flash.c ****   */
 929:STM32F10x_StdPeriph_Driver/src/stm32f10x_flash.c **** FLASH_Status FLASH_ProgramOptionByteData(uint32_t Address, uint8_t Data)
 930:STM32F10x_StdPeriph_Driver/src/stm32f10x_flash.c **** {
 931:STM32F10x_StdPeriph_Driver/src/stm32f10x_flash.c ****   FLASH_Status status = FLASH_COMPLETE;
 932:STM32F10x_StdPeriph_Driver/src/stm32f10x_flash.c ****   /* Check the parameters */
 933:STM32F10x_StdPeriph_Driver/src/stm32f10x_flash.c ****   assert_param(IS_OB_DATA_ADDRESS(Address));
 934:STM32F10x_StdPeriph_Driver/src/stm32f10x_flash.c ****   status = FLASH_WaitForLastOperation(ProgramTimeout);
 935:STM32F10x_StdPeriph_Driver/src/stm32f10x_flash.c **** 
 936:STM32F10x_StdPeriph_Driver/src/stm32f10x_flash.c ****   if(status == FLASH_COMPLETE)
 937:STM32F10x_StdPeriph_Driver/src/stm32f10x_flash.c ****   {
 938:STM32F10x_StdPeriph_Driver/src/stm32f10x_flash.c ****     /* Authorize the small information block programming */
 939:STM32F10x_StdPeriph_Driver/src/stm32f10x_flash.c ****     FLASH->OPTKEYR = FLASH_KEY1;
 940:STM32F10x_StdPeriph_Driver/src/stm32f10x_flash.c ****     FLASH->OPTKEYR = FLASH_KEY2;
 941:STM32F10x_StdPeriph_Driver/src/stm32f10x_flash.c ****     /* Enables the Option Bytes Programming operation */
 942:STM32F10x_StdPeriph_Driver/src/stm32f10x_flash.c ****     FLASH->CR |= CR_OPTPG_Set; 
ARM GAS  C:\Users\kevin\AppData\Local\Temp\ccopMTuX.s 			page 22


 943:STM32F10x_StdPeriph_Driver/src/stm32f10x_flash.c ****     *(__IO uint16_t*)Address = Data;
 944:STM32F10x_StdPeriph_Driver/src/stm32f10x_flash.c ****     
 945:STM32F10x_StdPeriph_Driver/src/stm32f10x_flash.c ****     /* Wait for last operation to be completed */
 946:STM32F10x_StdPeriph_Driver/src/stm32f10x_flash.c ****     status = FLASH_WaitForLastOperation(ProgramTimeout);
 947:STM32F10x_StdPeriph_Driver/src/stm32f10x_flash.c ****     if(status != FLASH_TIMEOUT)
 948:STM32F10x_StdPeriph_Driver/src/stm32f10x_flash.c ****     {
 949:STM32F10x_StdPeriph_Driver/src/stm32f10x_flash.c ****       /* if the program operation is completed, disable the OPTPG Bit */
 950:STM32F10x_StdPeriph_Driver/src/stm32f10x_flash.c ****       FLASH->CR &= CR_OPTPG_Reset;
 951:STM32F10x_StdPeriph_Driver/src/stm32f10x_flash.c ****     }
 952:STM32F10x_StdPeriph_Driver/src/stm32f10x_flash.c ****   }
 953:STM32F10x_StdPeriph_Driver/src/stm32f10x_flash.c ****   /* Return the Option Byte Data Program Status */
 954:STM32F10x_StdPeriph_Driver/src/stm32f10x_flash.c ****   return status;
 955:STM32F10x_StdPeriph_Driver/src/stm32f10x_flash.c **** }
 956:STM32F10x_StdPeriph_Driver/src/stm32f10x_flash.c **** 
 957:STM32F10x_StdPeriph_Driver/src/stm32f10x_flash.c **** /**
 958:STM32F10x_StdPeriph_Driver/src/stm32f10x_flash.c ****   * @brief  Write protects the desired pages
 959:STM32F10x_StdPeriph_Driver/src/stm32f10x_flash.c ****   * @note   This function can be used for all STM32F10x devices.
 960:STM32F10x_StdPeriph_Driver/src/stm32f10x_flash.c ****   * @param  FLASH_Pages: specifies the address of the pages to be write protected.
 961:STM32F10x_StdPeriph_Driver/src/stm32f10x_flash.c ****   *   This parameter can be:
 962:STM32F10x_StdPeriph_Driver/src/stm32f10x_flash.c ****   *     @arg For @b STM32_Low-density_devices: value between FLASH_WRProt_Pages0to3 and FLASH_WRPro
 963:STM32F10x_StdPeriph_Driver/src/stm32f10x_flash.c ****   *     @arg For @b STM32_Medium-density_devices: value between FLASH_WRProt_Pages0to3
 964:STM32F10x_StdPeriph_Driver/src/stm32f10x_flash.c ****   *       and FLASH_WRProt_Pages124to127
 965:STM32F10x_StdPeriph_Driver/src/stm32f10x_flash.c ****   *     @arg For @b STM32_High-density_devices: value between FLASH_WRProt_Pages0to1 and
 966:STM32F10x_StdPeriph_Driver/src/stm32f10x_flash.c ****   *       FLASH_WRProt_Pages60to61 or FLASH_WRProt_Pages62to255
 967:STM32F10x_StdPeriph_Driver/src/stm32f10x_flash.c ****   *     @arg For @b STM32_Connectivity_line_devices: value between FLASH_WRProt_Pages0to1 and
 968:STM32F10x_StdPeriph_Driver/src/stm32f10x_flash.c ****   *       FLASH_WRProt_Pages60to61 or FLASH_WRProt_Pages62to127    
 969:STM32F10x_StdPeriph_Driver/src/stm32f10x_flash.c ****   *     @arg For @b STM32_XL-density_devices: value between FLASH_WRProt_Pages0to1 and
 970:STM32F10x_StdPeriph_Driver/src/stm32f10x_flash.c ****   *       FLASH_WRProt_Pages60to61 or FLASH_WRProt_Pages62to511
 971:STM32F10x_StdPeriph_Driver/src/stm32f10x_flash.c ****   *     @arg FLASH_WRProt_AllPages
 972:STM32F10x_StdPeriph_Driver/src/stm32f10x_flash.c ****   * @retval FLASH Status: The returned value can be: FLASH_ERROR_PG,
 973:STM32F10x_StdPeriph_Driver/src/stm32f10x_flash.c ****   *         FLASH_ERROR_WRP, FLASH_COMPLETE or FLASH_TIMEOUT.
 974:STM32F10x_StdPeriph_Driver/src/stm32f10x_flash.c ****   */
 975:STM32F10x_StdPeriph_Driver/src/stm32f10x_flash.c **** FLASH_Status FLASH_EnableWriteProtection(uint32_t FLASH_Pages)
 976:STM32F10x_StdPeriph_Driver/src/stm32f10x_flash.c **** {
 977:STM32F10x_StdPeriph_Driver/src/stm32f10x_flash.c ****   uint16_t WRP0_Data = 0xFFFF, WRP1_Data = 0xFFFF, WRP2_Data = 0xFFFF, WRP3_Data = 0xFFFF;
 978:STM32F10x_StdPeriph_Driver/src/stm32f10x_flash.c ****   
 979:STM32F10x_StdPeriph_Driver/src/stm32f10x_flash.c ****   FLASH_Status status = FLASH_COMPLETE;
 980:STM32F10x_StdPeriph_Driver/src/stm32f10x_flash.c ****   
 981:STM32F10x_StdPeriph_Driver/src/stm32f10x_flash.c ****   /* Check the parameters */
 982:STM32F10x_StdPeriph_Driver/src/stm32f10x_flash.c ****   assert_param(IS_FLASH_WRPROT_PAGE(FLASH_Pages));
 983:STM32F10x_StdPeriph_Driver/src/stm32f10x_flash.c ****   
 984:STM32F10x_StdPeriph_Driver/src/stm32f10x_flash.c ****   FLASH_Pages = (uint32_t)(~FLASH_Pages);
 985:STM32F10x_StdPeriph_Driver/src/stm32f10x_flash.c ****   WRP0_Data = (uint16_t)(FLASH_Pages & WRP0_Mask);
 986:STM32F10x_StdPeriph_Driver/src/stm32f10x_flash.c ****   WRP1_Data = (uint16_t)((FLASH_Pages & WRP1_Mask) >> 8);
 987:STM32F10x_StdPeriph_Driver/src/stm32f10x_flash.c ****   WRP2_Data = (uint16_t)((FLASH_Pages & WRP2_Mask) >> 16);
 988:STM32F10x_StdPeriph_Driver/src/stm32f10x_flash.c ****   WRP3_Data = (uint16_t)((FLASH_Pages & WRP3_Mask) >> 24);
 989:STM32F10x_StdPeriph_Driver/src/stm32f10x_flash.c ****   
 990:STM32F10x_StdPeriph_Driver/src/stm32f10x_flash.c ****   /* Wait for last operation to be completed */
 991:STM32F10x_StdPeriph_Driver/src/stm32f10x_flash.c ****   status = FLASH_WaitForLastOperation(ProgramTimeout);
 992:STM32F10x_StdPeriph_Driver/src/stm32f10x_flash.c ****   
 993:STM32F10x_StdPeriph_Driver/src/stm32f10x_flash.c ****   if(status == FLASH_COMPLETE)
 994:STM32F10x_StdPeriph_Driver/src/stm32f10x_flash.c ****   {
 995:STM32F10x_StdPeriph_Driver/src/stm32f10x_flash.c ****     /* Authorizes the small information block programming */
 996:STM32F10x_StdPeriph_Driver/src/stm32f10x_flash.c ****     FLASH->OPTKEYR = FLASH_KEY1;
 997:STM32F10x_StdPeriph_Driver/src/stm32f10x_flash.c ****     FLASH->OPTKEYR = FLASH_KEY2;
 998:STM32F10x_StdPeriph_Driver/src/stm32f10x_flash.c ****     FLASH->CR |= CR_OPTPG_Set;
 999:STM32F10x_StdPeriph_Driver/src/stm32f10x_flash.c ****     if(WRP0_Data != 0xFF)
ARM GAS  C:\Users\kevin\AppData\Local\Temp\ccopMTuX.s 			page 23


1000:STM32F10x_StdPeriph_Driver/src/stm32f10x_flash.c ****     {
1001:STM32F10x_StdPeriph_Driver/src/stm32f10x_flash.c ****       OB->WRP0 = WRP0_Data;
1002:STM32F10x_StdPeriph_Driver/src/stm32f10x_flash.c ****       
1003:STM32F10x_StdPeriph_Driver/src/stm32f10x_flash.c ****       /* Wait for last operation to be completed */
1004:STM32F10x_StdPeriph_Driver/src/stm32f10x_flash.c ****       status = FLASH_WaitForLastOperation(ProgramTimeout);
1005:STM32F10x_StdPeriph_Driver/src/stm32f10x_flash.c ****     }
1006:STM32F10x_StdPeriph_Driver/src/stm32f10x_flash.c ****     if((status == FLASH_COMPLETE) && (WRP1_Data != 0xFF))
1007:STM32F10x_StdPeriph_Driver/src/stm32f10x_flash.c ****     {
1008:STM32F10x_StdPeriph_Driver/src/stm32f10x_flash.c ****       OB->WRP1 = WRP1_Data;
1009:STM32F10x_StdPeriph_Driver/src/stm32f10x_flash.c ****       
1010:STM32F10x_StdPeriph_Driver/src/stm32f10x_flash.c ****       /* Wait for last operation to be completed */
1011:STM32F10x_StdPeriph_Driver/src/stm32f10x_flash.c ****       status = FLASH_WaitForLastOperation(ProgramTimeout);
1012:STM32F10x_StdPeriph_Driver/src/stm32f10x_flash.c ****     }
1013:STM32F10x_StdPeriph_Driver/src/stm32f10x_flash.c ****     if((status == FLASH_COMPLETE) && (WRP2_Data != 0xFF))
1014:STM32F10x_StdPeriph_Driver/src/stm32f10x_flash.c ****     {
1015:STM32F10x_StdPeriph_Driver/src/stm32f10x_flash.c ****       OB->WRP2 = WRP2_Data;
1016:STM32F10x_StdPeriph_Driver/src/stm32f10x_flash.c ****       
1017:STM32F10x_StdPeriph_Driver/src/stm32f10x_flash.c ****       /* Wait for last operation to be completed */
1018:STM32F10x_StdPeriph_Driver/src/stm32f10x_flash.c ****       status = FLASH_WaitForLastOperation(ProgramTimeout);
1019:STM32F10x_StdPeriph_Driver/src/stm32f10x_flash.c ****     }
1020:STM32F10x_StdPeriph_Driver/src/stm32f10x_flash.c ****     
1021:STM32F10x_StdPeriph_Driver/src/stm32f10x_flash.c ****     if((status == FLASH_COMPLETE)&& (WRP3_Data != 0xFF))
1022:STM32F10x_StdPeriph_Driver/src/stm32f10x_flash.c ****     {
1023:STM32F10x_StdPeriph_Driver/src/stm32f10x_flash.c ****       OB->WRP3 = WRP3_Data;
1024:STM32F10x_StdPeriph_Driver/src/stm32f10x_flash.c ****      
1025:STM32F10x_StdPeriph_Driver/src/stm32f10x_flash.c ****       /* Wait for last operation to be completed */
1026:STM32F10x_StdPeriph_Driver/src/stm32f10x_flash.c ****       status = FLASH_WaitForLastOperation(ProgramTimeout);
1027:STM32F10x_StdPeriph_Driver/src/stm32f10x_flash.c ****     }
1028:STM32F10x_StdPeriph_Driver/src/stm32f10x_flash.c ****           
1029:STM32F10x_StdPeriph_Driver/src/stm32f10x_flash.c ****     if(status != FLASH_TIMEOUT)
1030:STM32F10x_StdPeriph_Driver/src/stm32f10x_flash.c ****     {
1031:STM32F10x_StdPeriph_Driver/src/stm32f10x_flash.c ****       /* if the program operation is completed, disable the OPTPG Bit */
1032:STM32F10x_StdPeriph_Driver/src/stm32f10x_flash.c ****       FLASH->CR &= CR_OPTPG_Reset;
1033:STM32F10x_StdPeriph_Driver/src/stm32f10x_flash.c ****     }
1034:STM32F10x_StdPeriph_Driver/src/stm32f10x_flash.c ****   } 
1035:STM32F10x_StdPeriph_Driver/src/stm32f10x_flash.c ****   /* Return the write protection operation Status */
1036:STM32F10x_StdPeriph_Driver/src/stm32f10x_flash.c ****   return status;       
1037:STM32F10x_StdPeriph_Driver/src/stm32f10x_flash.c **** }
1038:STM32F10x_StdPeriph_Driver/src/stm32f10x_flash.c **** 
1039:STM32F10x_StdPeriph_Driver/src/stm32f10x_flash.c **** /**
1040:STM32F10x_StdPeriph_Driver/src/stm32f10x_flash.c ****   * @brief  Enables or disables the read out protection.
1041:STM32F10x_StdPeriph_Driver/src/stm32f10x_flash.c ****   * @note   If the user has already programmed the other option bytes before calling 
1042:STM32F10x_StdPeriph_Driver/src/stm32f10x_flash.c ****   *   this function, he must re-program them since this function erases all option bytes.
1043:STM32F10x_StdPeriph_Driver/src/stm32f10x_flash.c ****   * @note   This function can be used for all STM32F10x devices.
1044:STM32F10x_StdPeriph_Driver/src/stm32f10x_flash.c ****   * @param  Newstate: new state of the ReadOut Protection.
1045:STM32F10x_StdPeriph_Driver/src/stm32f10x_flash.c ****   *   This parameter can be: ENABLE or DISABLE.
1046:STM32F10x_StdPeriph_Driver/src/stm32f10x_flash.c ****   * @retval FLASH Status: The returned value can be: FLASH_ERROR_PG,
1047:STM32F10x_StdPeriph_Driver/src/stm32f10x_flash.c ****   *         FLASH_ERROR_WRP, FLASH_COMPLETE or FLASH_TIMEOUT.
1048:STM32F10x_StdPeriph_Driver/src/stm32f10x_flash.c ****   */
1049:STM32F10x_StdPeriph_Driver/src/stm32f10x_flash.c **** FLASH_Status FLASH_ReadOutProtection(FunctionalState NewState)
1050:STM32F10x_StdPeriph_Driver/src/stm32f10x_flash.c **** {
1051:STM32F10x_StdPeriph_Driver/src/stm32f10x_flash.c ****   FLASH_Status status = FLASH_COMPLETE;
1052:STM32F10x_StdPeriph_Driver/src/stm32f10x_flash.c ****   /* Check the parameters */
1053:STM32F10x_StdPeriph_Driver/src/stm32f10x_flash.c ****   assert_param(IS_FUNCTIONAL_STATE(NewState));
1054:STM32F10x_StdPeriph_Driver/src/stm32f10x_flash.c ****   status = FLASH_WaitForLastOperation(EraseTimeout);
1055:STM32F10x_StdPeriph_Driver/src/stm32f10x_flash.c ****   if(status == FLASH_COMPLETE)
1056:STM32F10x_StdPeriph_Driver/src/stm32f10x_flash.c ****   {
ARM GAS  C:\Users\kevin\AppData\Local\Temp\ccopMTuX.s 			page 24


1057:STM32F10x_StdPeriph_Driver/src/stm32f10x_flash.c ****     /* Authorizes the small information block programming */
1058:STM32F10x_StdPeriph_Driver/src/stm32f10x_flash.c ****     FLASH->OPTKEYR = FLASH_KEY1;
1059:STM32F10x_StdPeriph_Driver/src/stm32f10x_flash.c ****     FLASH->OPTKEYR = FLASH_KEY2;
1060:STM32F10x_StdPeriph_Driver/src/stm32f10x_flash.c ****     FLASH->CR |= CR_OPTER_Set;
1061:STM32F10x_StdPeriph_Driver/src/stm32f10x_flash.c ****     FLASH->CR |= CR_STRT_Set;
1062:STM32F10x_StdPeriph_Driver/src/stm32f10x_flash.c ****     /* Wait for last operation to be completed */
1063:STM32F10x_StdPeriph_Driver/src/stm32f10x_flash.c ****     status = FLASH_WaitForLastOperation(EraseTimeout);
1064:STM32F10x_StdPeriph_Driver/src/stm32f10x_flash.c ****     if(status == FLASH_COMPLETE)
1065:STM32F10x_StdPeriph_Driver/src/stm32f10x_flash.c ****     {
1066:STM32F10x_StdPeriph_Driver/src/stm32f10x_flash.c ****       /* if the erase operation is completed, disable the OPTER Bit */
1067:STM32F10x_StdPeriph_Driver/src/stm32f10x_flash.c ****       FLASH->CR &= CR_OPTER_Reset;
1068:STM32F10x_StdPeriph_Driver/src/stm32f10x_flash.c ****       /* Enable the Option Bytes Programming operation */
1069:STM32F10x_StdPeriph_Driver/src/stm32f10x_flash.c ****       FLASH->CR |= CR_OPTPG_Set; 
1070:STM32F10x_StdPeriph_Driver/src/stm32f10x_flash.c ****       if(NewState != DISABLE)
1071:STM32F10x_StdPeriph_Driver/src/stm32f10x_flash.c ****       {
1072:STM32F10x_StdPeriph_Driver/src/stm32f10x_flash.c ****         OB->RDP = 0x00;
1073:STM32F10x_StdPeriph_Driver/src/stm32f10x_flash.c ****       }
1074:STM32F10x_StdPeriph_Driver/src/stm32f10x_flash.c ****       else
1075:STM32F10x_StdPeriph_Driver/src/stm32f10x_flash.c ****       {
1076:STM32F10x_StdPeriph_Driver/src/stm32f10x_flash.c ****         OB->RDP = RDP_Key;  
1077:STM32F10x_StdPeriph_Driver/src/stm32f10x_flash.c ****       }
1078:STM32F10x_StdPeriph_Driver/src/stm32f10x_flash.c ****       /* Wait for last operation to be completed */
1079:STM32F10x_StdPeriph_Driver/src/stm32f10x_flash.c ****       status = FLASH_WaitForLastOperation(EraseTimeout); 
1080:STM32F10x_StdPeriph_Driver/src/stm32f10x_flash.c ****     
1081:STM32F10x_StdPeriph_Driver/src/stm32f10x_flash.c ****       if(status != FLASH_TIMEOUT)
1082:STM32F10x_StdPeriph_Driver/src/stm32f10x_flash.c ****       {
1083:STM32F10x_StdPeriph_Driver/src/stm32f10x_flash.c ****         /* if the program operation is completed, disable the OPTPG Bit */
1084:STM32F10x_StdPeriph_Driver/src/stm32f10x_flash.c ****         FLASH->CR &= CR_OPTPG_Reset;
1085:STM32F10x_StdPeriph_Driver/src/stm32f10x_flash.c ****       }
1086:STM32F10x_StdPeriph_Driver/src/stm32f10x_flash.c ****     }
1087:STM32F10x_StdPeriph_Driver/src/stm32f10x_flash.c ****     else 
1088:STM32F10x_StdPeriph_Driver/src/stm32f10x_flash.c ****     {
1089:STM32F10x_StdPeriph_Driver/src/stm32f10x_flash.c ****       if(status != FLASH_TIMEOUT)
1090:STM32F10x_StdPeriph_Driver/src/stm32f10x_flash.c ****       {
1091:STM32F10x_StdPeriph_Driver/src/stm32f10x_flash.c ****         /* Disable the OPTER Bit */
1092:STM32F10x_StdPeriph_Driver/src/stm32f10x_flash.c ****         FLASH->CR &= CR_OPTER_Reset;
1093:STM32F10x_StdPeriph_Driver/src/stm32f10x_flash.c ****       }
1094:STM32F10x_StdPeriph_Driver/src/stm32f10x_flash.c ****     }
1095:STM32F10x_StdPeriph_Driver/src/stm32f10x_flash.c ****   }
1096:STM32F10x_StdPeriph_Driver/src/stm32f10x_flash.c ****   /* Return the protection operation Status */
1097:STM32F10x_StdPeriph_Driver/src/stm32f10x_flash.c ****   return status;       
1098:STM32F10x_StdPeriph_Driver/src/stm32f10x_flash.c **** }
1099:STM32F10x_StdPeriph_Driver/src/stm32f10x_flash.c **** 
1100:STM32F10x_StdPeriph_Driver/src/stm32f10x_flash.c **** /**
1101:STM32F10x_StdPeriph_Driver/src/stm32f10x_flash.c ****   * @brief  Programs the FLASH User Option Byte: IWDG_SW / RST_STOP / RST_STDBY.
1102:STM32F10x_StdPeriph_Driver/src/stm32f10x_flash.c ****   * @note   This function can be used for all STM32F10x devices.
1103:STM32F10x_StdPeriph_Driver/src/stm32f10x_flash.c ****   * @param  OB_IWDG: Selects the IWDG mode
1104:STM32F10x_StdPeriph_Driver/src/stm32f10x_flash.c ****   *   This parameter can be one of the following values:
1105:STM32F10x_StdPeriph_Driver/src/stm32f10x_flash.c ****   *     @arg OB_IWDG_SW: Software IWDG selected
1106:STM32F10x_StdPeriph_Driver/src/stm32f10x_flash.c ****   *     @arg OB_IWDG_HW: Hardware IWDG selected
1107:STM32F10x_StdPeriph_Driver/src/stm32f10x_flash.c ****   * @param  OB_STOP: Reset event when entering STOP mode.
1108:STM32F10x_StdPeriph_Driver/src/stm32f10x_flash.c ****   *   This parameter can be one of the following values:
1109:STM32F10x_StdPeriph_Driver/src/stm32f10x_flash.c ****   *     @arg OB_STOP_NoRST: No reset generated when entering in STOP
1110:STM32F10x_StdPeriph_Driver/src/stm32f10x_flash.c ****   *     @arg OB_STOP_RST: Reset generated when entering in STOP
1111:STM32F10x_StdPeriph_Driver/src/stm32f10x_flash.c ****   * @param  OB_STDBY: Reset event when entering Standby mode.
1112:STM32F10x_StdPeriph_Driver/src/stm32f10x_flash.c ****   *   This parameter can be one of the following values:
1113:STM32F10x_StdPeriph_Driver/src/stm32f10x_flash.c ****   *     @arg OB_STDBY_NoRST: No reset generated when entering in STANDBY
ARM GAS  C:\Users\kevin\AppData\Local\Temp\ccopMTuX.s 			page 25


1114:STM32F10x_StdPeriph_Driver/src/stm32f10x_flash.c ****   *     @arg OB_STDBY_RST: Reset generated when entering in STANDBY
1115:STM32F10x_StdPeriph_Driver/src/stm32f10x_flash.c ****   * @retval FLASH Status: The returned value can be: FLASH_ERROR_PG, 
1116:STM32F10x_StdPeriph_Driver/src/stm32f10x_flash.c ****   *         FLASH_ERROR_WRP, FLASH_COMPLETE or FLASH_TIMEOUT.
1117:STM32F10x_StdPeriph_Driver/src/stm32f10x_flash.c ****   */
1118:STM32F10x_StdPeriph_Driver/src/stm32f10x_flash.c **** FLASH_Status FLASH_UserOptionByteConfig(uint16_t OB_IWDG, uint16_t OB_STOP, uint16_t OB_STDBY)
1119:STM32F10x_StdPeriph_Driver/src/stm32f10x_flash.c **** {
1120:STM32F10x_StdPeriph_Driver/src/stm32f10x_flash.c ****   FLASH_Status status = FLASH_COMPLETE; 
1121:STM32F10x_StdPeriph_Driver/src/stm32f10x_flash.c **** 
1122:STM32F10x_StdPeriph_Driver/src/stm32f10x_flash.c ****   /* Check the parameters */
1123:STM32F10x_StdPeriph_Driver/src/stm32f10x_flash.c ****   assert_param(IS_OB_IWDG_SOURCE(OB_IWDG));
1124:STM32F10x_StdPeriph_Driver/src/stm32f10x_flash.c ****   assert_param(IS_OB_STOP_SOURCE(OB_STOP));
1125:STM32F10x_StdPeriph_Driver/src/stm32f10x_flash.c ****   assert_param(IS_OB_STDBY_SOURCE(OB_STDBY));
1126:STM32F10x_StdPeriph_Driver/src/stm32f10x_flash.c **** 
1127:STM32F10x_StdPeriph_Driver/src/stm32f10x_flash.c ****   /* Authorize the small information block programming */
1128:STM32F10x_StdPeriph_Driver/src/stm32f10x_flash.c ****   FLASH->OPTKEYR = FLASH_KEY1;
1129:STM32F10x_StdPeriph_Driver/src/stm32f10x_flash.c ****   FLASH->OPTKEYR = FLASH_KEY2;
1130:STM32F10x_StdPeriph_Driver/src/stm32f10x_flash.c ****   
1131:STM32F10x_StdPeriph_Driver/src/stm32f10x_flash.c ****   /* Wait for last operation to be completed */
1132:STM32F10x_StdPeriph_Driver/src/stm32f10x_flash.c ****   status = FLASH_WaitForLastOperation(ProgramTimeout);
1133:STM32F10x_StdPeriph_Driver/src/stm32f10x_flash.c ****   
1134:STM32F10x_StdPeriph_Driver/src/stm32f10x_flash.c ****   if(status == FLASH_COMPLETE)
1135:STM32F10x_StdPeriph_Driver/src/stm32f10x_flash.c ****   {  
1136:STM32F10x_StdPeriph_Driver/src/stm32f10x_flash.c ****     /* Enable the Option Bytes Programming operation */
1137:STM32F10x_StdPeriph_Driver/src/stm32f10x_flash.c ****     FLASH->CR |= CR_OPTPG_Set; 
1138:STM32F10x_StdPeriph_Driver/src/stm32f10x_flash.c ****            
1139:STM32F10x_StdPeriph_Driver/src/stm32f10x_flash.c ****     OB->USER = OB_IWDG | (uint16_t)(OB_STOP | (uint16_t)(OB_STDBY | ((uint16_t)0xF8))); 
1140:STM32F10x_StdPeriph_Driver/src/stm32f10x_flash.c ****   
1141:STM32F10x_StdPeriph_Driver/src/stm32f10x_flash.c ****     /* Wait for last operation to be completed */
1142:STM32F10x_StdPeriph_Driver/src/stm32f10x_flash.c ****     status = FLASH_WaitForLastOperation(ProgramTimeout);
1143:STM32F10x_StdPeriph_Driver/src/stm32f10x_flash.c ****     if(status != FLASH_TIMEOUT)
1144:STM32F10x_StdPeriph_Driver/src/stm32f10x_flash.c ****     {
1145:STM32F10x_StdPeriph_Driver/src/stm32f10x_flash.c ****       /* if the program operation is completed, disable the OPTPG Bit */
1146:STM32F10x_StdPeriph_Driver/src/stm32f10x_flash.c ****       FLASH->CR &= CR_OPTPG_Reset;
1147:STM32F10x_StdPeriph_Driver/src/stm32f10x_flash.c ****     }
1148:STM32F10x_StdPeriph_Driver/src/stm32f10x_flash.c ****   }    
1149:STM32F10x_StdPeriph_Driver/src/stm32f10x_flash.c ****   /* Return the Option Byte program Status */
1150:STM32F10x_StdPeriph_Driver/src/stm32f10x_flash.c ****   return status;
1151:STM32F10x_StdPeriph_Driver/src/stm32f10x_flash.c **** }
1152:STM32F10x_StdPeriph_Driver/src/stm32f10x_flash.c **** 
1153:STM32F10x_StdPeriph_Driver/src/stm32f10x_flash.c **** #ifdef STM32F10X_XL
1154:STM32F10x_StdPeriph_Driver/src/stm32f10x_flash.c **** /**
1155:STM32F10x_StdPeriph_Driver/src/stm32f10x_flash.c ****   * @brief  Configures to boot from Bank1 or Bank2.  
1156:STM32F10x_StdPeriph_Driver/src/stm32f10x_flash.c ****   * @note   This function can be used only for STM32F10x_XL density devices.
1157:STM32F10x_StdPeriph_Driver/src/stm32f10x_flash.c ****   * @param  FLASH_BOOT: select the FLASH Bank to boot from.
1158:STM32F10x_StdPeriph_Driver/src/stm32f10x_flash.c ****   *   This parameter can be one of the following values:
1159:STM32F10x_StdPeriph_Driver/src/stm32f10x_flash.c ****   *     @arg FLASH_BOOT_Bank1: At startup, if boot pins are set in boot from user Flash
1160:STM32F10x_StdPeriph_Driver/src/stm32f10x_flash.c ****   *        position and this parameter is selected the device will boot from Bank1(Default).
1161:STM32F10x_StdPeriph_Driver/src/stm32f10x_flash.c ****   *     @arg FLASH_BOOT_Bank2: At startup, if boot pins are set in boot from user Flash
1162:STM32F10x_StdPeriph_Driver/src/stm32f10x_flash.c ****   *        position and this parameter is selected the device will boot from Bank2 or Bank1,
1163:STM32F10x_StdPeriph_Driver/src/stm32f10x_flash.c ****   *        depending on the activation of the bank. The active banks are checked in
1164:STM32F10x_StdPeriph_Driver/src/stm32f10x_flash.c ****   *        the following order: Bank2, followed by Bank1.
1165:STM32F10x_StdPeriph_Driver/src/stm32f10x_flash.c ****   *        The active bank is recognized by the value programmed at the base address
1166:STM32F10x_StdPeriph_Driver/src/stm32f10x_flash.c ****   *        of the respective bank (corresponding to the initial stack pointer value
1167:STM32F10x_StdPeriph_Driver/src/stm32f10x_flash.c ****   *        in the interrupt vector table).
1168:STM32F10x_StdPeriph_Driver/src/stm32f10x_flash.c ****   *        For more information, please refer to AN2606 from www.st.com.    
1169:STM32F10x_StdPeriph_Driver/src/stm32f10x_flash.c ****   * @retval FLASH Status: The returned value can be: FLASH_ERROR_PG, 
1170:STM32F10x_StdPeriph_Driver/src/stm32f10x_flash.c ****   *         FLASH_ERROR_WRP, FLASH_COMPLETE or FLASH_TIMEOUT.
ARM GAS  C:\Users\kevin\AppData\Local\Temp\ccopMTuX.s 			page 26


1171:STM32F10x_StdPeriph_Driver/src/stm32f10x_flash.c ****   */
1172:STM32F10x_StdPeriph_Driver/src/stm32f10x_flash.c **** FLASH_Status FLASH_BootConfig(uint16_t FLASH_BOOT)
1173:STM32F10x_StdPeriph_Driver/src/stm32f10x_flash.c **** { 
1174:STM32F10x_StdPeriph_Driver/src/stm32f10x_flash.c ****   FLASH_Status status = FLASH_COMPLETE; 
1175:STM32F10x_StdPeriph_Driver/src/stm32f10x_flash.c ****   assert_param(IS_FLASH_BOOT(FLASH_BOOT));
1176:STM32F10x_StdPeriph_Driver/src/stm32f10x_flash.c ****   /* Authorize the small information block programming */
1177:STM32F10x_StdPeriph_Driver/src/stm32f10x_flash.c ****   FLASH->OPTKEYR = FLASH_KEY1;
1178:STM32F10x_StdPeriph_Driver/src/stm32f10x_flash.c ****   FLASH->OPTKEYR = FLASH_KEY2;
1179:STM32F10x_StdPeriph_Driver/src/stm32f10x_flash.c ****   
1180:STM32F10x_StdPeriph_Driver/src/stm32f10x_flash.c ****   /* Wait for last operation to be completed */
1181:STM32F10x_StdPeriph_Driver/src/stm32f10x_flash.c ****   status = FLASH_WaitForLastOperation(ProgramTimeout);
1182:STM32F10x_StdPeriph_Driver/src/stm32f10x_flash.c ****   
1183:STM32F10x_StdPeriph_Driver/src/stm32f10x_flash.c ****   if(status == FLASH_COMPLETE)
1184:STM32F10x_StdPeriph_Driver/src/stm32f10x_flash.c ****   {  
1185:STM32F10x_StdPeriph_Driver/src/stm32f10x_flash.c ****     /* Enable the Option Bytes Programming operation */
1186:STM32F10x_StdPeriph_Driver/src/stm32f10x_flash.c ****     FLASH->CR |= CR_OPTPG_Set; 
1187:STM32F10x_StdPeriph_Driver/src/stm32f10x_flash.c **** 
1188:STM32F10x_StdPeriph_Driver/src/stm32f10x_flash.c ****     if(FLASH_BOOT == FLASH_BOOT_Bank1)
1189:STM32F10x_StdPeriph_Driver/src/stm32f10x_flash.c ****     {
1190:STM32F10x_StdPeriph_Driver/src/stm32f10x_flash.c ****       OB->USER |= OB_USER_BFB2;
1191:STM32F10x_StdPeriph_Driver/src/stm32f10x_flash.c ****     }
1192:STM32F10x_StdPeriph_Driver/src/stm32f10x_flash.c ****     else
1193:STM32F10x_StdPeriph_Driver/src/stm32f10x_flash.c ****     {
1194:STM32F10x_StdPeriph_Driver/src/stm32f10x_flash.c ****       OB->USER &= (uint16_t)(~(uint16_t)(OB_USER_BFB2));
1195:STM32F10x_StdPeriph_Driver/src/stm32f10x_flash.c ****     }
1196:STM32F10x_StdPeriph_Driver/src/stm32f10x_flash.c ****     /* Wait for last operation to be completed */
1197:STM32F10x_StdPeriph_Driver/src/stm32f10x_flash.c ****     status = FLASH_WaitForLastOperation(ProgramTimeout);
1198:STM32F10x_StdPeriph_Driver/src/stm32f10x_flash.c ****     if(status != FLASH_TIMEOUT)
1199:STM32F10x_StdPeriph_Driver/src/stm32f10x_flash.c ****     {
1200:STM32F10x_StdPeriph_Driver/src/stm32f10x_flash.c ****       /* if the program operation is completed, disable the OPTPG Bit */
1201:STM32F10x_StdPeriph_Driver/src/stm32f10x_flash.c ****       FLASH->CR &= CR_OPTPG_Reset;
1202:STM32F10x_StdPeriph_Driver/src/stm32f10x_flash.c ****     }
1203:STM32F10x_StdPeriph_Driver/src/stm32f10x_flash.c ****   }    
1204:STM32F10x_StdPeriph_Driver/src/stm32f10x_flash.c ****   /* Return the Option Byte program Status */
1205:STM32F10x_StdPeriph_Driver/src/stm32f10x_flash.c ****   return status;
1206:STM32F10x_StdPeriph_Driver/src/stm32f10x_flash.c **** }
1207:STM32F10x_StdPeriph_Driver/src/stm32f10x_flash.c **** #endif /* STM32F10X_XL */
1208:STM32F10x_StdPeriph_Driver/src/stm32f10x_flash.c **** 
1209:STM32F10x_StdPeriph_Driver/src/stm32f10x_flash.c **** /**
1210:STM32F10x_StdPeriph_Driver/src/stm32f10x_flash.c ****   * @brief  Returns the FLASH User Option Bytes values.
1211:STM32F10x_StdPeriph_Driver/src/stm32f10x_flash.c ****   * @note   This function can be used for all STM32F10x devices.
1212:STM32F10x_StdPeriph_Driver/src/stm32f10x_flash.c ****   * @param  None
1213:STM32F10x_StdPeriph_Driver/src/stm32f10x_flash.c ****   * @retval The FLASH User Option Bytes values:IWDG_SW(Bit0), RST_STOP(Bit1)
1214:STM32F10x_StdPeriph_Driver/src/stm32f10x_flash.c ****   *         and RST_STDBY(Bit2).
1215:STM32F10x_StdPeriph_Driver/src/stm32f10x_flash.c ****   */
1216:STM32F10x_StdPeriph_Driver/src/stm32f10x_flash.c **** uint32_t FLASH_GetUserOptionByte(void)
1217:STM32F10x_StdPeriph_Driver/src/stm32f10x_flash.c **** {
 271              		.loc 1 1217 1 is_stmt 1 view -0
 272              		.cfi_startproc
 273              		@ args = 0, pretend = 0, frame = 0
 274              		@ frame_needed = 0, uses_anonymous_args = 0
 275              		@ link register save eliminated.
1218:STM32F10x_StdPeriph_Driver/src/stm32f10x_flash.c ****   /* Return the User Option Byte */
1219:STM32F10x_StdPeriph_Driver/src/stm32f10x_flash.c ****   return (uint32_t)(FLASH->OBR >> 2);
 276              		.loc 1 1219 3 view .LVU53
 277              		.loc 1 1219 26 is_stmt 0 view .LVU54
 278 0000 014B     		ldr	r3, .L23
ARM GAS  C:\Users\kevin\AppData\Local\Temp\ccopMTuX.s 			page 27


 279 0002 D869     		ldr	r0, [r3, #28]
1220:STM32F10x_StdPeriph_Driver/src/stm32f10x_flash.c **** }
 280              		.loc 1 1220 1 view .LVU55
 281 0004 8008     		lsrs	r0, r0, #2
 282 0006 7047     		bx	lr
 283              	.L24:
 284              		.align	2
 285              	.L23:
 286 0008 00200240 		.word	1073881088
 287              		.cfi_endproc
 288              	.LFE46:
 290              		.section	.text.FLASH_GetWriteProtectionOptionByte,"ax",%progbits
 291              		.align	1
 292              		.global	FLASH_GetWriteProtectionOptionByte
 293              		.syntax unified
 294              		.thumb
 295              		.thumb_func
 297              	FLASH_GetWriteProtectionOptionByte:
 298              	.LFB47:
1221:STM32F10x_StdPeriph_Driver/src/stm32f10x_flash.c **** 
1222:STM32F10x_StdPeriph_Driver/src/stm32f10x_flash.c **** /**
1223:STM32F10x_StdPeriph_Driver/src/stm32f10x_flash.c ****   * @brief  Returns the FLASH Write Protection Option Bytes Register value.
1224:STM32F10x_StdPeriph_Driver/src/stm32f10x_flash.c ****   * @note   This function can be used for all STM32F10x devices.
1225:STM32F10x_StdPeriph_Driver/src/stm32f10x_flash.c ****   * @param  None
1226:STM32F10x_StdPeriph_Driver/src/stm32f10x_flash.c ****   * @retval The FLASH Write Protection  Option Bytes Register value
1227:STM32F10x_StdPeriph_Driver/src/stm32f10x_flash.c ****   */
1228:STM32F10x_StdPeriph_Driver/src/stm32f10x_flash.c **** uint32_t FLASH_GetWriteProtectionOptionByte(void)
1229:STM32F10x_StdPeriph_Driver/src/stm32f10x_flash.c **** {
 299              		.loc 1 1229 1 is_stmt 1 view -0
 300              		.cfi_startproc
 301              		@ args = 0, pretend = 0, frame = 0
 302              		@ frame_needed = 0, uses_anonymous_args = 0
 303              		@ link register save eliminated.
1230:STM32F10x_StdPeriph_Driver/src/stm32f10x_flash.c ****   /* Return the Flash write protection Register value */
1231:STM32F10x_StdPeriph_Driver/src/stm32f10x_flash.c ****   return (uint32_t)(FLASH->WRPR);
 304              		.loc 1 1231 3 view .LVU57
 305              		.loc 1 1231 10 is_stmt 0 view .LVU58
 306 0000 014B     		ldr	r3, .L26
 307 0002 186A     		ldr	r0, [r3, #32]
1232:STM32F10x_StdPeriph_Driver/src/stm32f10x_flash.c **** }
 308              		.loc 1 1232 1 view .LVU59
 309 0004 7047     		bx	lr
 310              	.L27:
 311 0006 00BF     		.align	2
 312              	.L26:
 313 0008 00200240 		.word	1073881088
 314              		.cfi_endproc
 315              	.LFE47:
 317              		.section	.text.FLASH_GetReadOutProtectionStatus,"ax",%progbits
 318              		.align	1
 319              		.global	FLASH_GetReadOutProtectionStatus
 320              		.syntax unified
 321              		.thumb
 322              		.thumb_func
 324              	FLASH_GetReadOutProtectionStatus:
 325              	.LFB48:
1233:STM32F10x_StdPeriph_Driver/src/stm32f10x_flash.c **** 
ARM GAS  C:\Users\kevin\AppData\Local\Temp\ccopMTuX.s 			page 28


1234:STM32F10x_StdPeriph_Driver/src/stm32f10x_flash.c **** /**
1235:STM32F10x_StdPeriph_Driver/src/stm32f10x_flash.c ****   * @brief  Checks whether the FLASH Read Out Protection Status is set or not.
1236:STM32F10x_StdPeriph_Driver/src/stm32f10x_flash.c ****   * @note   This function can be used for all STM32F10x devices.
1237:STM32F10x_StdPeriph_Driver/src/stm32f10x_flash.c ****   * @param  None
1238:STM32F10x_StdPeriph_Driver/src/stm32f10x_flash.c ****   * @retval FLASH ReadOut Protection Status(SET or RESET)
1239:STM32F10x_StdPeriph_Driver/src/stm32f10x_flash.c ****   */
1240:STM32F10x_StdPeriph_Driver/src/stm32f10x_flash.c **** FlagStatus FLASH_GetReadOutProtectionStatus(void)
1241:STM32F10x_StdPeriph_Driver/src/stm32f10x_flash.c **** {
 326              		.loc 1 1241 1 is_stmt 1 view -0
 327              		.cfi_startproc
 328              		@ args = 0, pretend = 0, frame = 0
 329              		@ frame_needed = 0, uses_anonymous_args = 0
 330              		@ link register save eliminated.
1242:STM32F10x_StdPeriph_Driver/src/stm32f10x_flash.c ****   FlagStatus readoutstatus = RESET;
 331              		.loc 1 1242 3 view .LVU61
 332              	.LVL6:
1243:STM32F10x_StdPeriph_Driver/src/stm32f10x_flash.c ****   if ((FLASH->OBR & RDPRT_Mask) != (uint32_t)RESET)
 333              		.loc 1 1243 3 view .LVU62
 334              		.loc 1 1243 13 is_stmt 0 view .LVU63
 335 0000 044B     		ldr	r3, .L31
 336 0002 DB69     		ldr	r3, [r3, #28]
 337              		.loc 1 1243 6 view .LVU64
 338 0004 13F0020F 		tst	r3, #2
 339 0008 01D0     		beq	.L30
1244:STM32F10x_StdPeriph_Driver/src/stm32f10x_flash.c ****   {
1245:STM32F10x_StdPeriph_Driver/src/stm32f10x_flash.c ****     readoutstatus = SET;
 340              		.loc 1 1245 19 view .LVU65
 341 000a 0120     		movs	r0, #1
 342 000c 7047     		bx	lr
 343              	.L30:
1246:STM32F10x_StdPeriph_Driver/src/stm32f10x_flash.c ****   }
1247:STM32F10x_StdPeriph_Driver/src/stm32f10x_flash.c ****   else
1248:STM32F10x_StdPeriph_Driver/src/stm32f10x_flash.c ****   {
1249:STM32F10x_StdPeriph_Driver/src/stm32f10x_flash.c ****     readoutstatus = RESET;
 344              		.loc 1 1249 19 view .LVU66
 345 000e 0020     		movs	r0, #0
 346              	.LVL7:
1250:STM32F10x_StdPeriph_Driver/src/stm32f10x_flash.c ****   }
1251:STM32F10x_StdPeriph_Driver/src/stm32f10x_flash.c ****   return readoutstatus;
 347              		.loc 1 1251 3 is_stmt 1 view .LVU67
1252:STM32F10x_StdPeriph_Driver/src/stm32f10x_flash.c **** }
 348              		.loc 1 1252 1 is_stmt 0 view .LVU68
 349 0010 7047     		bx	lr
 350              	.L32:
 351 0012 00BF     		.align	2
 352              	.L31:
 353 0014 00200240 		.word	1073881088
 354              		.cfi_endproc
 355              	.LFE48:
 357              		.section	.text.FLASH_GetPrefetchBufferStatus,"ax",%progbits
 358              		.align	1
 359              		.global	FLASH_GetPrefetchBufferStatus
 360              		.syntax unified
 361              		.thumb
 362              		.thumb_func
 364              	FLASH_GetPrefetchBufferStatus:
 365              	.LFB49:
ARM GAS  C:\Users\kevin\AppData\Local\Temp\ccopMTuX.s 			page 29


1253:STM32F10x_StdPeriph_Driver/src/stm32f10x_flash.c **** 
1254:STM32F10x_StdPeriph_Driver/src/stm32f10x_flash.c **** /**
1255:STM32F10x_StdPeriph_Driver/src/stm32f10x_flash.c ****   * @brief  Checks whether the FLASH Prefetch Buffer status is set or not.
1256:STM32F10x_StdPeriph_Driver/src/stm32f10x_flash.c ****   * @note   This function can be used for all STM32F10x devices.
1257:STM32F10x_StdPeriph_Driver/src/stm32f10x_flash.c ****   * @param  None
1258:STM32F10x_StdPeriph_Driver/src/stm32f10x_flash.c ****   * @retval FLASH Prefetch Buffer Status (SET or RESET).
1259:STM32F10x_StdPeriph_Driver/src/stm32f10x_flash.c ****   */
1260:STM32F10x_StdPeriph_Driver/src/stm32f10x_flash.c **** FlagStatus FLASH_GetPrefetchBufferStatus(void)
1261:STM32F10x_StdPeriph_Driver/src/stm32f10x_flash.c **** {
 366              		.loc 1 1261 1 is_stmt 1 view -0
 367              		.cfi_startproc
 368              		@ args = 0, pretend = 0, frame = 0
 369              		@ frame_needed = 0, uses_anonymous_args = 0
 370              		@ link register save eliminated.
1262:STM32F10x_StdPeriph_Driver/src/stm32f10x_flash.c ****   FlagStatus bitstatus = RESET;
 371              		.loc 1 1262 3 view .LVU70
 372              	.LVL8:
1263:STM32F10x_StdPeriph_Driver/src/stm32f10x_flash.c ****   
1264:STM32F10x_StdPeriph_Driver/src/stm32f10x_flash.c ****   if ((FLASH->ACR & ACR_PRFTBS_Mask) != (uint32_t)RESET)
 373              		.loc 1 1264 3 view .LVU71
 374              		.loc 1 1264 13 is_stmt 0 view .LVU72
 375 0000 044B     		ldr	r3, .L36
 376 0002 1B68     		ldr	r3, [r3]
 377              		.loc 1 1264 6 view .LVU73
 378 0004 13F0200F 		tst	r3, #32
 379 0008 01D0     		beq	.L35
1265:STM32F10x_StdPeriph_Driver/src/stm32f10x_flash.c ****   {
1266:STM32F10x_StdPeriph_Driver/src/stm32f10x_flash.c ****     bitstatus = SET;
 380              		.loc 1 1266 15 view .LVU74
 381 000a 0120     		movs	r0, #1
 382 000c 7047     		bx	lr
 383              	.L35:
1267:STM32F10x_StdPeriph_Driver/src/stm32f10x_flash.c ****   }
1268:STM32F10x_StdPeriph_Driver/src/stm32f10x_flash.c ****   else
1269:STM32F10x_StdPeriph_Driver/src/stm32f10x_flash.c ****   {
1270:STM32F10x_StdPeriph_Driver/src/stm32f10x_flash.c ****     bitstatus = RESET;
 384              		.loc 1 1270 15 view .LVU75
 385 000e 0020     		movs	r0, #0
 386              	.LVL9:
1271:STM32F10x_StdPeriph_Driver/src/stm32f10x_flash.c ****   }
1272:STM32F10x_StdPeriph_Driver/src/stm32f10x_flash.c ****   /* Return the new state of FLASH Prefetch Buffer Status (SET or RESET) */
1273:STM32F10x_StdPeriph_Driver/src/stm32f10x_flash.c ****   return bitstatus; 
 387              		.loc 1 1273 3 is_stmt 1 view .LVU76
1274:STM32F10x_StdPeriph_Driver/src/stm32f10x_flash.c **** }
 388              		.loc 1 1274 1 is_stmt 0 view .LVU77
 389 0010 7047     		bx	lr
 390              	.L37:
 391 0012 00BF     		.align	2
 392              	.L36:
 393 0014 00200240 		.word	1073881088
 394              		.cfi_endproc
 395              	.LFE49:
 397              		.section	.text.FLASH_ITConfig,"ax",%progbits
 398              		.align	1
 399              		.global	FLASH_ITConfig
 400              		.syntax unified
 401              		.thumb
ARM GAS  C:\Users\kevin\AppData\Local\Temp\ccopMTuX.s 			page 30


 402              		.thumb_func
 404              	FLASH_ITConfig:
 405              	.LVL10:
 406              	.LFB50:
1275:STM32F10x_StdPeriph_Driver/src/stm32f10x_flash.c **** 
1276:STM32F10x_StdPeriph_Driver/src/stm32f10x_flash.c **** /**
1277:STM32F10x_StdPeriph_Driver/src/stm32f10x_flash.c ****   * @brief  Enables or disables the specified FLASH interrupts.
1278:STM32F10x_StdPeriph_Driver/src/stm32f10x_flash.c ****   * @note   This function can be used for all STM32F10x devices.
1279:STM32F10x_StdPeriph_Driver/src/stm32f10x_flash.c ****   *         - For STM32F10X_XL devices, enables or disables the specified FLASH interrupts
1280:STM32F10x_StdPeriph_Driver/src/stm32f10x_flash.c ****               for Bank1 and Bank2.
1281:STM32F10x_StdPeriph_Driver/src/stm32f10x_flash.c ****   *         - For other devices it enables or disables the specified FLASH interrupts for Bank1.
1282:STM32F10x_StdPeriph_Driver/src/stm32f10x_flash.c ****   * @param  FLASH_IT: specifies the FLASH interrupt sources to be enabled or disabled.
1283:STM32F10x_StdPeriph_Driver/src/stm32f10x_flash.c ****   *   This parameter can be any combination of the following values:
1284:STM32F10x_StdPeriph_Driver/src/stm32f10x_flash.c ****   *     @arg FLASH_IT_ERROR: FLASH Error Interrupt
1285:STM32F10x_StdPeriph_Driver/src/stm32f10x_flash.c ****   *     @arg FLASH_IT_EOP: FLASH end of operation Interrupt
1286:STM32F10x_StdPeriph_Driver/src/stm32f10x_flash.c ****   * @param  NewState: new state of the specified Flash interrupts.
1287:STM32F10x_StdPeriph_Driver/src/stm32f10x_flash.c ****   *   This parameter can be: ENABLE or DISABLE.      
1288:STM32F10x_StdPeriph_Driver/src/stm32f10x_flash.c ****   * @retval None 
1289:STM32F10x_StdPeriph_Driver/src/stm32f10x_flash.c ****   */
1290:STM32F10x_StdPeriph_Driver/src/stm32f10x_flash.c **** void FLASH_ITConfig(uint32_t FLASH_IT, FunctionalState NewState)
1291:STM32F10x_StdPeriph_Driver/src/stm32f10x_flash.c **** {
 407              		.loc 1 1291 1 is_stmt 1 view -0
 408              		.cfi_startproc
 409              		@ args = 0, pretend = 0, frame = 0
 410              		@ frame_needed = 0, uses_anonymous_args = 0
 411              		@ link register save eliminated.
1292:STM32F10x_StdPeriph_Driver/src/stm32f10x_flash.c **** #ifdef STM32F10X_XL
1293:STM32F10x_StdPeriph_Driver/src/stm32f10x_flash.c ****   /* Check the parameters */
1294:STM32F10x_StdPeriph_Driver/src/stm32f10x_flash.c ****   assert_param(IS_FLASH_IT(FLASH_IT)); 
1295:STM32F10x_StdPeriph_Driver/src/stm32f10x_flash.c ****   assert_param(IS_FUNCTIONAL_STATE(NewState));
1296:STM32F10x_StdPeriph_Driver/src/stm32f10x_flash.c **** 
1297:STM32F10x_StdPeriph_Driver/src/stm32f10x_flash.c ****   if((FLASH_IT & 0x80000000) != 0x0)
1298:STM32F10x_StdPeriph_Driver/src/stm32f10x_flash.c ****   {
1299:STM32F10x_StdPeriph_Driver/src/stm32f10x_flash.c ****     if(NewState != DISABLE)
1300:STM32F10x_StdPeriph_Driver/src/stm32f10x_flash.c ****     {
1301:STM32F10x_StdPeriph_Driver/src/stm32f10x_flash.c ****       /* Enable the interrupt sources */
1302:STM32F10x_StdPeriph_Driver/src/stm32f10x_flash.c ****       FLASH->CR2 |= (FLASH_IT & 0x7FFFFFFF);
1303:STM32F10x_StdPeriph_Driver/src/stm32f10x_flash.c ****     }
1304:STM32F10x_StdPeriph_Driver/src/stm32f10x_flash.c ****     else
1305:STM32F10x_StdPeriph_Driver/src/stm32f10x_flash.c ****     {
1306:STM32F10x_StdPeriph_Driver/src/stm32f10x_flash.c ****       /* Disable the interrupt sources */
1307:STM32F10x_StdPeriph_Driver/src/stm32f10x_flash.c ****       FLASH->CR2 &= ~(uint32_t)(FLASH_IT & 0x7FFFFFFF);
1308:STM32F10x_StdPeriph_Driver/src/stm32f10x_flash.c ****     }
1309:STM32F10x_StdPeriph_Driver/src/stm32f10x_flash.c ****   }
1310:STM32F10x_StdPeriph_Driver/src/stm32f10x_flash.c ****   else
1311:STM32F10x_StdPeriph_Driver/src/stm32f10x_flash.c ****   {
1312:STM32F10x_StdPeriph_Driver/src/stm32f10x_flash.c ****     if(NewState != DISABLE)
1313:STM32F10x_StdPeriph_Driver/src/stm32f10x_flash.c ****     {
1314:STM32F10x_StdPeriph_Driver/src/stm32f10x_flash.c ****       /* Enable the interrupt sources */
1315:STM32F10x_StdPeriph_Driver/src/stm32f10x_flash.c ****       FLASH->CR |= FLASH_IT;
1316:STM32F10x_StdPeriph_Driver/src/stm32f10x_flash.c ****     }
1317:STM32F10x_StdPeriph_Driver/src/stm32f10x_flash.c ****     else
1318:STM32F10x_StdPeriph_Driver/src/stm32f10x_flash.c ****     {
1319:STM32F10x_StdPeriph_Driver/src/stm32f10x_flash.c ****       /* Disable the interrupt sources */
1320:STM32F10x_StdPeriph_Driver/src/stm32f10x_flash.c ****       FLASH->CR &= ~(uint32_t)FLASH_IT;
1321:STM32F10x_StdPeriph_Driver/src/stm32f10x_flash.c ****     }
1322:STM32F10x_StdPeriph_Driver/src/stm32f10x_flash.c ****   }
ARM GAS  C:\Users\kevin\AppData\Local\Temp\ccopMTuX.s 			page 31


1323:STM32F10x_StdPeriph_Driver/src/stm32f10x_flash.c **** #else
1324:STM32F10x_StdPeriph_Driver/src/stm32f10x_flash.c ****   /* Check the parameters */
1325:STM32F10x_StdPeriph_Driver/src/stm32f10x_flash.c ****   assert_param(IS_FLASH_IT(FLASH_IT)); 
 412              		.loc 1 1325 3 view .LVU79
1326:STM32F10x_StdPeriph_Driver/src/stm32f10x_flash.c ****   assert_param(IS_FUNCTIONAL_STATE(NewState));
 413              		.loc 1 1326 3 view .LVU80
1327:STM32F10x_StdPeriph_Driver/src/stm32f10x_flash.c **** 
1328:STM32F10x_StdPeriph_Driver/src/stm32f10x_flash.c ****   if(NewState != DISABLE)
 414              		.loc 1 1328 3 view .LVU81
 415              		.loc 1 1328 5 is_stmt 0 view .LVU82
 416 0000 21B1     		cbz	r1, .L39
1329:STM32F10x_StdPeriph_Driver/src/stm32f10x_flash.c ****   {
1330:STM32F10x_StdPeriph_Driver/src/stm32f10x_flash.c ****     /* Enable the interrupt sources */
1331:STM32F10x_StdPeriph_Driver/src/stm32f10x_flash.c ****     FLASH->CR |= FLASH_IT;
 417              		.loc 1 1331 5 is_stmt 1 view .LVU83
 418              		.loc 1 1331 10 is_stmt 0 view .LVU84
 419 0002 054A     		ldr	r2, .L41
 420 0004 1369     		ldr	r3, [r2, #16]
 421              		.loc 1 1331 15 view .LVU85
 422 0006 0343     		orrs	r3, r3, r0
 423 0008 1361     		str	r3, [r2, #16]
 424 000a 7047     		bx	lr
 425              	.L39:
1332:STM32F10x_StdPeriph_Driver/src/stm32f10x_flash.c ****   }
1333:STM32F10x_StdPeriph_Driver/src/stm32f10x_flash.c ****   else
1334:STM32F10x_StdPeriph_Driver/src/stm32f10x_flash.c ****   {
1335:STM32F10x_StdPeriph_Driver/src/stm32f10x_flash.c ****     /* Disable the interrupt sources */
1336:STM32F10x_StdPeriph_Driver/src/stm32f10x_flash.c ****     FLASH->CR &= ~(uint32_t)FLASH_IT;
 426              		.loc 1 1336 5 is_stmt 1 view .LVU86
 427              		.loc 1 1336 10 is_stmt 0 view .LVU87
 428 000c 024A     		ldr	r2, .L41
 429 000e 1369     		ldr	r3, [r2, #16]
 430              		.loc 1 1336 15 view .LVU88
 431 0010 23EA0003 		bic	r3, r3, r0
 432 0014 1361     		str	r3, [r2, #16]
1337:STM32F10x_StdPeriph_Driver/src/stm32f10x_flash.c ****   }
1338:STM32F10x_StdPeriph_Driver/src/stm32f10x_flash.c **** #endif /* STM32F10X_XL */
1339:STM32F10x_StdPeriph_Driver/src/stm32f10x_flash.c **** }
 433              		.loc 1 1339 1 view .LVU89
 434 0016 7047     		bx	lr
 435              	.L42:
 436              		.align	2
 437              	.L41:
 438 0018 00200240 		.word	1073881088
 439              		.cfi_endproc
 440              	.LFE50:
 442              		.section	.text.FLASH_GetFlagStatus,"ax",%progbits
 443              		.align	1
 444              		.global	FLASH_GetFlagStatus
 445              		.syntax unified
 446              		.thumb
 447              		.thumb_func
 449              	FLASH_GetFlagStatus:
 450              	.LVL11:
 451              	.LFB51:
1340:STM32F10x_StdPeriph_Driver/src/stm32f10x_flash.c **** 
1341:STM32F10x_StdPeriph_Driver/src/stm32f10x_flash.c **** /**
ARM GAS  C:\Users\kevin\AppData\Local\Temp\ccopMTuX.s 			page 32


1342:STM32F10x_StdPeriph_Driver/src/stm32f10x_flash.c ****   * @brief  Checks whether the specified FLASH flag is set or not.
1343:STM32F10x_StdPeriph_Driver/src/stm32f10x_flash.c ****   * @note   This function can be used for all STM32F10x devices.
1344:STM32F10x_StdPeriph_Driver/src/stm32f10x_flash.c ****   *         - For STM32F10X_XL devices, this function checks whether the specified 
1345:STM32F10x_StdPeriph_Driver/src/stm32f10x_flash.c ****   *           Bank1 or Bank2 flag is set or not.
1346:STM32F10x_StdPeriph_Driver/src/stm32f10x_flash.c ****   *         - For other devices, it checks whether the specified Bank1 flag is 
1347:STM32F10x_StdPeriph_Driver/src/stm32f10x_flash.c ****   *           set or not.
1348:STM32F10x_StdPeriph_Driver/src/stm32f10x_flash.c ****   * @param  FLASH_FLAG: specifies the FLASH flag to check.
1349:STM32F10x_StdPeriph_Driver/src/stm32f10x_flash.c ****   *   This parameter can be one of the following values:
1350:STM32F10x_StdPeriph_Driver/src/stm32f10x_flash.c ****   *     @arg FLASH_FLAG_BSY: FLASH Busy flag           
1351:STM32F10x_StdPeriph_Driver/src/stm32f10x_flash.c ****   *     @arg FLASH_FLAG_PGERR: FLASH Program error flag       
1352:STM32F10x_StdPeriph_Driver/src/stm32f10x_flash.c ****   *     @arg FLASH_FLAG_WRPRTERR: FLASH Write protected error flag      
1353:STM32F10x_StdPeriph_Driver/src/stm32f10x_flash.c ****   *     @arg FLASH_FLAG_EOP: FLASH End of Operation flag           
1354:STM32F10x_StdPeriph_Driver/src/stm32f10x_flash.c ****   *     @arg FLASH_FLAG_OPTERR:  FLASH Option Byte error flag     
1355:STM32F10x_StdPeriph_Driver/src/stm32f10x_flash.c ****   * @retval The new state of FLASH_FLAG (SET or RESET).
1356:STM32F10x_StdPeriph_Driver/src/stm32f10x_flash.c ****   */
1357:STM32F10x_StdPeriph_Driver/src/stm32f10x_flash.c **** FlagStatus FLASH_GetFlagStatus(uint32_t FLASH_FLAG)
1358:STM32F10x_StdPeriph_Driver/src/stm32f10x_flash.c **** {
 452              		.loc 1 1358 1 is_stmt 1 view -0
 453              		.cfi_startproc
 454              		@ args = 0, pretend = 0, frame = 0
 455              		@ frame_needed = 0, uses_anonymous_args = 0
 456              		@ link register save eliminated.
1359:STM32F10x_StdPeriph_Driver/src/stm32f10x_flash.c ****   FlagStatus bitstatus = RESET;
 457              		.loc 1 1359 3 view .LVU91
1360:STM32F10x_StdPeriph_Driver/src/stm32f10x_flash.c **** 
1361:STM32F10x_StdPeriph_Driver/src/stm32f10x_flash.c **** #ifdef STM32F10X_XL
1362:STM32F10x_StdPeriph_Driver/src/stm32f10x_flash.c ****   /* Check the parameters */
1363:STM32F10x_StdPeriph_Driver/src/stm32f10x_flash.c ****   assert_param(IS_FLASH_GET_FLAG(FLASH_FLAG)) ;
1364:STM32F10x_StdPeriph_Driver/src/stm32f10x_flash.c ****   if(FLASH_FLAG == FLASH_FLAG_OPTERR) 
1365:STM32F10x_StdPeriph_Driver/src/stm32f10x_flash.c ****   {
1366:STM32F10x_StdPeriph_Driver/src/stm32f10x_flash.c ****     if((FLASH->OBR & FLASH_FLAG_OPTERR) != (uint32_t)RESET)
1367:STM32F10x_StdPeriph_Driver/src/stm32f10x_flash.c ****     {
1368:STM32F10x_StdPeriph_Driver/src/stm32f10x_flash.c ****       bitstatus = SET;
1369:STM32F10x_StdPeriph_Driver/src/stm32f10x_flash.c ****     }
1370:STM32F10x_StdPeriph_Driver/src/stm32f10x_flash.c ****     else
1371:STM32F10x_StdPeriph_Driver/src/stm32f10x_flash.c ****     {
1372:STM32F10x_StdPeriph_Driver/src/stm32f10x_flash.c ****       bitstatus = RESET;
1373:STM32F10x_StdPeriph_Driver/src/stm32f10x_flash.c ****     }
1374:STM32F10x_StdPeriph_Driver/src/stm32f10x_flash.c ****   }
1375:STM32F10x_StdPeriph_Driver/src/stm32f10x_flash.c ****   else
1376:STM32F10x_StdPeriph_Driver/src/stm32f10x_flash.c ****   {
1377:STM32F10x_StdPeriph_Driver/src/stm32f10x_flash.c ****     if((FLASH_FLAG & 0x80000000) != 0x0)
1378:STM32F10x_StdPeriph_Driver/src/stm32f10x_flash.c ****     {
1379:STM32F10x_StdPeriph_Driver/src/stm32f10x_flash.c ****       if((FLASH->SR2 & FLASH_FLAG) != (uint32_t)RESET)
1380:STM32F10x_StdPeriph_Driver/src/stm32f10x_flash.c ****       {
1381:STM32F10x_StdPeriph_Driver/src/stm32f10x_flash.c ****         bitstatus = SET;
1382:STM32F10x_StdPeriph_Driver/src/stm32f10x_flash.c ****       }
1383:STM32F10x_StdPeriph_Driver/src/stm32f10x_flash.c ****       else
1384:STM32F10x_StdPeriph_Driver/src/stm32f10x_flash.c ****       {
1385:STM32F10x_StdPeriph_Driver/src/stm32f10x_flash.c ****         bitstatus = RESET;
1386:STM32F10x_StdPeriph_Driver/src/stm32f10x_flash.c ****       }
1387:STM32F10x_StdPeriph_Driver/src/stm32f10x_flash.c ****     }
1388:STM32F10x_StdPeriph_Driver/src/stm32f10x_flash.c ****     else
1389:STM32F10x_StdPeriph_Driver/src/stm32f10x_flash.c ****     {
1390:STM32F10x_StdPeriph_Driver/src/stm32f10x_flash.c ****       if((FLASH->SR & FLASH_FLAG) != (uint32_t)RESET)
1391:STM32F10x_StdPeriph_Driver/src/stm32f10x_flash.c ****       {
1392:STM32F10x_StdPeriph_Driver/src/stm32f10x_flash.c ****         bitstatus = SET;
ARM GAS  C:\Users\kevin\AppData\Local\Temp\ccopMTuX.s 			page 33


1393:STM32F10x_StdPeriph_Driver/src/stm32f10x_flash.c ****       }
1394:STM32F10x_StdPeriph_Driver/src/stm32f10x_flash.c ****       else
1395:STM32F10x_StdPeriph_Driver/src/stm32f10x_flash.c ****       {
1396:STM32F10x_StdPeriph_Driver/src/stm32f10x_flash.c ****         bitstatus = RESET;
1397:STM32F10x_StdPeriph_Driver/src/stm32f10x_flash.c ****       }
1398:STM32F10x_StdPeriph_Driver/src/stm32f10x_flash.c ****     }
1399:STM32F10x_StdPeriph_Driver/src/stm32f10x_flash.c ****   }
1400:STM32F10x_StdPeriph_Driver/src/stm32f10x_flash.c **** #else
1401:STM32F10x_StdPeriph_Driver/src/stm32f10x_flash.c ****   /* Check the parameters */
1402:STM32F10x_StdPeriph_Driver/src/stm32f10x_flash.c ****   assert_param(IS_FLASH_GET_FLAG(FLASH_FLAG)) ;
 458              		.loc 1 1402 3 view .LVU92
1403:STM32F10x_StdPeriph_Driver/src/stm32f10x_flash.c ****   if(FLASH_FLAG == FLASH_FLAG_OPTERR) 
 459              		.loc 1 1403 3 view .LVU93
 460              		.loc 1 1403 5 is_stmt 0 view .LVU94
 461 0000 0128     		cmp	r0, #1
 462 0002 05D0     		beq	.L48
1404:STM32F10x_StdPeriph_Driver/src/stm32f10x_flash.c ****   {
1405:STM32F10x_StdPeriph_Driver/src/stm32f10x_flash.c ****     if((FLASH->OBR & FLASH_FLAG_OPTERR) != (uint32_t)RESET)
1406:STM32F10x_StdPeriph_Driver/src/stm32f10x_flash.c ****     {
1407:STM32F10x_StdPeriph_Driver/src/stm32f10x_flash.c ****       bitstatus = SET;
1408:STM32F10x_StdPeriph_Driver/src/stm32f10x_flash.c ****     }
1409:STM32F10x_StdPeriph_Driver/src/stm32f10x_flash.c ****     else
1410:STM32F10x_StdPeriph_Driver/src/stm32f10x_flash.c ****     {
1411:STM32F10x_StdPeriph_Driver/src/stm32f10x_flash.c ****       bitstatus = RESET;
1412:STM32F10x_StdPeriph_Driver/src/stm32f10x_flash.c ****     }
1413:STM32F10x_StdPeriph_Driver/src/stm32f10x_flash.c ****   }
1414:STM32F10x_StdPeriph_Driver/src/stm32f10x_flash.c ****   else
1415:STM32F10x_StdPeriph_Driver/src/stm32f10x_flash.c ****   {
1416:STM32F10x_StdPeriph_Driver/src/stm32f10x_flash.c ****    if((FLASH->SR & FLASH_FLAG) != (uint32_t)RESET)
 463              		.loc 1 1416 4 is_stmt 1 view .LVU95
 464              		.loc 1 1416 13 is_stmt 0 view .LVU96
 465 0004 074B     		ldr	r3, .L49
 466 0006 DB68     		ldr	r3, [r3, #12]
 467              		.loc 1 1416 6 view .LVU97
 468 0008 0342     		tst	r3, r0
 469 000a 09D0     		beq	.L47
1417:STM32F10x_StdPeriph_Driver/src/stm32f10x_flash.c ****     {
1418:STM32F10x_StdPeriph_Driver/src/stm32f10x_flash.c ****       bitstatus = SET;
 470              		.loc 1 1418 17 view .LVU98
 471 000c 0120     		movs	r0, #1
 472              	.LVL12:
 473              		.loc 1 1418 17 view .LVU99
 474 000e 7047     		bx	lr
 475              	.LVL13:
 476              	.L48:
1405:STM32F10x_StdPeriph_Driver/src/stm32f10x_flash.c ****     {
 477              		.loc 1 1405 5 is_stmt 1 view .LVU100
1405:STM32F10x_StdPeriph_Driver/src/stm32f10x_flash.c ****     {
 478              		.loc 1 1405 14 is_stmt 0 view .LVU101
 479 0010 044B     		ldr	r3, .L49
 480 0012 DB69     		ldr	r3, [r3, #28]
1405:STM32F10x_StdPeriph_Driver/src/stm32f10x_flash.c ****     {
 481              		.loc 1 1405 7 view .LVU102
 482 0014 13F0010F 		tst	r3, #1
 483 0018 00D0     		beq	.L46
 484 001a 7047     		bx	lr
 485              	.L46:
ARM GAS  C:\Users\kevin\AppData\Local\Temp\ccopMTuX.s 			page 34


1411:STM32F10x_StdPeriph_Driver/src/stm32f10x_flash.c ****     }
 486              		.loc 1 1411 17 view .LVU103
 487 001c 0020     		movs	r0, #0
 488              	.LVL14:
1411:STM32F10x_StdPeriph_Driver/src/stm32f10x_flash.c ****     }
 489              		.loc 1 1411 17 view .LVU104
 490 001e 7047     		bx	lr
 491              	.LVL15:
 492              	.L47:
1419:STM32F10x_StdPeriph_Driver/src/stm32f10x_flash.c ****     }
1420:STM32F10x_StdPeriph_Driver/src/stm32f10x_flash.c ****     else
1421:STM32F10x_StdPeriph_Driver/src/stm32f10x_flash.c ****     {
1422:STM32F10x_StdPeriph_Driver/src/stm32f10x_flash.c ****       bitstatus = RESET;
 493              		.loc 1 1422 17 view .LVU105
 494 0020 0020     		movs	r0, #0
 495              	.LVL16:
1423:STM32F10x_StdPeriph_Driver/src/stm32f10x_flash.c ****     }
1424:STM32F10x_StdPeriph_Driver/src/stm32f10x_flash.c ****   }
1425:STM32F10x_StdPeriph_Driver/src/stm32f10x_flash.c **** #endif /* STM32F10X_XL */
1426:STM32F10x_StdPeriph_Driver/src/stm32f10x_flash.c **** 
1427:STM32F10x_StdPeriph_Driver/src/stm32f10x_flash.c ****   /* Return the new state of FLASH_FLAG (SET or RESET) */
1428:STM32F10x_StdPeriph_Driver/src/stm32f10x_flash.c ****   return bitstatus;
 496              		.loc 1 1428 3 is_stmt 1 view .LVU106
1429:STM32F10x_StdPeriph_Driver/src/stm32f10x_flash.c **** }
 497              		.loc 1 1429 1 is_stmt 0 view .LVU107
 498 0022 7047     		bx	lr
 499              	.L50:
 500              		.align	2
 501              	.L49:
 502 0024 00200240 		.word	1073881088
 503              		.cfi_endproc
 504              	.LFE51:
 506              		.section	.text.FLASH_ClearFlag,"ax",%progbits
 507              		.align	1
 508              		.global	FLASH_ClearFlag
 509              		.syntax unified
 510              		.thumb
 511              		.thumb_func
 513              	FLASH_ClearFlag:
 514              	.LVL17:
 515              	.LFB52:
1430:STM32F10x_StdPeriph_Driver/src/stm32f10x_flash.c **** 
1431:STM32F10x_StdPeriph_Driver/src/stm32f10x_flash.c **** /**
1432:STM32F10x_StdPeriph_Driver/src/stm32f10x_flash.c ****   * @brief  Clears the FLASH's pending flags.
1433:STM32F10x_StdPeriph_Driver/src/stm32f10x_flash.c ****   * @note   This function can be used for all STM32F10x devices.
1434:STM32F10x_StdPeriph_Driver/src/stm32f10x_flash.c ****   *         - For STM32F10X_XL devices, this function clears Bank1 or Bank2s pending flags
1435:STM32F10x_StdPeriph_Driver/src/stm32f10x_flash.c ****   *         - For other devices, it clears Bank1s pending flags.
1436:STM32F10x_StdPeriph_Driver/src/stm32f10x_flash.c ****   * @param  FLASH_FLAG: specifies the FLASH flags to clear.
1437:STM32F10x_StdPeriph_Driver/src/stm32f10x_flash.c ****   *   This parameter can be any combination of the following values:         
1438:STM32F10x_StdPeriph_Driver/src/stm32f10x_flash.c ****   *     @arg FLASH_FLAG_PGERR: FLASH Program error flag       
1439:STM32F10x_StdPeriph_Driver/src/stm32f10x_flash.c ****   *     @arg FLASH_FLAG_WRPRTERR: FLASH Write protected error flag      
1440:STM32F10x_StdPeriph_Driver/src/stm32f10x_flash.c ****   *     @arg FLASH_FLAG_EOP: FLASH End of Operation flag           
1441:STM32F10x_StdPeriph_Driver/src/stm32f10x_flash.c ****   * @retval None
1442:STM32F10x_StdPeriph_Driver/src/stm32f10x_flash.c ****   */
1443:STM32F10x_StdPeriph_Driver/src/stm32f10x_flash.c **** void FLASH_ClearFlag(uint32_t FLASH_FLAG)
1444:STM32F10x_StdPeriph_Driver/src/stm32f10x_flash.c **** {
 516              		.loc 1 1444 1 is_stmt 1 view -0
ARM GAS  C:\Users\kevin\AppData\Local\Temp\ccopMTuX.s 			page 35


 517              		.cfi_startproc
 518              		@ args = 0, pretend = 0, frame = 0
 519              		@ frame_needed = 0, uses_anonymous_args = 0
 520              		@ link register save eliminated.
1445:STM32F10x_StdPeriph_Driver/src/stm32f10x_flash.c **** #ifdef STM32F10X_XL
1446:STM32F10x_StdPeriph_Driver/src/stm32f10x_flash.c ****   /* Check the parameters */
1447:STM32F10x_StdPeriph_Driver/src/stm32f10x_flash.c ****   assert_param(IS_FLASH_CLEAR_FLAG(FLASH_FLAG)) ;
1448:STM32F10x_StdPeriph_Driver/src/stm32f10x_flash.c **** 
1449:STM32F10x_StdPeriph_Driver/src/stm32f10x_flash.c ****   if((FLASH_FLAG & 0x80000000) != 0x0)
1450:STM32F10x_StdPeriph_Driver/src/stm32f10x_flash.c ****   {
1451:STM32F10x_StdPeriph_Driver/src/stm32f10x_flash.c ****     /* Clear the flags */
1452:STM32F10x_StdPeriph_Driver/src/stm32f10x_flash.c ****     FLASH->SR2 = FLASH_FLAG;
1453:STM32F10x_StdPeriph_Driver/src/stm32f10x_flash.c ****   }
1454:STM32F10x_StdPeriph_Driver/src/stm32f10x_flash.c ****   else
1455:STM32F10x_StdPeriph_Driver/src/stm32f10x_flash.c ****   {
1456:STM32F10x_StdPeriph_Driver/src/stm32f10x_flash.c ****     /* Clear the flags */
1457:STM32F10x_StdPeriph_Driver/src/stm32f10x_flash.c ****     FLASH->SR = FLASH_FLAG;
1458:STM32F10x_StdPeriph_Driver/src/stm32f10x_flash.c ****   }  
1459:STM32F10x_StdPeriph_Driver/src/stm32f10x_flash.c **** 
1460:STM32F10x_StdPeriph_Driver/src/stm32f10x_flash.c **** #else
1461:STM32F10x_StdPeriph_Driver/src/stm32f10x_flash.c ****   /* Check the parameters */
1462:STM32F10x_StdPeriph_Driver/src/stm32f10x_flash.c ****   assert_param(IS_FLASH_CLEAR_FLAG(FLASH_FLAG)) ;
 521              		.loc 1 1462 3 view .LVU109
1463:STM32F10x_StdPeriph_Driver/src/stm32f10x_flash.c ****   
1464:STM32F10x_StdPeriph_Driver/src/stm32f10x_flash.c ****   /* Clear the flags */
1465:STM32F10x_StdPeriph_Driver/src/stm32f10x_flash.c ****   FLASH->SR = FLASH_FLAG;
 522              		.loc 1 1465 3 view .LVU110
 523              		.loc 1 1465 13 is_stmt 0 view .LVU111
 524 0000 014B     		ldr	r3, .L52
 525 0002 D860     		str	r0, [r3, #12]
1466:STM32F10x_StdPeriph_Driver/src/stm32f10x_flash.c **** #endif /* STM32F10X_XL */
1467:STM32F10x_StdPeriph_Driver/src/stm32f10x_flash.c **** }
 526              		.loc 1 1467 1 view .LVU112
 527 0004 7047     		bx	lr
 528              	.L53:
 529 0006 00BF     		.align	2
 530              	.L52:
 531 0008 00200240 		.word	1073881088
 532              		.cfi_endproc
 533              	.LFE52:
 535              		.section	.text.FLASH_GetStatus,"ax",%progbits
 536              		.align	1
 537              		.global	FLASH_GetStatus
 538              		.syntax unified
 539              		.thumb
 540              		.thumb_func
 542              	FLASH_GetStatus:
 543              	.LFB53:
1468:STM32F10x_StdPeriph_Driver/src/stm32f10x_flash.c **** 
1469:STM32F10x_StdPeriph_Driver/src/stm32f10x_flash.c **** /**
1470:STM32F10x_StdPeriph_Driver/src/stm32f10x_flash.c ****   * @brief  Returns the FLASH Status.
1471:STM32F10x_StdPeriph_Driver/src/stm32f10x_flash.c ****   * @note   This function can be used for all STM32F10x devices, it is equivalent
1472:STM32F10x_StdPeriph_Driver/src/stm32f10x_flash.c ****   *         to FLASH_GetBank1Status function.
1473:STM32F10x_StdPeriph_Driver/src/stm32f10x_flash.c ****   * @param  None
1474:STM32F10x_StdPeriph_Driver/src/stm32f10x_flash.c ****   * @retval FLASH Status: The returned value can be: FLASH_BUSY, FLASH_ERROR_PG,
1475:STM32F10x_StdPeriph_Driver/src/stm32f10x_flash.c ****   *         FLASH_ERROR_WRP or FLASH_COMPLETE
1476:STM32F10x_StdPeriph_Driver/src/stm32f10x_flash.c ****   */
ARM GAS  C:\Users\kevin\AppData\Local\Temp\ccopMTuX.s 			page 36


1477:STM32F10x_StdPeriph_Driver/src/stm32f10x_flash.c **** FLASH_Status FLASH_GetStatus(void)
1478:STM32F10x_StdPeriph_Driver/src/stm32f10x_flash.c **** {
 544              		.loc 1 1478 1 is_stmt 1 view -0
 545              		.cfi_startproc
 546              		@ args = 0, pretend = 0, frame = 0
 547              		@ frame_needed = 0, uses_anonymous_args = 0
 548              		@ link register save eliminated.
1479:STM32F10x_StdPeriph_Driver/src/stm32f10x_flash.c ****   FLASH_Status flashstatus = FLASH_COMPLETE;
 549              		.loc 1 1479 3 view .LVU114
 550              	.LVL18:
1480:STM32F10x_StdPeriph_Driver/src/stm32f10x_flash.c ****   
1481:STM32F10x_StdPeriph_Driver/src/stm32f10x_flash.c ****   if((FLASH->SR & FLASH_FLAG_BSY) == FLASH_FLAG_BSY) 
 551              		.loc 1 1481 3 view .LVU115
 552              		.loc 1 1481 12 is_stmt 0 view .LVU116
 553 0000 0B4B     		ldr	r3, .L59
 554 0002 DB68     		ldr	r3, [r3, #12]
 555              		.loc 1 1481 5 view .LVU117
 556 0004 13F0010F 		tst	r3, #1
 557 0008 0BD1     		bne	.L56
1482:STM32F10x_StdPeriph_Driver/src/stm32f10x_flash.c ****   {
1483:STM32F10x_StdPeriph_Driver/src/stm32f10x_flash.c ****     flashstatus = FLASH_BUSY;
1484:STM32F10x_StdPeriph_Driver/src/stm32f10x_flash.c ****   }
1485:STM32F10x_StdPeriph_Driver/src/stm32f10x_flash.c ****   else 
1486:STM32F10x_StdPeriph_Driver/src/stm32f10x_flash.c ****   {  
1487:STM32F10x_StdPeriph_Driver/src/stm32f10x_flash.c ****     if((FLASH->SR & FLASH_FLAG_PGERR) != 0)
 558              		.loc 1 1487 5 is_stmt 1 view .LVU118
 559              		.loc 1 1487 14 is_stmt 0 view .LVU119
 560 000a 094B     		ldr	r3, .L59
 561 000c DB68     		ldr	r3, [r3, #12]
 562              		.loc 1 1487 7 view .LVU120
 563 000e 13F0040F 		tst	r3, #4
 564 0012 08D1     		bne	.L57
1488:STM32F10x_StdPeriph_Driver/src/stm32f10x_flash.c ****     { 
1489:STM32F10x_StdPeriph_Driver/src/stm32f10x_flash.c ****       flashstatus = FLASH_ERROR_PG;
1490:STM32F10x_StdPeriph_Driver/src/stm32f10x_flash.c ****     }
1491:STM32F10x_StdPeriph_Driver/src/stm32f10x_flash.c ****     else 
1492:STM32F10x_StdPeriph_Driver/src/stm32f10x_flash.c ****     {
1493:STM32F10x_StdPeriph_Driver/src/stm32f10x_flash.c ****       if((FLASH->SR & FLASH_FLAG_WRPRTERR) != 0 )
 565              		.loc 1 1493 7 is_stmt 1 view .LVU121
 566              		.loc 1 1493 16 is_stmt 0 view .LVU122
 567 0014 064B     		ldr	r3, .L59
 568 0016 DB68     		ldr	r3, [r3, #12]
 569              		.loc 1 1493 9 view .LVU123
 570 0018 13F0100F 		tst	r3, #16
 571 001c 05D0     		beq	.L58
1494:STM32F10x_StdPeriph_Driver/src/stm32f10x_flash.c ****       {
1495:STM32F10x_StdPeriph_Driver/src/stm32f10x_flash.c ****         flashstatus = FLASH_ERROR_WRP;
 572              		.loc 1 1495 21 view .LVU124
 573 001e 0320     		movs	r0, #3
 574 0020 7047     		bx	lr
 575              	.L56:
1483:STM32F10x_StdPeriph_Driver/src/stm32f10x_flash.c ****   }
 576              		.loc 1 1483 17 view .LVU125
 577 0022 0120     		movs	r0, #1
 578 0024 7047     		bx	lr
 579              	.L57:
1489:STM32F10x_StdPeriph_Driver/src/stm32f10x_flash.c ****     }
ARM GAS  C:\Users\kevin\AppData\Local\Temp\ccopMTuX.s 			page 37


 580              		.loc 1 1489 19 view .LVU126
 581 0026 0220     		movs	r0, #2
 582 0028 7047     		bx	lr
 583              	.L58:
1496:STM32F10x_StdPeriph_Driver/src/stm32f10x_flash.c ****       }
1497:STM32F10x_StdPeriph_Driver/src/stm32f10x_flash.c ****       else
1498:STM32F10x_StdPeriph_Driver/src/stm32f10x_flash.c ****       {
1499:STM32F10x_StdPeriph_Driver/src/stm32f10x_flash.c ****         flashstatus = FLASH_COMPLETE;
 584              		.loc 1 1499 21 view .LVU127
 585 002a 0420     		movs	r0, #4
 586              	.LVL19:
1500:STM32F10x_StdPeriph_Driver/src/stm32f10x_flash.c ****       }
1501:STM32F10x_StdPeriph_Driver/src/stm32f10x_flash.c ****     }
1502:STM32F10x_StdPeriph_Driver/src/stm32f10x_flash.c ****   }
1503:STM32F10x_StdPeriph_Driver/src/stm32f10x_flash.c ****   /* Return the Flash Status */
1504:STM32F10x_StdPeriph_Driver/src/stm32f10x_flash.c ****   return flashstatus;
 587              		.loc 1 1504 3 is_stmt 1 view .LVU128
1505:STM32F10x_StdPeriph_Driver/src/stm32f10x_flash.c **** }
 588              		.loc 1 1505 1 is_stmt 0 view .LVU129
 589 002c 7047     		bx	lr
 590              	.L60:
 591 002e 00BF     		.align	2
 592              	.L59:
 593 0030 00200240 		.word	1073881088
 594              		.cfi_endproc
 595              	.LFE53:
 597              		.section	.text.FLASH_GetBank1Status,"ax",%progbits
 598              		.align	1
 599              		.global	FLASH_GetBank1Status
 600              		.syntax unified
 601              		.thumb
 602              		.thumb_func
 604              	FLASH_GetBank1Status:
 605              	.LFB54:
1506:STM32F10x_StdPeriph_Driver/src/stm32f10x_flash.c **** 
1507:STM32F10x_StdPeriph_Driver/src/stm32f10x_flash.c **** /**
1508:STM32F10x_StdPeriph_Driver/src/stm32f10x_flash.c ****   * @brief  Returns the FLASH Bank1 Status.
1509:STM32F10x_StdPeriph_Driver/src/stm32f10x_flash.c ****   * @note   This function can be used for all STM32F10x devices, it is equivalent
1510:STM32F10x_StdPeriph_Driver/src/stm32f10x_flash.c ****   *         to FLASH_GetStatus function.
1511:STM32F10x_StdPeriph_Driver/src/stm32f10x_flash.c ****   * @param  None
1512:STM32F10x_StdPeriph_Driver/src/stm32f10x_flash.c ****   * @retval FLASH Status: The returned value can be: FLASH_BUSY, FLASH_ERROR_PG,
1513:STM32F10x_StdPeriph_Driver/src/stm32f10x_flash.c ****   *         FLASH_ERROR_WRP or FLASH_COMPLETE
1514:STM32F10x_StdPeriph_Driver/src/stm32f10x_flash.c ****   */
1515:STM32F10x_StdPeriph_Driver/src/stm32f10x_flash.c **** FLASH_Status FLASH_GetBank1Status(void)
1516:STM32F10x_StdPeriph_Driver/src/stm32f10x_flash.c **** {
 606              		.loc 1 1516 1 is_stmt 1 view -0
 607              		.cfi_startproc
 608              		@ args = 0, pretend = 0, frame = 0
 609              		@ frame_needed = 0, uses_anonymous_args = 0
 610              		@ link register save eliminated.
1517:STM32F10x_StdPeriph_Driver/src/stm32f10x_flash.c ****   FLASH_Status flashstatus = FLASH_COMPLETE;
 611              		.loc 1 1517 3 view .LVU131
 612              	.LVL20:
1518:STM32F10x_StdPeriph_Driver/src/stm32f10x_flash.c ****   
1519:STM32F10x_StdPeriph_Driver/src/stm32f10x_flash.c ****   if((FLASH->SR & FLASH_FLAG_BANK1_BSY) == FLASH_FLAG_BSY) 
 613              		.loc 1 1519 3 view .LVU132
 614              		.loc 1 1519 12 is_stmt 0 view .LVU133
ARM GAS  C:\Users\kevin\AppData\Local\Temp\ccopMTuX.s 			page 38


 615 0000 0B4B     		ldr	r3, .L66
 616 0002 DB68     		ldr	r3, [r3, #12]
 617              		.loc 1 1519 5 view .LVU134
 618 0004 13F0010F 		tst	r3, #1
 619 0008 0BD1     		bne	.L63
1520:STM32F10x_StdPeriph_Driver/src/stm32f10x_flash.c ****   {
1521:STM32F10x_StdPeriph_Driver/src/stm32f10x_flash.c ****     flashstatus = FLASH_BUSY;
1522:STM32F10x_StdPeriph_Driver/src/stm32f10x_flash.c ****   }
1523:STM32F10x_StdPeriph_Driver/src/stm32f10x_flash.c ****   else 
1524:STM32F10x_StdPeriph_Driver/src/stm32f10x_flash.c ****   {  
1525:STM32F10x_StdPeriph_Driver/src/stm32f10x_flash.c ****     if((FLASH->SR & FLASH_FLAG_BANK1_PGERR) != 0)
 620              		.loc 1 1525 5 is_stmt 1 view .LVU135
 621              		.loc 1 1525 14 is_stmt 0 view .LVU136
 622 000a 094B     		ldr	r3, .L66
 623 000c DB68     		ldr	r3, [r3, #12]
 624              		.loc 1 1525 7 view .LVU137
 625 000e 13F0040F 		tst	r3, #4
 626 0012 08D1     		bne	.L64
1526:STM32F10x_StdPeriph_Driver/src/stm32f10x_flash.c ****     { 
1527:STM32F10x_StdPeriph_Driver/src/stm32f10x_flash.c ****       flashstatus = FLASH_ERROR_PG;
1528:STM32F10x_StdPeriph_Driver/src/stm32f10x_flash.c ****     }
1529:STM32F10x_StdPeriph_Driver/src/stm32f10x_flash.c ****     else 
1530:STM32F10x_StdPeriph_Driver/src/stm32f10x_flash.c ****     {
1531:STM32F10x_StdPeriph_Driver/src/stm32f10x_flash.c ****       if((FLASH->SR & FLASH_FLAG_BANK1_WRPRTERR) != 0 )
 627              		.loc 1 1531 7 is_stmt 1 view .LVU138
 628              		.loc 1 1531 16 is_stmt 0 view .LVU139
 629 0014 064B     		ldr	r3, .L66
 630 0016 DB68     		ldr	r3, [r3, #12]
 631              		.loc 1 1531 9 view .LVU140
 632 0018 13F0100F 		tst	r3, #16
 633 001c 05D0     		beq	.L65
1532:STM32F10x_StdPeriph_Driver/src/stm32f10x_flash.c ****       {
1533:STM32F10x_StdPeriph_Driver/src/stm32f10x_flash.c ****         flashstatus = FLASH_ERROR_WRP;
 634              		.loc 1 1533 21 view .LVU141
 635 001e 0320     		movs	r0, #3
 636 0020 7047     		bx	lr
 637              	.L63:
1521:STM32F10x_StdPeriph_Driver/src/stm32f10x_flash.c ****   }
 638              		.loc 1 1521 17 view .LVU142
 639 0022 0120     		movs	r0, #1
 640 0024 7047     		bx	lr
 641              	.L64:
1527:STM32F10x_StdPeriph_Driver/src/stm32f10x_flash.c ****     }
 642              		.loc 1 1527 19 view .LVU143
 643 0026 0220     		movs	r0, #2
 644 0028 7047     		bx	lr
 645              	.L65:
1534:STM32F10x_StdPeriph_Driver/src/stm32f10x_flash.c ****       }
1535:STM32F10x_StdPeriph_Driver/src/stm32f10x_flash.c ****       else
1536:STM32F10x_StdPeriph_Driver/src/stm32f10x_flash.c ****       {
1537:STM32F10x_StdPeriph_Driver/src/stm32f10x_flash.c ****         flashstatus = FLASH_COMPLETE;
 646              		.loc 1 1537 21 view .LVU144
 647 002a 0420     		movs	r0, #4
 648              	.LVL21:
1538:STM32F10x_StdPeriph_Driver/src/stm32f10x_flash.c ****       }
1539:STM32F10x_StdPeriph_Driver/src/stm32f10x_flash.c ****     }
1540:STM32F10x_StdPeriph_Driver/src/stm32f10x_flash.c ****   }
ARM GAS  C:\Users\kevin\AppData\Local\Temp\ccopMTuX.s 			page 39


1541:STM32F10x_StdPeriph_Driver/src/stm32f10x_flash.c ****   /* Return the Flash Status */
1542:STM32F10x_StdPeriph_Driver/src/stm32f10x_flash.c ****   return flashstatus;
 649              		.loc 1 1542 3 is_stmt 1 view .LVU145
1543:STM32F10x_StdPeriph_Driver/src/stm32f10x_flash.c **** }
 650              		.loc 1 1543 1 is_stmt 0 view .LVU146
 651 002c 7047     		bx	lr
 652              	.L67:
 653 002e 00BF     		.align	2
 654              	.L66:
 655 0030 00200240 		.word	1073881088
 656              		.cfi_endproc
 657              	.LFE54:
 659              		.section	.text.FLASH_WaitForLastOperation,"ax",%progbits
 660              		.align	1
 661              		.global	FLASH_WaitForLastOperation
 662              		.syntax unified
 663              		.thumb
 664              		.thumb_func
 666              	FLASH_WaitForLastOperation:
 667              	.LVL22:
 668              	.LFB55:
1544:STM32F10x_StdPeriph_Driver/src/stm32f10x_flash.c **** 
1545:STM32F10x_StdPeriph_Driver/src/stm32f10x_flash.c **** #ifdef STM32F10X_XL
1546:STM32F10x_StdPeriph_Driver/src/stm32f10x_flash.c **** /**
1547:STM32F10x_StdPeriph_Driver/src/stm32f10x_flash.c ****   * @brief  Returns the FLASH Bank2 Status.
1548:STM32F10x_StdPeriph_Driver/src/stm32f10x_flash.c ****   * @note   This function can be used for STM32F10x_XL density devices.
1549:STM32F10x_StdPeriph_Driver/src/stm32f10x_flash.c ****   * @param  None
1550:STM32F10x_StdPeriph_Driver/src/stm32f10x_flash.c ****   * @retval FLASH Status: The returned value can be: FLASH_BUSY, FLASH_ERROR_PG,
1551:STM32F10x_StdPeriph_Driver/src/stm32f10x_flash.c ****   *        FLASH_ERROR_WRP or FLASH_COMPLETE
1552:STM32F10x_StdPeriph_Driver/src/stm32f10x_flash.c ****   */
1553:STM32F10x_StdPeriph_Driver/src/stm32f10x_flash.c **** FLASH_Status FLASH_GetBank2Status(void)
1554:STM32F10x_StdPeriph_Driver/src/stm32f10x_flash.c **** {
1555:STM32F10x_StdPeriph_Driver/src/stm32f10x_flash.c ****   FLASH_Status flashstatus = FLASH_COMPLETE;
1556:STM32F10x_StdPeriph_Driver/src/stm32f10x_flash.c ****   
1557:STM32F10x_StdPeriph_Driver/src/stm32f10x_flash.c ****   if((FLASH->SR2 & (FLASH_FLAG_BANK2_BSY & 0x7FFFFFFF)) == (FLASH_FLAG_BANK2_BSY & 0x7FFFFFFF)) 
1558:STM32F10x_StdPeriph_Driver/src/stm32f10x_flash.c ****   {
1559:STM32F10x_StdPeriph_Driver/src/stm32f10x_flash.c ****     flashstatus = FLASH_BUSY;
1560:STM32F10x_StdPeriph_Driver/src/stm32f10x_flash.c ****   }
1561:STM32F10x_StdPeriph_Driver/src/stm32f10x_flash.c ****   else 
1562:STM32F10x_StdPeriph_Driver/src/stm32f10x_flash.c ****   {  
1563:STM32F10x_StdPeriph_Driver/src/stm32f10x_flash.c ****     if((FLASH->SR2 & (FLASH_FLAG_BANK2_PGERR & 0x7FFFFFFF)) != 0)
1564:STM32F10x_StdPeriph_Driver/src/stm32f10x_flash.c ****     { 
1565:STM32F10x_StdPeriph_Driver/src/stm32f10x_flash.c ****       flashstatus = FLASH_ERROR_PG;
1566:STM32F10x_StdPeriph_Driver/src/stm32f10x_flash.c ****     }
1567:STM32F10x_StdPeriph_Driver/src/stm32f10x_flash.c ****     else 
1568:STM32F10x_StdPeriph_Driver/src/stm32f10x_flash.c ****     {
1569:STM32F10x_StdPeriph_Driver/src/stm32f10x_flash.c ****       if((FLASH->SR2 & (FLASH_FLAG_BANK2_WRPRTERR & 0x7FFFFFFF)) != 0 )
1570:STM32F10x_StdPeriph_Driver/src/stm32f10x_flash.c ****       {
1571:STM32F10x_StdPeriph_Driver/src/stm32f10x_flash.c ****         flashstatus = FLASH_ERROR_WRP;
1572:STM32F10x_StdPeriph_Driver/src/stm32f10x_flash.c ****       }
1573:STM32F10x_StdPeriph_Driver/src/stm32f10x_flash.c ****       else
1574:STM32F10x_StdPeriph_Driver/src/stm32f10x_flash.c ****       {
1575:STM32F10x_StdPeriph_Driver/src/stm32f10x_flash.c ****         flashstatus = FLASH_COMPLETE;
1576:STM32F10x_StdPeriph_Driver/src/stm32f10x_flash.c ****       }
1577:STM32F10x_StdPeriph_Driver/src/stm32f10x_flash.c ****     }
1578:STM32F10x_StdPeriph_Driver/src/stm32f10x_flash.c ****   }
1579:STM32F10x_StdPeriph_Driver/src/stm32f10x_flash.c ****   /* Return the Flash Status */
ARM GAS  C:\Users\kevin\AppData\Local\Temp\ccopMTuX.s 			page 40


1580:STM32F10x_StdPeriph_Driver/src/stm32f10x_flash.c ****   return flashstatus;
1581:STM32F10x_StdPeriph_Driver/src/stm32f10x_flash.c **** }
1582:STM32F10x_StdPeriph_Driver/src/stm32f10x_flash.c **** #endif /* STM32F10X_XL */
1583:STM32F10x_StdPeriph_Driver/src/stm32f10x_flash.c **** /**
1584:STM32F10x_StdPeriph_Driver/src/stm32f10x_flash.c ****   * @brief  Waits for a Flash operation to complete or a TIMEOUT to occur.
1585:STM32F10x_StdPeriph_Driver/src/stm32f10x_flash.c ****   * @note   This function can be used for all STM32F10x devices, 
1586:STM32F10x_StdPeriph_Driver/src/stm32f10x_flash.c ****   *         it is equivalent to FLASH_WaitForLastBank1Operation.
1587:STM32F10x_StdPeriph_Driver/src/stm32f10x_flash.c ****   *         - For STM32F10X_XL devices this function waits for a Bank1 Flash operation
1588:STM32F10x_StdPeriph_Driver/src/stm32f10x_flash.c ****   *           to complete or a TIMEOUT to occur.
1589:STM32F10x_StdPeriph_Driver/src/stm32f10x_flash.c ****   *         - For all other devices it waits for a Flash operation to complete 
1590:STM32F10x_StdPeriph_Driver/src/stm32f10x_flash.c ****   *           or a TIMEOUT to occur.
1591:STM32F10x_StdPeriph_Driver/src/stm32f10x_flash.c ****   * @param  Timeout: FLASH programming Timeout
1592:STM32F10x_StdPeriph_Driver/src/stm32f10x_flash.c ****   * @retval FLASH Status: The returned value can be: FLASH_ERROR_PG,
1593:STM32F10x_StdPeriph_Driver/src/stm32f10x_flash.c ****   *         FLASH_ERROR_WRP, FLASH_COMPLETE or FLASH_TIMEOUT.
1594:STM32F10x_StdPeriph_Driver/src/stm32f10x_flash.c ****   */
1595:STM32F10x_StdPeriph_Driver/src/stm32f10x_flash.c **** FLASH_Status FLASH_WaitForLastOperation(uint32_t Timeout)
1596:STM32F10x_StdPeriph_Driver/src/stm32f10x_flash.c **** { 
 669              		.loc 1 1596 1 is_stmt 1 view -0
 670              		.cfi_startproc
 671              		@ args = 0, pretend = 0, frame = 0
 672              		@ frame_needed = 0, uses_anonymous_args = 0
 673              		.loc 1 1596 1 is_stmt 0 view .LVU148
 674 0000 10B5     		push	{r4, lr}
 675              	.LCFI0:
 676              		.cfi_def_cfa_offset 8
 677              		.cfi_offset 4, -8
 678              		.cfi_offset 14, -4
 679 0002 0446     		mov	r4, r0
1597:STM32F10x_StdPeriph_Driver/src/stm32f10x_flash.c ****   FLASH_Status status = FLASH_COMPLETE;
 680              		.loc 1 1597 3 is_stmt 1 view .LVU149
 681              	.LVL23:
1598:STM32F10x_StdPeriph_Driver/src/stm32f10x_flash.c ****    
1599:STM32F10x_StdPeriph_Driver/src/stm32f10x_flash.c ****   /* Check for the Flash Status */
1600:STM32F10x_StdPeriph_Driver/src/stm32f10x_flash.c ****   status = FLASH_GetBank1Status();
 682              		.loc 1 1600 3 view .LVU150
 683              		.loc 1 1600 12 is_stmt 0 view .LVU151
 684 0004 FFF7FEFF 		bl	FLASH_GetBank1Status
 685              	.LVL24:
1601:STM32F10x_StdPeriph_Driver/src/stm32f10x_flash.c ****   /* Wait for a Flash operation to complete or a TIMEOUT to occur */
1602:STM32F10x_StdPeriph_Driver/src/stm32f10x_flash.c ****   while((status == FLASH_BUSY) && (Timeout != 0x00))
 686              		.loc 1 1602 3 is_stmt 1 view .LVU152
 687              		.loc 1 1602 8 is_stmt 0 view .LVU153
 688 0008 02E0     		b	.L69
 689              	.L71:
1603:STM32F10x_StdPeriph_Driver/src/stm32f10x_flash.c ****   {
1604:STM32F10x_StdPeriph_Driver/src/stm32f10x_flash.c ****     status = FLASH_GetBank1Status();
 690              		.loc 1 1604 5 is_stmt 1 view .LVU154
 691              		.loc 1 1604 14 is_stmt 0 view .LVU155
 692 000a FFF7FEFF 		bl	FLASH_GetBank1Status
 693              	.LVL25:
1605:STM32F10x_StdPeriph_Driver/src/stm32f10x_flash.c ****     Timeout--;
 694              		.loc 1 1605 5 is_stmt 1 view .LVU156
 695              		.loc 1 1605 12 is_stmt 0 view .LVU157
 696 000e 013C     		subs	r4, r4, #1
 697              	.LVL26:
 698              	.L69:
1602:STM32F10x_StdPeriph_Driver/src/stm32f10x_flash.c ****   {
ARM GAS  C:\Users\kevin\AppData\Local\Temp\ccopMTuX.s 			page 41


 699              		.loc 1 1602 32 is_stmt 1 view .LVU158
 700 0010 0128     		cmp	r0, #1
 701 0012 01D1     		bne	.L70
1602:STM32F10x_StdPeriph_Driver/src/stm32f10x_flash.c ****   {
 702              		.loc 1 1602 32 is_stmt 0 discriminator 1 view .LVU159
 703 0014 002C     		cmp	r4, #0
 704 0016 F8D1     		bne	.L71
 705              	.L70:
1606:STM32F10x_StdPeriph_Driver/src/stm32f10x_flash.c ****   }
1607:STM32F10x_StdPeriph_Driver/src/stm32f10x_flash.c ****   if(Timeout == 0x00 )
 706              		.loc 1 1607 3 is_stmt 1 view .LVU160
 707              		.loc 1 1607 5 is_stmt 0 view .LVU161
 708 0018 04B1     		cbz	r4, .L75
 709              	.LVL27:
 710              	.L72:
1608:STM32F10x_StdPeriph_Driver/src/stm32f10x_flash.c ****   {
1609:STM32F10x_StdPeriph_Driver/src/stm32f10x_flash.c ****     status = FLASH_TIMEOUT;
1610:STM32F10x_StdPeriph_Driver/src/stm32f10x_flash.c ****   }
1611:STM32F10x_StdPeriph_Driver/src/stm32f10x_flash.c ****   /* Return the operation status */
1612:STM32F10x_StdPeriph_Driver/src/stm32f10x_flash.c ****   return status;
 711              		.loc 1 1612 3 is_stmt 1 view .LVU162
1613:STM32F10x_StdPeriph_Driver/src/stm32f10x_flash.c **** }
 712              		.loc 1 1613 1 is_stmt 0 view .LVU163
 713 001a 10BD     		pop	{r4, pc}
 714              	.LVL28:
 715              	.L75:
1609:STM32F10x_StdPeriph_Driver/src/stm32f10x_flash.c ****   }
 716              		.loc 1 1609 12 view .LVU164
 717 001c 0520     		movs	r0, #5
 718              	.LVL29:
1609:STM32F10x_StdPeriph_Driver/src/stm32f10x_flash.c ****   }
 719              		.loc 1 1609 12 view .LVU165
 720 001e FCE7     		b	.L72
 721              		.cfi_endproc
 722              	.LFE55:
 724              		.section	.text.FLASH_ErasePage,"ax",%progbits
 725              		.align	1
 726              		.global	FLASH_ErasePage
 727              		.syntax unified
 728              		.thumb
 729              		.thumb_func
 731              	FLASH_ErasePage:
 732              	.LVL30:
 733              	.LFB36:
 420:STM32F10x_StdPeriph_Driver/src/stm32f10x_flash.c ****   FLASH_Status status = FLASH_COMPLETE;
 734              		.loc 1 420 1 is_stmt 1 view -0
 735              		.cfi_startproc
 736              		@ args = 0, pretend = 0, frame = 0
 737              		@ frame_needed = 0, uses_anonymous_args = 0
 420:STM32F10x_StdPeriph_Driver/src/stm32f10x_flash.c ****   FLASH_Status status = FLASH_COMPLETE;
 738              		.loc 1 420 1 is_stmt 0 view .LVU167
 739 0000 38B5     		push	{r3, r4, r5, lr}
 740              	.LCFI1:
 741              		.cfi_def_cfa_offset 16
 742              		.cfi_offset 3, -16
 743              		.cfi_offset 4, -12
 744              		.cfi_offset 5, -8
ARM GAS  C:\Users\kevin\AppData\Local\Temp\ccopMTuX.s 			page 42


 745              		.cfi_offset 14, -4
 746 0002 0446     		mov	r4, r0
 421:STM32F10x_StdPeriph_Driver/src/stm32f10x_flash.c ****   /* Check the parameters */
 747              		.loc 1 421 3 is_stmt 1 view .LVU168
 748              	.LVL31:
 423:STM32F10x_StdPeriph_Driver/src/stm32f10x_flash.c **** 
 749              		.loc 1 423 3 view .LVU169
 464:STM32F10x_StdPeriph_Driver/src/stm32f10x_flash.c ****   
 750              		.loc 1 464 3 view .LVU170
 464:STM32F10x_StdPeriph_Driver/src/stm32f10x_flash.c ****   
 751              		.loc 1 464 12 is_stmt 0 view .LVU171
 752 0004 4FF43020 		mov	r0, #720896
 753              	.LVL32:
 464:STM32F10x_StdPeriph_Driver/src/stm32f10x_flash.c ****   
 754              		.loc 1 464 12 view .LVU172
 755 0008 FFF7FEFF 		bl	FLASH_WaitForLastOperation
 756              	.LVL33:
 466:STM32F10x_StdPeriph_Driver/src/stm32f10x_flash.c ****   { 
 757              		.loc 1 466 3 is_stmt 1 view .LVU173
 466:STM32F10x_StdPeriph_Driver/src/stm32f10x_flash.c ****   { 
 758              		.loc 1 466 5 is_stmt 0 view .LVU174
 759 000c 0428     		cmp	r0, #4
 760 000e 00D0     		beq	.L79
 761              	.L77:
 482:STM32F10x_StdPeriph_Driver/src/stm32f10x_flash.c **** }
 762              		.loc 1 482 3 is_stmt 1 view .LVU175
 483:STM32F10x_StdPeriph_Driver/src/stm32f10x_flash.c **** 
 763              		.loc 1 483 1 is_stmt 0 view .LVU176
 764 0010 38BD     		pop	{r3, r4, r5, pc}
 765              	.LVL34:
 766              	.L79:
 469:STM32F10x_StdPeriph_Driver/src/stm32f10x_flash.c ****     FLASH->AR = Page_Address; 
 767              		.loc 1 469 5 is_stmt 1 view .LVU177
 469:STM32F10x_StdPeriph_Driver/src/stm32f10x_flash.c ****     FLASH->AR = Page_Address; 
 768              		.loc 1 469 10 is_stmt 0 view .LVU178
 769 0012 0A4D     		ldr	r5, .L80
 770 0014 2B69     		ldr	r3, [r5, #16]
 469:STM32F10x_StdPeriph_Driver/src/stm32f10x_flash.c ****     FLASH->AR = Page_Address; 
 771              		.loc 1 469 14 view .LVU179
 772 0016 43F00203 		orr	r3, r3, #2
 773 001a 2B61     		str	r3, [r5, #16]
 470:STM32F10x_StdPeriph_Driver/src/stm32f10x_flash.c ****     FLASH->CR|= CR_STRT_Set;
 774              		.loc 1 470 5 is_stmt 1 view .LVU180
 470:STM32F10x_StdPeriph_Driver/src/stm32f10x_flash.c ****     FLASH->CR|= CR_STRT_Set;
 775              		.loc 1 470 15 is_stmt 0 view .LVU181
 776 001c 6C61     		str	r4, [r5, #20]
 471:STM32F10x_StdPeriph_Driver/src/stm32f10x_flash.c ****     
 777              		.loc 1 471 5 is_stmt 1 view .LVU182
 471:STM32F10x_StdPeriph_Driver/src/stm32f10x_flash.c ****     
 778              		.loc 1 471 10 is_stmt 0 view .LVU183
 779 001e 2B69     		ldr	r3, [r5, #16]
 471:STM32F10x_StdPeriph_Driver/src/stm32f10x_flash.c ****     
 780              		.loc 1 471 14 view .LVU184
 781 0020 43F04003 		orr	r3, r3, #64
 782 0024 2B61     		str	r3, [r5, #16]
 474:STM32F10x_StdPeriph_Driver/src/stm32f10x_flash.c ****     
 783              		.loc 1 474 5 is_stmt 1 view .LVU185
ARM GAS  C:\Users\kevin\AppData\Local\Temp\ccopMTuX.s 			page 43


 474:STM32F10x_StdPeriph_Driver/src/stm32f10x_flash.c ****     
 784              		.loc 1 474 14 is_stmt 0 view .LVU186
 785 0026 4FF43020 		mov	r0, #720896
 786              	.LVL35:
 474:STM32F10x_StdPeriph_Driver/src/stm32f10x_flash.c ****     
 787              		.loc 1 474 14 view .LVU187
 788 002a FFF7FEFF 		bl	FLASH_WaitForLastOperation
 789              	.LVL36:
 477:STM32F10x_StdPeriph_Driver/src/stm32f10x_flash.c ****   }
 790              		.loc 1 477 5 is_stmt 1 view .LVU188
 477:STM32F10x_StdPeriph_Driver/src/stm32f10x_flash.c ****   }
 791              		.loc 1 477 10 is_stmt 0 view .LVU189
 792 002e 2B69     		ldr	r3, [r5, #16]
 477:STM32F10x_StdPeriph_Driver/src/stm32f10x_flash.c ****   }
 793              		.loc 1 477 15 view .LVU190
 794 0030 23F00203 		bic	r3, r3, #2
 795 0034 DB04     		lsls	r3, r3, #19
 796 0036 DB0C     		lsrs	r3, r3, #19
 797 0038 2B61     		str	r3, [r5, #16]
 798 003a E9E7     		b	.L77
 799              	.L81:
 800              		.align	2
 801              	.L80:
 802 003c 00200240 		.word	1073881088
 803              		.cfi_endproc
 804              	.LFE36:
 806              		.section	.text.FLASH_EraseAllPages,"ax",%progbits
 807              		.align	1
 808              		.global	FLASH_EraseAllPages
 809              		.syntax unified
 810              		.thumb
 811              		.thumb_func
 813              	FLASH_EraseAllPages:
 814              	.LFB37:
 493:STM32F10x_StdPeriph_Driver/src/stm32f10x_flash.c ****   FLASH_Status status = FLASH_COMPLETE;
 815              		.loc 1 493 1 is_stmt 1 view -0
 816              		.cfi_startproc
 817              		@ args = 0, pretend = 0, frame = 0
 818              		@ frame_needed = 0, uses_anonymous_args = 0
 819 0000 10B5     		push	{r4, lr}
 820              	.LCFI2:
 821              		.cfi_def_cfa_offset 8
 822              		.cfi_offset 4, -8
 823              		.cfi_offset 14, -4
 494:STM32F10x_StdPeriph_Driver/src/stm32f10x_flash.c **** 
 824              		.loc 1 494 3 view .LVU192
 825              	.LVL37:
 526:STM32F10x_StdPeriph_Driver/src/stm32f10x_flash.c ****   if(status == FLASH_COMPLETE)
 826              		.loc 1 526 3 view .LVU193
 526:STM32F10x_StdPeriph_Driver/src/stm32f10x_flash.c ****   if(status == FLASH_COMPLETE)
 827              		.loc 1 526 12 is_stmt 0 view .LVU194
 828 0002 4FF43020 		mov	r0, #720896
 829 0006 FFF7FEFF 		bl	FLASH_WaitForLastOperation
 830              	.LVL38:
 527:STM32F10x_StdPeriph_Driver/src/stm32f10x_flash.c ****   {
 831              		.loc 1 527 3 is_stmt 1 view .LVU195
 527:STM32F10x_StdPeriph_Driver/src/stm32f10x_flash.c ****   {
ARM GAS  C:\Users\kevin\AppData\Local\Temp\ccopMTuX.s 			page 44


 832              		.loc 1 527 5 is_stmt 0 view .LVU196
 833 000a 0428     		cmp	r0, #4
 834 000c 00D0     		beq	.L85
 835              	.L83:
 542:STM32F10x_StdPeriph_Driver/src/stm32f10x_flash.c **** }
 836              		.loc 1 542 3 is_stmt 1 view .LVU197
 543:STM32F10x_StdPeriph_Driver/src/stm32f10x_flash.c **** 
 837              		.loc 1 543 1 is_stmt 0 view .LVU198
 838 000e 10BD     		pop	{r4, pc}
 839              	.L85:
 530:STM32F10x_StdPeriph_Driver/src/stm32f10x_flash.c ****      FLASH->CR |= CR_STRT_Set;
 840              		.loc 1 530 6 is_stmt 1 view .LVU199
 530:STM32F10x_StdPeriph_Driver/src/stm32f10x_flash.c ****      FLASH->CR |= CR_STRT_Set;
 841              		.loc 1 530 11 is_stmt 0 view .LVU200
 842 0010 094C     		ldr	r4, .L86
 843 0012 2369     		ldr	r3, [r4, #16]
 530:STM32F10x_StdPeriph_Driver/src/stm32f10x_flash.c ****      FLASH->CR |= CR_STRT_Set;
 844              		.loc 1 530 16 view .LVU201
 845 0014 43F00403 		orr	r3, r3, #4
 846 0018 2361     		str	r3, [r4, #16]
 531:STM32F10x_StdPeriph_Driver/src/stm32f10x_flash.c ****     
 847              		.loc 1 531 6 is_stmt 1 view .LVU202
 531:STM32F10x_StdPeriph_Driver/src/stm32f10x_flash.c ****     
 848              		.loc 1 531 11 is_stmt 0 view .LVU203
 849 001a 2369     		ldr	r3, [r4, #16]
 531:STM32F10x_StdPeriph_Driver/src/stm32f10x_flash.c ****     
 850              		.loc 1 531 16 view .LVU204
 851 001c 43F04003 		orr	r3, r3, #64
 852 0020 2361     		str	r3, [r4, #16]
 534:STM32F10x_StdPeriph_Driver/src/stm32f10x_flash.c **** 
 853              		.loc 1 534 5 is_stmt 1 view .LVU205
 534:STM32F10x_StdPeriph_Driver/src/stm32f10x_flash.c **** 
 854              		.loc 1 534 14 is_stmt 0 view .LVU206
 855 0022 4FF43020 		mov	r0, #720896
 856              	.LVL39:
 534:STM32F10x_StdPeriph_Driver/src/stm32f10x_flash.c **** 
 857              		.loc 1 534 14 view .LVU207
 858 0026 FFF7FEFF 		bl	FLASH_WaitForLastOperation
 859              	.LVL40:
 537:STM32F10x_StdPeriph_Driver/src/stm32f10x_flash.c ****   }
 860              		.loc 1 537 5 is_stmt 1 view .LVU208
 537:STM32F10x_StdPeriph_Driver/src/stm32f10x_flash.c ****   }
 861              		.loc 1 537 10 is_stmt 0 view .LVU209
 862 002a 2369     		ldr	r3, [r4, #16]
 537:STM32F10x_StdPeriph_Driver/src/stm32f10x_flash.c ****   }
 863              		.loc 1 537 15 view .LVU210
 864 002c 23F00403 		bic	r3, r3, #4
 865 0030 DB04     		lsls	r3, r3, #19
 866 0032 DB0C     		lsrs	r3, r3, #19
 867 0034 2361     		str	r3, [r4, #16]
 868 0036 EAE7     		b	.L83
 869              	.L87:
 870              		.align	2
 871              	.L86:
 872 0038 00200240 		.word	1073881088
 873              		.cfi_endproc
 874              	.LFE37:
ARM GAS  C:\Users\kevin\AppData\Local\Temp\ccopMTuX.s 			page 45


 876              		.section	.text.FLASH_EraseOptionBytes,"ax",%progbits
 877              		.align	1
 878              		.global	FLASH_EraseOptionBytes
 879              		.syntax unified
 880              		.thumb
 881              		.thumb_func
 883              	FLASH_EraseOptionBytes:
 884              	.LFB39:
 617:STM32F10x_StdPeriph_Driver/src/stm32f10x_flash.c ****   uint16_t rdptmp = RDP_Key;
 885              		.loc 1 617 1 is_stmt 1 view -0
 886              		.cfi_startproc
 887              		@ args = 0, pretend = 0, frame = 0
 888              		@ frame_needed = 0, uses_anonymous_args = 0
 889 0000 10B5     		push	{r4, lr}
 890              	.LCFI3:
 891              		.cfi_def_cfa_offset 8
 892              		.cfi_offset 4, -8
 893              		.cfi_offset 14, -4
 618:STM32F10x_StdPeriph_Driver/src/stm32f10x_flash.c **** 
 894              		.loc 1 618 3 view .LVU212
 895              	.LVL41:
 620:STM32F10x_StdPeriph_Driver/src/stm32f10x_flash.c **** 
 896              		.loc 1 620 3 view .LVU213
 623:STM32F10x_StdPeriph_Driver/src/stm32f10x_flash.c ****   {
 897              		.loc 1 623 3 view .LVU214
 623:STM32F10x_StdPeriph_Driver/src/stm32f10x_flash.c ****   {
 898              		.loc 1 623 6 is_stmt 0 view .LVU215
 899 0002 FFF7FEFF 		bl	FLASH_GetReadOutProtectionStatus
 900              	.LVL42:
 623:STM32F10x_StdPeriph_Driver/src/stm32f10x_flash.c ****   {
 901              		.loc 1 623 5 discriminator 1 view .LVU216
 902 0006 38B9     		cbnz	r0, .L92
 618:STM32F10x_StdPeriph_Driver/src/stm32f10x_flash.c **** 
 903              		.loc 1 618 12 view .LVU217
 904 0008 A524     		movs	r4, #165
 905              	.L89:
 906              	.LVL43:
 629:STM32F10x_StdPeriph_Driver/src/stm32f10x_flash.c ****   if(status == FLASH_COMPLETE)
 907              		.loc 1 629 3 is_stmt 1 view .LVU218
 629:STM32F10x_StdPeriph_Driver/src/stm32f10x_flash.c ****   if(status == FLASH_COMPLETE)
 908              		.loc 1 629 12 is_stmt 0 view .LVU219
 909 000a 4FF43020 		mov	r0, #720896
 910 000e FFF7FEFF 		bl	FLASH_WaitForLastOperation
 911              	.LVL44:
 630:STM32F10x_StdPeriph_Driver/src/stm32f10x_flash.c ****   {
 912              		.loc 1 630 3 is_stmt 1 view .LVU220
 630:STM32F10x_StdPeriph_Driver/src/stm32f10x_flash.c ****   {
 913              		.loc 1 630 5 is_stmt 0 view .LVU221
 914 0012 0428     		cmp	r0, #4
 915 0014 02D0     		beq	.L94
 916              	.L90:
 670:STM32F10x_StdPeriph_Driver/src/stm32f10x_flash.c **** }
 917              		.loc 1 670 3 is_stmt 1 view .LVU222
 671:STM32F10x_StdPeriph_Driver/src/stm32f10x_flash.c **** 
 918              		.loc 1 671 1 is_stmt 0 view .LVU223
 919 0016 10BD     		pop	{r4, pc}
 920              	.LVL45:
ARM GAS  C:\Users\kevin\AppData\Local\Temp\ccopMTuX.s 			page 46


 921              	.L92:
 625:STM32F10x_StdPeriph_Driver/src/stm32f10x_flash.c ****   }
 922              		.loc 1 625 12 view .LVU224
 923 0018 0024     		movs	r4, #0
 924 001a F6E7     		b	.L89
 925              	.LVL46:
 926              	.L94:
 633:STM32F10x_StdPeriph_Driver/src/stm32f10x_flash.c ****     FLASH->OPTKEYR = FLASH_KEY2;
 927              		.loc 1 633 5 is_stmt 1 view .LVU225
 633:STM32F10x_StdPeriph_Driver/src/stm32f10x_flash.c ****     FLASH->OPTKEYR = FLASH_KEY2;
 928              		.loc 1 633 20 is_stmt 0 view .LVU226
 929 001c 1C4B     		ldr	r3, .L96
 930 001e 1D4A     		ldr	r2, .L96+4
 931 0020 9A60     		str	r2, [r3, #8]
 634:STM32F10x_StdPeriph_Driver/src/stm32f10x_flash.c ****     
 932              		.loc 1 634 5 is_stmt 1 view .LVU227
 634:STM32F10x_StdPeriph_Driver/src/stm32f10x_flash.c ****     
 933              		.loc 1 634 20 is_stmt 0 view .LVU228
 934 0022 02F18832 		add	r2, r2, #-2004318072
 935 0026 9A60     		str	r2, [r3, #8]
 637:STM32F10x_StdPeriph_Driver/src/stm32f10x_flash.c ****     FLASH->CR |= CR_STRT_Set;
 936              		.loc 1 637 5 is_stmt 1 view .LVU229
 637:STM32F10x_StdPeriph_Driver/src/stm32f10x_flash.c ****     FLASH->CR |= CR_STRT_Set;
 937              		.loc 1 637 10 is_stmt 0 view .LVU230
 938 0028 1A69     		ldr	r2, [r3, #16]
 637:STM32F10x_StdPeriph_Driver/src/stm32f10x_flash.c ****     FLASH->CR |= CR_STRT_Set;
 939              		.loc 1 637 15 view .LVU231
 940 002a 42F02002 		orr	r2, r2, #32
 941 002e 1A61     		str	r2, [r3, #16]
 638:STM32F10x_StdPeriph_Driver/src/stm32f10x_flash.c ****     /* Wait for last operation to be completed */
 942              		.loc 1 638 5 is_stmt 1 view .LVU232
 638:STM32F10x_StdPeriph_Driver/src/stm32f10x_flash.c ****     /* Wait for last operation to be completed */
 943              		.loc 1 638 10 is_stmt 0 view .LVU233
 944 0030 1A69     		ldr	r2, [r3, #16]
 638:STM32F10x_StdPeriph_Driver/src/stm32f10x_flash.c ****     /* Wait for last operation to be completed */
 945              		.loc 1 638 15 view .LVU234
 946 0032 42F04002 		orr	r2, r2, #64
 947 0036 1A61     		str	r2, [r3, #16]
 640:STM32F10x_StdPeriph_Driver/src/stm32f10x_flash.c ****     
 948              		.loc 1 640 5 is_stmt 1 view .LVU235
 640:STM32F10x_StdPeriph_Driver/src/stm32f10x_flash.c ****     
 949              		.loc 1 640 14 is_stmt 0 view .LVU236
 950 0038 4FF43020 		mov	r0, #720896
 951              	.LVL47:
 640:STM32F10x_StdPeriph_Driver/src/stm32f10x_flash.c ****     
 952              		.loc 1 640 14 view .LVU237
 953 003c FFF7FEFF 		bl	FLASH_WaitForLastOperation
 954              	.LVL48:
 642:STM32F10x_StdPeriph_Driver/src/stm32f10x_flash.c ****     {
 955              		.loc 1 642 5 is_stmt 1 view .LVU238
 642:STM32F10x_StdPeriph_Driver/src/stm32f10x_flash.c ****     {
 956              		.loc 1 642 7 is_stmt 0 view .LVU239
 957 0040 0428     		cmp	r0, #4
 958 0042 09D0     		beq	.L95
 662:STM32F10x_StdPeriph_Driver/src/stm32f10x_flash.c ****       {
 959              		.loc 1 662 7 is_stmt 1 view .LVU240
 662:STM32F10x_StdPeriph_Driver/src/stm32f10x_flash.c ****       {
ARM GAS  C:\Users\kevin\AppData\Local\Temp\ccopMTuX.s 			page 47


 960              		.loc 1 662 10 is_stmt 0 view .LVU241
 961 0044 0528     		cmp	r0, #5
 962 0046 E6D0     		beq	.L90
 665:STM32F10x_StdPeriph_Driver/src/stm32f10x_flash.c ****       }
 963              		.loc 1 665 9 is_stmt 1 view .LVU242
 665:STM32F10x_StdPeriph_Driver/src/stm32f10x_flash.c ****       }
 964              		.loc 1 665 14 is_stmt 0 view .LVU243
 965 0048 114A     		ldr	r2, .L96
 966 004a 1369     		ldr	r3, [r2, #16]
 665:STM32F10x_StdPeriph_Driver/src/stm32f10x_flash.c ****       }
 967              		.loc 1 665 19 view .LVU244
 968 004c 23F01003 		bic	r3, r3, #16
 969 0050 DB04     		lsls	r3, r3, #19
 970 0052 DB0C     		lsrs	r3, r3, #19
 971 0054 1361     		str	r3, [r2, #16]
 972 0056 DEE7     		b	.L90
 973              	.L95:
 645:STM32F10x_StdPeriph_Driver/src/stm32f10x_flash.c ****        
 974              		.loc 1 645 7 is_stmt 1 view .LVU245
 645:STM32F10x_StdPeriph_Driver/src/stm32f10x_flash.c ****        
 975              		.loc 1 645 12 is_stmt 0 view .LVU246
 976 0058 0D4B     		ldr	r3, .L96
 977 005a 1A69     		ldr	r2, [r3, #16]
 645:STM32F10x_StdPeriph_Driver/src/stm32f10x_flash.c ****        
 978              		.loc 1 645 17 view .LVU247
 979 005c 22F02002 		bic	r2, r2, #32
 980 0060 D204     		lsls	r2, r2, #19
 981 0062 D20C     		lsrs	r2, r2, #19
 982 0064 1A61     		str	r2, [r3, #16]
 648:STM32F10x_StdPeriph_Driver/src/stm32f10x_flash.c ****       /* Restore the last read protection Option Byte value */
 983              		.loc 1 648 7 is_stmt 1 view .LVU248
 648:STM32F10x_StdPeriph_Driver/src/stm32f10x_flash.c ****       /* Restore the last read protection Option Byte value */
 984              		.loc 1 648 12 is_stmt 0 view .LVU249
 985 0066 1A69     		ldr	r2, [r3, #16]
 648:STM32F10x_StdPeriph_Driver/src/stm32f10x_flash.c ****       /* Restore the last read protection Option Byte value */
 986              		.loc 1 648 17 view .LVU250
 987 0068 42F01002 		orr	r2, r2, #16
 988 006c 1A61     		str	r2, [r3, #16]
 650:STM32F10x_StdPeriph_Driver/src/stm32f10x_flash.c ****       /* Wait for last operation to be completed */
 989              		.loc 1 650 7 is_stmt 1 view .LVU251
 650:STM32F10x_StdPeriph_Driver/src/stm32f10x_flash.c ****       /* Wait for last operation to be completed */
 990              		.loc 1 650 15 is_stmt 0 view .LVU252
 991 006e 0A4B     		ldr	r3, .L96+8
 992 0070 1C80     		strh	r4, [r3]	@ movhi
 652:STM32F10x_StdPeriph_Driver/src/stm32f10x_flash.c ****  
 993              		.loc 1 652 7 is_stmt 1 view .LVU253
 652:STM32F10x_StdPeriph_Driver/src/stm32f10x_flash.c ****  
 994              		.loc 1 652 16 is_stmt 0 view .LVU254
 995 0072 4FF40050 		mov	r0, #8192
 996              	.LVL49:
 652:STM32F10x_StdPeriph_Driver/src/stm32f10x_flash.c ****  
 997              		.loc 1 652 16 view .LVU255
 998 0076 FFF7FEFF 		bl	FLASH_WaitForLastOperation
 999              	.LVL50:
 654:STM32F10x_StdPeriph_Driver/src/stm32f10x_flash.c ****       {
 1000              		.loc 1 654 7 is_stmt 1 view .LVU256
 654:STM32F10x_StdPeriph_Driver/src/stm32f10x_flash.c ****       {
ARM GAS  C:\Users\kevin\AppData\Local\Temp\ccopMTuX.s 			page 48


 1001              		.loc 1 654 9 is_stmt 0 view .LVU257
 1002 007a 0528     		cmp	r0, #5
 1003 007c CBD0     		beq	.L90
 657:STM32F10x_StdPeriph_Driver/src/stm32f10x_flash.c ****       }
 1004              		.loc 1 657 9 is_stmt 1 view .LVU258
 657:STM32F10x_StdPeriph_Driver/src/stm32f10x_flash.c ****       }
 1005              		.loc 1 657 14 is_stmt 0 view .LVU259
 1006 007e 044A     		ldr	r2, .L96
 1007 0080 1369     		ldr	r3, [r2, #16]
 657:STM32F10x_StdPeriph_Driver/src/stm32f10x_flash.c ****       }
 1008              		.loc 1 657 19 view .LVU260
 1009 0082 23F01003 		bic	r3, r3, #16
 1010 0086 DB04     		lsls	r3, r3, #19
 1011 0088 DB0C     		lsrs	r3, r3, #19
 1012 008a 1361     		str	r3, [r2, #16]
 1013 008c C3E7     		b	.L90
 1014              	.L97:
 1015 008e 00BF     		.align	2
 1016              	.L96:
 1017 0090 00200240 		.word	1073881088
 1018 0094 23016745 		.word	1164378403
 1019 0098 00F8FF1F 		.word	536868864
 1020              		.cfi_endproc
 1021              	.LFE39:
 1023              		.section	.text.FLASH_ProgramWord,"ax",%progbits
 1024              		.align	1
 1025              		.global	FLASH_ProgramWord
 1026              		.syntax unified
 1027              		.thumb
 1028              		.thumb_func
 1030              	FLASH_ProgramWord:
 1031              	.LVL51:
 1032              	.LFB40:
 682:STM32F10x_StdPeriph_Driver/src/stm32f10x_flash.c ****   FLASH_Status status = FLASH_COMPLETE;
 1033              		.loc 1 682 1 is_stmt 1 view -0
 1034              		.cfi_startproc
 1035              		@ args = 0, pretend = 0, frame = 8
 1036              		@ frame_needed = 0, uses_anonymous_args = 0
 682:STM32F10x_StdPeriph_Driver/src/stm32f10x_flash.c ****   FLASH_Status status = FLASH_COMPLETE;
 1037              		.loc 1 682 1 is_stmt 0 view .LVU262
 1038 0000 30B5     		push	{r4, r5, lr}
 1039              	.LCFI4:
 1040              		.cfi_def_cfa_offset 12
 1041              		.cfi_offset 4, -12
 1042              		.cfi_offset 5, -8
 1043              		.cfi_offset 14, -4
 1044 0002 83B0     		sub	sp, sp, #12
 1045              	.LCFI5:
 1046              		.cfi_def_cfa_offset 24
 1047 0004 0546     		mov	r5, r0
 1048 0006 0C46     		mov	r4, r1
 683:STM32F10x_StdPeriph_Driver/src/stm32f10x_flash.c ****   __IO uint32_t tmp = 0;
 1049              		.loc 1 683 3 is_stmt 1 view .LVU263
 1050              	.LVL52:
 684:STM32F10x_StdPeriph_Driver/src/stm32f10x_flash.c **** 
 1051              		.loc 1 684 3 view .LVU264
 684:STM32F10x_StdPeriph_Driver/src/stm32f10x_flash.c **** 
ARM GAS  C:\Users\kevin\AppData\Local\Temp\ccopMTuX.s 			page 49


 1052              		.loc 1 684 17 is_stmt 0 view .LVU265
 1053 0008 0023     		movs	r3, #0
 1054 000a 0193     		str	r3, [sp, #4]
 687:STM32F10x_StdPeriph_Driver/src/stm32f10x_flash.c **** 
 1055              		.loc 1 687 3 is_stmt 1 view .LVU266
 812:STM32F10x_StdPeriph_Driver/src/stm32f10x_flash.c ****   
 1056              		.loc 1 812 3 view .LVU267
 812:STM32F10x_StdPeriph_Driver/src/stm32f10x_flash.c ****   
 1057              		.loc 1 812 12 is_stmt 0 view .LVU268
 1058 000c 4FF40050 		mov	r0, #8192
 1059              	.LVL53:
 812:STM32F10x_StdPeriph_Driver/src/stm32f10x_flash.c ****   
 1060              		.loc 1 812 12 view .LVU269
 1061 0010 FFF7FEFF 		bl	FLASH_WaitForLastOperation
 1062              	.LVL54:
 814:STM32F10x_StdPeriph_Driver/src/stm32f10x_flash.c ****   {
 1063              		.loc 1 814 3 is_stmt 1 view .LVU270
 814:STM32F10x_StdPeriph_Driver/src/stm32f10x_flash.c ****   {
 1064              		.loc 1 814 5 is_stmt 0 view .LVU271
 1065 0014 0428     		cmp	r0, #4
 1066 0016 01D0     		beq	.L102
 1067              	.LVL55:
 1068              	.L99:
 847:STM32F10x_StdPeriph_Driver/src/stm32f10x_flash.c **** }
 1069              		.loc 1 847 3 is_stmt 1 view .LVU272
 848:STM32F10x_StdPeriph_Driver/src/stm32f10x_flash.c **** 
 1070              		.loc 1 848 1 is_stmt 0 view .LVU273
 1071 0018 03B0     		add	sp, sp, #12
 1072              	.LCFI6:
 1073              		.cfi_remember_state
 1074              		.cfi_def_cfa_offset 12
 1075              		@ sp needed
 1076 001a 30BD     		pop	{r4, r5, pc}
 1077              	.LVL56:
 1078              	.L102:
 1079              	.LCFI7:
 1080              		.cfi_restore_state
 818:STM32F10x_StdPeriph_Driver/src/stm32f10x_flash.c ****   
 1081              		.loc 1 818 5 is_stmt 1 view .LVU274
 818:STM32F10x_StdPeriph_Driver/src/stm32f10x_flash.c ****   
 1082              		.loc 1 818 10 is_stmt 0 view .LVU275
 1083 001c 124A     		ldr	r2, .L104
 1084 001e 1369     		ldr	r3, [r2, #16]
 818:STM32F10x_StdPeriph_Driver/src/stm32f10x_flash.c ****   
 1085              		.loc 1 818 15 view .LVU276
 1086 0020 43F00103 		orr	r3, r3, #1
 1087 0024 1361     		str	r3, [r2, #16]
 820:STM32F10x_StdPeriph_Driver/src/stm32f10x_flash.c ****     /* Wait for last operation to be completed */
 1088              		.loc 1 820 5 is_stmt 1 view .LVU277
 820:STM32F10x_StdPeriph_Driver/src/stm32f10x_flash.c ****     /* Wait for last operation to be completed */
 1089              		.loc 1 820 32 is_stmt 0 view .LVU278
 1090 0026 A3B2     		uxth	r3, r4
 820:STM32F10x_StdPeriph_Driver/src/stm32f10x_flash.c ****     /* Wait for last operation to be completed */
 1091              		.loc 1 820 30 view .LVU279
 1092 0028 2B80     		strh	r3, [r5]	@ movhi
 822:STM32F10x_StdPeriph_Driver/src/stm32f10x_flash.c ****  
 1093              		.loc 1 822 5 is_stmt 1 view .LVU280
ARM GAS  C:\Users\kevin\AppData\Local\Temp\ccopMTuX.s 			page 50


 822:STM32F10x_StdPeriph_Driver/src/stm32f10x_flash.c ****  
 1094              		.loc 1 822 14 is_stmt 0 view .LVU281
 1095 002a 4FF40050 		mov	r0, #8192
 1096              	.LVL57:
 822:STM32F10x_StdPeriph_Driver/src/stm32f10x_flash.c ****  
 1097              		.loc 1 822 14 view .LVU282
 1098 002e FFF7FEFF 		bl	FLASH_WaitForLastOperation
 1099              	.LVL58:
 824:STM32F10x_StdPeriph_Driver/src/stm32f10x_flash.c ****     {
 1100              		.loc 1 824 5 is_stmt 1 view .LVU283
 824:STM32F10x_StdPeriph_Driver/src/stm32f10x_flash.c ****     {
 1101              		.loc 1 824 7 is_stmt 0 view .LVU284
 1102 0032 0428     		cmp	r0, #4
 1103 0034 07D0     		beq	.L103
 841:STM32F10x_StdPeriph_Driver/src/stm32f10x_flash.c ****     }
 1104              		.loc 1 841 7 is_stmt 1 view .LVU285
 841:STM32F10x_StdPeriph_Driver/src/stm32f10x_flash.c ****     }
 1105              		.loc 1 841 12 is_stmt 0 view .LVU286
 1106 0036 0C4A     		ldr	r2, .L104
 1107 0038 1369     		ldr	r3, [r2, #16]
 841:STM32F10x_StdPeriph_Driver/src/stm32f10x_flash.c ****     }
 1108              		.loc 1 841 17 view .LVU287
 1109 003a 23F00103 		bic	r3, r3, #1
 1110 003e DB04     		lsls	r3, r3, #19
 1111 0040 DB0C     		lsrs	r3, r3, #19
 1112 0042 1361     		str	r3, [r2, #16]
 1113 0044 E8E7     		b	.L99
 1114              	.L103:
 828:STM32F10x_StdPeriph_Driver/src/stm32f10x_flash.c **** 
 1115              		.loc 1 828 7 is_stmt 1 view .LVU288
 828:STM32F10x_StdPeriph_Driver/src/stm32f10x_flash.c **** 
 1116              		.loc 1 828 21 is_stmt 0 view .LVU289
 1117 0046 0235     		adds	r5, r5, #2
 1118              	.LVL59:
 828:STM32F10x_StdPeriph_Driver/src/stm32f10x_flash.c **** 
 1119              		.loc 1 828 11 view .LVU290
 1120 0048 0195     		str	r5, [sp, #4]
 830:STM32F10x_StdPeriph_Driver/src/stm32f10x_flash.c ****     
 1121              		.loc 1 830 7 is_stmt 1 view .LVU291
 830:STM32F10x_StdPeriph_Driver/src/stm32f10x_flash.c ****     
 1122              		.loc 1 830 8 is_stmt 0 view .LVU292
 1123 004a 019B     		ldr	r3, [sp, #4]
 830:STM32F10x_StdPeriph_Driver/src/stm32f10x_flash.c ****     
 1124              		.loc 1 830 29 view .LVU293
 1125 004c 210C     		lsrs	r1, r4, #16
 1126 004e 1980     		strh	r1, [r3]	@ movhi
 833:STM32F10x_StdPeriph_Driver/src/stm32f10x_flash.c ****         
 1127              		.loc 1 833 7 is_stmt 1 view .LVU294
 833:STM32F10x_StdPeriph_Driver/src/stm32f10x_flash.c ****         
 1128              		.loc 1 833 16 is_stmt 0 view .LVU295
 1129 0050 4FF40050 		mov	r0, #8192
 1130              	.LVL60:
 833:STM32F10x_StdPeriph_Driver/src/stm32f10x_flash.c ****         
 1131              		.loc 1 833 16 view .LVU296
 1132 0054 FFF7FEFF 		bl	FLASH_WaitForLastOperation
 1133              	.LVL61:
 836:STM32F10x_StdPeriph_Driver/src/stm32f10x_flash.c ****     }
ARM GAS  C:\Users\kevin\AppData\Local\Temp\ccopMTuX.s 			page 51


 1134              		.loc 1 836 7 is_stmt 1 view .LVU297
 836:STM32F10x_StdPeriph_Driver/src/stm32f10x_flash.c ****     }
 1135              		.loc 1 836 12 is_stmt 0 view .LVU298
 1136 0058 034A     		ldr	r2, .L104
 1137 005a 1369     		ldr	r3, [r2, #16]
 836:STM32F10x_StdPeriph_Driver/src/stm32f10x_flash.c ****     }
 1138              		.loc 1 836 17 view .LVU299
 1139 005c 23F00103 		bic	r3, r3, #1
 1140 0060 DB04     		lsls	r3, r3, #19
 1141 0062 DB0C     		lsrs	r3, r3, #19
 1142 0064 1361     		str	r3, [r2, #16]
 1143 0066 D7E7     		b	.L99
 1144              	.L105:
 1145              		.align	2
 1146              	.L104:
 1147 0068 00200240 		.word	1073881088
 1148              		.cfi_endproc
 1149              	.LFE40:
 1151              		.section	.text.FLASH_ProgramHalfWord,"ax",%progbits
 1152              		.align	1
 1153              		.global	FLASH_ProgramHalfWord
 1154              		.syntax unified
 1155              		.thumb
 1156              		.thumb_func
 1158              	FLASH_ProgramHalfWord:
 1159              	.LVL62:
 1160              	.LFB41:
 859:STM32F10x_StdPeriph_Driver/src/stm32f10x_flash.c ****   FLASH_Status status = FLASH_COMPLETE;
 1161              		.loc 1 859 1 is_stmt 1 view -0
 1162              		.cfi_startproc
 1163              		@ args = 0, pretend = 0, frame = 0
 1164              		@ frame_needed = 0, uses_anonymous_args = 0
 859:STM32F10x_StdPeriph_Driver/src/stm32f10x_flash.c ****   FLASH_Status status = FLASH_COMPLETE;
 1165              		.loc 1 859 1 is_stmt 0 view .LVU301
 1166 0000 70B5     		push	{r4, r5, r6, lr}
 1167              	.LCFI8:
 1168              		.cfi_def_cfa_offset 16
 1169              		.cfi_offset 4, -16
 1170              		.cfi_offset 5, -12
 1171              		.cfi_offset 6, -8
 1172              		.cfi_offset 14, -4
 1173 0002 0446     		mov	r4, r0
 1174 0004 0D46     		mov	r5, r1
 860:STM32F10x_StdPeriph_Driver/src/stm32f10x_flash.c ****   /* Check the parameters */
 1175              		.loc 1 860 3 is_stmt 1 view .LVU302
 1176              	.LVL63:
 862:STM32F10x_StdPeriph_Driver/src/stm32f10x_flash.c **** 
 1177              		.loc 1 862 3 view .LVU303
 900:STM32F10x_StdPeriph_Driver/src/stm32f10x_flash.c ****   
 1178              		.loc 1 900 3 view .LVU304
 900:STM32F10x_StdPeriph_Driver/src/stm32f10x_flash.c ****   
 1179              		.loc 1 900 12 is_stmt 0 view .LVU305
 1180 0006 4FF40050 		mov	r0, #8192
 1181              	.LVL64:
 900:STM32F10x_StdPeriph_Driver/src/stm32f10x_flash.c ****   
 1182              		.loc 1 900 12 view .LVU306
 1183 000a FFF7FEFF 		bl	FLASH_WaitForLastOperation
ARM GAS  C:\Users\kevin\AppData\Local\Temp\ccopMTuX.s 			page 52


 1184              	.LVL65:
 902:STM32F10x_StdPeriph_Driver/src/stm32f10x_flash.c ****   {
 1185              		.loc 1 902 3 is_stmt 1 view .LVU307
 902:STM32F10x_StdPeriph_Driver/src/stm32f10x_flash.c ****   {
 1186              		.loc 1 902 5 is_stmt 0 view .LVU308
 1187 000e 0428     		cmp	r0, #4
 1188 0010 00D0     		beq	.L109
 1189              	.L107:
 917:STM32F10x_StdPeriph_Driver/src/stm32f10x_flash.c **** }
 1190              		.loc 1 917 3 is_stmt 1 view .LVU309
 918:STM32F10x_StdPeriph_Driver/src/stm32f10x_flash.c **** 
 1191              		.loc 1 918 1 is_stmt 0 view .LVU310
 1192 0012 70BD     		pop	{r4, r5, r6, pc}
 1193              	.LVL66:
 1194              	.L109:
 905:STM32F10x_StdPeriph_Driver/src/stm32f10x_flash.c ****   
 1195              		.loc 1 905 5 is_stmt 1 view .LVU311
 905:STM32F10x_StdPeriph_Driver/src/stm32f10x_flash.c ****   
 1196              		.loc 1 905 10 is_stmt 0 view .LVU312
 1197 0014 084E     		ldr	r6, .L110
 1198 0016 3369     		ldr	r3, [r6, #16]
 905:STM32F10x_StdPeriph_Driver/src/stm32f10x_flash.c ****   
 1199              		.loc 1 905 15 view .LVU313
 1200 0018 43F00103 		orr	r3, r3, #1
 1201 001c 3361     		str	r3, [r6, #16]
 907:STM32F10x_StdPeriph_Driver/src/stm32f10x_flash.c ****     /* Wait for last operation to be completed */
 1202              		.loc 1 907 5 is_stmt 1 view .LVU314
 907:STM32F10x_StdPeriph_Driver/src/stm32f10x_flash.c ****     /* Wait for last operation to be completed */
 1203              		.loc 1 907 30 is_stmt 0 view .LVU315
 1204 001e 2580     		strh	r5, [r4]	@ movhi
 909:STM32F10x_StdPeriph_Driver/src/stm32f10x_flash.c ****     
 1205              		.loc 1 909 5 is_stmt 1 view .LVU316
 909:STM32F10x_StdPeriph_Driver/src/stm32f10x_flash.c ****     
 1206              		.loc 1 909 14 is_stmt 0 view .LVU317
 1207 0020 4FF40050 		mov	r0, #8192
 1208              	.LVL67:
 909:STM32F10x_StdPeriph_Driver/src/stm32f10x_flash.c ****     
 1209              		.loc 1 909 14 view .LVU318
 1210 0024 FFF7FEFF 		bl	FLASH_WaitForLastOperation
 1211              	.LVL68:
 912:STM32F10x_StdPeriph_Driver/src/stm32f10x_flash.c ****   } 
 1212              		.loc 1 912 5 is_stmt 1 view .LVU319
 912:STM32F10x_StdPeriph_Driver/src/stm32f10x_flash.c ****   } 
 1213              		.loc 1 912 10 is_stmt 0 view .LVU320
 1214 0028 3369     		ldr	r3, [r6, #16]
 912:STM32F10x_StdPeriph_Driver/src/stm32f10x_flash.c ****   } 
 1215              		.loc 1 912 15 view .LVU321
 1216 002a 23F00103 		bic	r3, r3, #1
 1217 002e DB04     		lsls	r3, r3, #19
 1218 0030 DB0C     		lsrs	r3, r3, #19
 1219 0032 3361     		str	r3, [r6, #16]
 1220 0034 EDE7     		b	.L107
 1221              	.L111:
 1222 0036 00BF     		.align	2
 1223              	.L110:
 1224 0038 00200240 		.word	1073881088
 1225              		.cfi_endproc
ARM GAS  C:\Users\kevin\AppData\Local\Temp\ccopMTuX.s 			page 53


 1226              	.LFE41:
 1228              		.section	.text.FLASH_ProgramOptionByteData,"ax",%progbits
 1229              		.align	1
 1230              		.global	FLASH_ProgramOptionByteData
 1231              		.syntax unified
 1232              		.thumb
 1233              		.thumb_func
 1235              	FLASH_ProgramOptionByteData:
 1236              	.LVL69:
 1237              	.LFB42:
 930:STM32F10x_StdPeriph_Driver/src/stm32f10x_flash.c ****   FLASH_Status status = FLASH_COMPLETE;
 1238              		.loc 1 930 1 is_stmt 1 view -0
 1239              		.cfi_startproc
 1240              		@ args = 0, pretend = 0, frame = 0
 1241              		@ frame_needed = 0, uses_anonymous_args = 0
 930:STM32F10x_StdPeriph_Driver/src/stm32f10x_flash.c ****   FLASH_Status status = FLASH_COMPLETE;
 1242              		.loc 1 930 1 is_stmt 0 view .LVU323
 1243 0000 38B5     		push	{r3, r4, r5, lr}
 1244              	.LCFI9:
 1245              		.cfi_def_cfa_offset 16
 1246              		.cfi_offset 3, -16
 1247              		.cfi_offset 4, -12
 1248              		.cfi_offset 5, -8
 1249              		.cfi_offset 14, -4
 1250 0002 0546     		mov	r5, r0
 1251 0004 0C46     		mov	r4, r1
 931:STM32F10x_StdPeriph_Driver/src/stm32f10x_flash.c ****   /* Check the parameters */
 1252              		.loc 1 931 3 is_stmt 1 view .LVU324
 1253              	.LVL70:
 933:STM32F10x_StdPeriph_Driver/src/stm32f10x_flash.c ****   status = FLASH_WaitForLastOperation(ProgramTimeout);
 1254              		.loc 1 933 3 view .LVU325
 934:STM32F10x_StdPeriph_Driver/src/stm32f10x_flash.c **** 
 1255              		.loc 1 934 3 view .LVU326
 934:STM32F10x_StdPeriph_Driver/src/stm32f10x_flash.c **** 
 1256              		.loc 1 934 12 is_stmt 0 view .LVU327
 1257 0006 4FF40050 		mov	r0, #8192
 1258              	.LVL71:
 934:STM32F10x_StdPeriph_Driver/src/stm32f10x_flash.c **** 
 1259              		.loc 1 934 12 view .LVU328
 1260 000a FFF7FEFF 		bl	FLASH_WaitForLastOperation
 1261              	.LVL72:
 936:STM32F10x_StdPeriph_Driver/src/stm32f10x_flash.c ****   {
 1262              		.loc 1 936 3 is_stmt 1 view .LVU329
 936:STM32F10x_StdPeriph_Driver/src/stm32f10x_flash.c ****   {
 1263              		.loc 1 936 5 is_stmt 0 view .LVU330
 1264 000e 0428     		cmp	r0, #4
 1265 0010 00D0     		beq	.L115
 1266              	.L113:
 954:STM32F10x_StdPeriph_Driver/src/stm32f10x_flash.c **** }
 1267              		.loc 1 954 3 is_stmt 1 view .LVU331
 955:STM32F10x_StdPeriph_Driver/src/stm32f10x_flash.c **** 
 1268              		.loc 1 955 1 is_stmt 0 view .LVU332
 1269 0012 38BD     		pop	{r3, r4, r5, pc}
 1270              	.LVL73:
 1271              	.L115:
 939:STM32F10x_StdPeriph_Driver/src/stm32f10x_flash.c ****     FLASH->OPTKEYR = FLASH_KEY2;
 1272              		.loc 1 939 5 is_stmt 1 view .LVU333
ARM GAS  C:\Users\kevin\AppData\Local\Temp\ccopMTuX.s 			page 54


 939:STM32F10x_StdPeriph_Driver/src/stm32f10x_flash.c ****     FLASH->OPTKEYR = FLASH_KEY2;
 1273              		.loc 1 939 20 is_stmt 0 view .LVU334
 1274 0014 0C4B     		ldr	r3, .L116
 1275 0016 0D4A     		ldr	r2, .L116+4
 1276 0018 9A60     		str	r2, [r3, #8]
 940:STM32F10x_StdPeriph_Driver/src/stm32f10x_flash.c ****     /* Enables the Option Bytes Programming operation */
 1277              		.loc 1 940 5 is_stmt 1 view .LVU335
 940:STM32F10x_StdPeriph_Driver/src/stm32f10x_flash.c ****     /* Enables the Option Bytes Programming operation */
 1278              		.loc 1 940 20 is_stmt 0 view .LVU336
 1279 001a 02F18832 		add	r2, r2, #-2004318072
 1280 001e 9A60     		str	r2, [r3, #8]
 942:STM32F10x_StdPeriph_Driver/src/stm32f10x_flash.c ****     *(__IO uint16_t*)Address = Data;
 1281              		.loc 1 942 5 is_stmt 1 view .LVU337
 942:STM32F10x_StdPeriph_Driver/src/stm32f10x_flash.c ****     *(__IO uint16_t*)Address = Data;
 1282              		.loc 1 942 10 is_stmt 0 view .LVU338
 1283 0020 1A69     		ldr	r2, [r3, #16]
 942:STM32F10x_StdPeriph_Driver/src/stm32f10x_flash.c ****     *(__IO uint16_t*)Address = Data;
 1284              		.loc 1 942 15 view .LVU339
 1285 0022 42F01002 		orr	r2, r2, #16
 1286 0026 1A61     		str	r2, [r3, #16]
 943:STM32F10x_StdPeriph_Driver/src/stm32f10x_flash.c ****     
 1287              		.loc 1 943 5 is_stmt 1 view .LVU340
 943:STM32F10x_StdPeriph_Driver/src/stm32f10x_flash.c ****     
 1288              		.loc 1 943 30 is_stmt 0 view .LVU341
 1289 0028 2C80     		strh	r4, [r5]	@ movhi
 946:STM32F10x_StdPeriph_Driver/src/stm32f10x_flash.c ****     if(status != FLASH_TIMEOUT)
 1290              		.loc 1 946 5 is_stmt 1 view .LVU342
 946:STM32F10x_StdPeriph_Driver/src/stm32f10x_flash.c ****     if(status != FLASH_TIMEOUT)
 1291              		.loc 1 946 14 is_stmt 0 view .LVU343
 1292 002a 4FF40050 		mov	r0, #8192
 1293              	.LVL74:
 946:STM32F10x_StdPeriph_Driver/src/stm32f10x_flash.c ****     if(status != FLASH_TIMEOUT)
 1294              		.loc 1 946 14 view .LVU344
 1295 002e FFF7FEFF 		bl	FLASH_WaitForLastOperation
 1296              	.LVL75:
 947:STM32F10x_StdPeriph_Driver/src/stm32f10x_flash.c ****     {
 1297              		.loc 1 947 5 is_stmt 1 view .LVU345
 947:STM32F10x_StdPeriph_Driver/src/stm32f10x_flash.c ****     {
 1298              		.loc 1 947 7 is_stmt 0 view .LVU346
 1299 0032 0528     		cmp	r0, #5
 1300 0034 EDD0     		beq	.L113
 950:STM32F10x_StdPeriph_Driver/src/stm32f10x_flash.c ****     }
 1301              		.loc 1 950 7 is_stmt 1 view .LVU347
 950:STM32F10x_StdPeriph_Driver/src/stm32f10x_flash.c ****     }
 1302              		.loc 1 950 12 is_stmt 0 view .LVU348
 1303 0036 044A     		ldr	r2, .L116
 1304 0038 1369     		ldr	r3, [r2, #16]
 950:STM32F10x_StdPeriph_Driver/src/stm32f10x_flash.c ****     }
 1305              		.loc 1 950 17 view .LVU349
 1306 003a 23F01003 		bic	r3, r3, #16
 1307 003e DB04     		lsls	r3, r3, #19
 1308 0040 DB0C     		lsrs	r3, r3, #19
 1309 0042 1361     		str	r3, [r2, #16]
 1310 0044 E5E7     		b	.L113
 1311              	.L117:
 1312 0046 00BF     		.align	2
 1313              	.L116:
ARM GAS  C:\Users\kevin\AppData\Local\Temp\ccopMTuX.s 			page 55


 1314 0048 00200240 		.word	1073881088
 1315 004c 23016745 		.word	1164378403
 1316              		.cfi_endproc
 1317              	.LFE42:
 1319              		.section	.text.FLASH_EnableWriteProtection,"ax",%progbits
 1320              		.align	1
 1321              		.global	FLASH_EnableWriteProtection
 1322              		.syntax unified
 1323              		.thumb
 1324              		.thumb_func
 1326              	FLASH_EnableWriteProtection:
 1327              	.LVL76:
 1328              	.LFB43:
 976:STM32F10x_StdPeriph_Driver/src/stm32f10x_flash.c ****   uint16_t WRP0_Data = 0xFFFF, WRP1_Data = 0xFFFF, WRP2_Data = 0xFFFF, WRP3_Data = 0xFFFF;
 1329              		.loc 1 976 1 is_stmt 1 view -0
 1330              		.cfi_startproc
 1331              		@ args = 0, pretend = 0, frame = 0
 1332              		@ frame_needed = 0, uses_anonymous_args = 0
 976:STM32F10x_StdPeriph_Driver/src/stm32f10x_flash.c ****   uint16_t WRP0_Data = 0xFFFF, WRP1_Data = 0xFFFF, WRP2_Data = 0xFFFF, WRP3_Data = 0xFFFF;
 1333              		.loc 1 976 1 is_stmt 0 view .LVU351
 1334 0000 F8B5     		push	{r3, r4, r5, r6, r7, lr}
 1335              	.LCFI10:
 1336              		.cfi_def_cfa_offset 24
 1337              		.cfi_offset 3, -24
 1338              		.cfi_offset 4, -20
 1339              		.cfi_offset 5, -16
 1340              		.cfi_offset 6, -12
 1341              		.cfi_offset 7, -8
 1342              		.cfi_offset 14, -4
 977:STM32F10x_StdPeriph_Driver/src/stm32f10x_flash.c ****   
 1343              		.loc 1 977 3 is_stmt 1 view .LVU352
 1344              	.LVL77:
 979:STM32F10x_StdPeriph_Driver/src/stm32f10x_flash.c ****   
 1345              		.loc 1 979 3 view .LVU353
 982:STM32F10x_StdPeriph_Driver/src/stm32f10x_flash.c ****   
 1346              		.loc 1 982 3 view .LVU354
 984:STM32F10x_StdPeriph_Driver/src/stm32f10x_flash.c ****   WRP0_Data = (uint16_t)(FLASH_Pages & WRP0_Mask);
 1347              		.loc 1 984 3 view .LVU355
 984:STM32F10x_StdPeriph_Driver/src/stm32f10x_flash.c ****   WRP0_Data = (uint16_t)(FLASH_Pages & WRP0_Mask);
 1348              		.loc 1 984 15 is_stmt 0 view .LVU356
 1349 0002 C043     		mvns	r0, r0
 1350              	.LVL78:
 985:STM32F10x_StdPeriph_Driver/src/stm32f10x_flash.c ****   WRP1_Data = (uint16_t)((FLASH_Pages & WRP1_Mask) >> 8);
 1351              		.loc 1 985 3 is_stmt 1 view .LVU357
 985:STM32F10x_StdPeriph_Driver/src/stm32f10x_flash.c ****   WRP1_Data = (uint16_t)((FLASH_Pages & WRP1_Mask) >> 8);
 1352              		.loc 1 985 13 is_stmt 0 view .LVU358
 1353 0004 C7B2     		uxtb	r7, r0
 1354              	.LVL79:
 986:STM32F10x_StdPeriph_Driver/src/stm32f10x_flash.c ****   WRP2_Data = (uint16_t)((FLASH_Pages & WRP2_Mask) >> 16);
 1355              		.loc 1 986 3 is_stmt 1 view .LVU359
 986:STM32F10x_StdPeriph_Driver/src/stm32f10x_flash.c ****   WRP2_Data = (uint16_t)((FLASH_Pages & WRP2_Mask) >> 16);
 1356              		.loc 1 986 13 is_stmt 0 view .LVU360
 1357 0006 C0F30726 		ubfx	r6, r0, #8, #8
 1358              	.LVL80:
 987:STM32F10x_StdPeriph_Driver/src/stm32f10x_flash.c ****   WRP3_Data = (uint16_t)((FLASH_Pages & WRP3_Mask) >> 24);
 1359              		.loc 1 987 3 is_stmt 1 view .LVU361
 987:STM32F10x_StdPeriph_Driver/src/stm32f10x_flash.c ****   WRP3_Data = (uint16_t)((FLASH_Pages & WRP3_Mask) >> 24);
ARM GAS  C:\Users\kevin\AppData\Local\Temp\ccopMTuX.s 			page 56


 1360              		.loc 1 987 13 is_stmt 0 view .LVU362
 1361 000a C0F30745 		ubfx	r5, r0, #16, #8
 1362              	.LVL81:
 988:STM32F10x_StdPeriph_Driver/src/stm32f10x_flash.c ****   
 1363              		.loc 1 988 3 is_stmt 1 view .LVU363
 988:STM32F10x_StdPeriph_Driver/src/stm32f10x_flash.c ****   
 1364              		.loc 1 988 13 is_stmt 0 view .LVU364
 1365 000e 040E     		lsrs	r4, r0, #24
 1366              	.LVL82:
 991:STM32F10x_StdPeriph_Driver/src/stm32f10x_flash.c ****   
 1367              		.loc 1 991 3 is_stmt 1 view .LVU365
 991:STM32F10x_StdPeriph_Driver/src/stm32f10x_flash.c ****   
 1368              		.loc 1 991 12 is_stmt 0 view .LVU366
 1369 0010 4FF40050 		mov	r0, #8192
 1370              	.LVL83:
 991:STM32F10x_StdPeriph_Driver/src/stm32f10x_flash.c ****   
 1371              		.loc 1 991 12 view .LVU367
 1372 0014 FFF7FEFF 		bl	FLASH_WaitForLastOperation
 1373              	.LVL84:
 993:STM32F10x_StdPeriph_Driver/src/stm32f10x_flash.c ****   {
 1374              		.loc 1 993 3 is_stmt 1 view .LVU368
 993:STM32F10x_StdPeriph_Driver/src/stm32f10x_flash.c ****   {
 1375              		.loc 1 993 5 is_stmt 0 view .LVU369
 1376 0018 0428     		cmp	r0, #4
 1377 001a 00D0     		beq	.L125
 1378              	.L119:
1036:STM32F10x_StdPeriph_Driver/src/stm32f10x_flash.c **** }
 1379              		.loc 1 1036 3 is_stmt 1 view .LVU370
1037:STM32F10x_StdPeriph_Driver/src/stm32f10x_flash.c **** 
 1380              		.loc 1 1037 1 is_stmt 0 view .LVU371
 1381 001c F8BD     		pop	{r3, r4, r5, r6, r7, pc}
 1382              	.LVL85:
 1383              	.L125:
 996:STM32F10x_StdPeriph_Driver/src/stm32f10x_flash.c ****     FLASH->OPTKEYR = FLASH_KEY2;
 1384              		.loc 1 996 5 is_stmt 1 view .LVU372
 996:STM32F10x_StdPeriph_Driver/src/stm32f10x_flash.c ****     FLASH->OPTKEYR = FLASH_KEY2;
 1385              		.loc 1 996 20 is_stmt 0 view .LVU373
 1386 001e 1F4B     		ldr	r3, .L130
 1387 0020 1F4A     		ldr	r2, .L130+4
 1388 0022 9A60     		str	r2, [r3, #8]
 997:STM32F10x_StdPeriph_Driver/src/stm32f10x_flash.c ****     FLASH->CR |= CR_OPTPG_Set;
 1389              		.loc 1 997 5 is_stmt 1 view .LVU374
 997:STM32F10x_StdPeriph_Driver/src/stm32f10x_flash.c ****     FLASH->CR |= CR_OPTPG_Set;
 1390              		.loc 1 997 20 is_stmt 0 view .LVU375
 1391 0024 02F18832 		add	r2, r2, #-2004318072
 1392 0028 9A60     		str	r2, [r3, #8]
 998:STM32F10x_StdPeriph_Driver/src/stm32f10x_flash.c ****     if(WRP0_Data != 0xFF)
 1393              		.loc 1 998 5 is_stmt 1 view .LVU376
 998:STM32F10x_StdPeriph_Driver/src/stm32f10x_flash.c ****     if(WRP0_Data != 0xFF)
 1394              		.loc 1 998 10 is_stmt 0 view .LVU377
 1395 002a 1A69     		ldr	r2, [r3, #16]
 998:STM32F10x_StdPeriph_Driver/src/stm32f10x_flash.c ****     if(WRP0_Data != 0xFF)
 1396              		.loc 1 998 15 view .LVU378
 1397 002c 42F01002 		orr	r2, r2, #16
 1398 0030 1A61     		str	r2, [r3, #16]
 999:STM32F10x_StdPeriph_Driver/src/stm32f10x_flash.c ****     {
 1399              		.loc 1 999 5 is_stmt 1 view .LVU379
ARM GAS  C:\Users\kevin\AppData\Local\Temp\ccopMTuX.s 			page 57


 999:STM32F10x_StdPeriph_Driver/src/stm32f10x_flash.c ****     {
 1400              		.loc 1 999 7 is_stmt 0 view .LVU380
 1401 0032 FF2F     		cmp	r7, #255
 1402 0034 0DD1     		bne	.L126
 1403              	.LVL86:
 1404              	.L120:
1006:STM32F10x_StdPeriph_Driver/src/stm32f10x_flash.c ****     {
 1405              		.loc 1 1006 5 is_stmt 1 view .LVU381
1006:STM32F10x_StdPeriph_Driver/src/stm32f10x_flash.c ****     {
 1406              		.loc 1 1006 7 is_stmt 0 view .LVU382
 1407 0036 0428     		cmp	r0, #4
 1408 0038 12D0     		beq	.L127
 1409              	.LVL87:
 1410              	.L121:
1021:STM32F10x_StdPeriph_Driver/src/stm32f10x_flash.c ****     {
 1411              		.loc 1 1021 5 is_stmt 1 view .LVU383
1021:STM32F10x_StdPeriph_Driver/src/stm32f10x_flash.c ****     {
 1412              		.loc 1 1021 7 is_stmt 0 view .LVU384
 1413 003a 0428     		cmp	r0, #4
 1414 003c 24D0     		beq	.L128
 1415              	.LVL88:
 1416              	.L123:
1029:STM32F10x_StdPeriph_Driver/src/stm32f10x_flash.c ****     {
 1417              		.loc 1 1029 5 is_stmt 1 view .LVU385
1029:STM32F10x_StdPeriph_Driver/src/stm32f10x_flash.c ****     {
 1418              		.loc 1 1029 7 is_stmt 0 view .LVU386
 1419 003e 0528     		cmp	r0, #5
 1420 0040 ECD0     		beq	.L119
1032:STM32F10x_StdPeriph_Driver/src/stm32f10x_flash.c ****     }
 1421              		.loc 1 1032 7 is_stmt 1 view .LVU387
1032:STM32F10x_StdPeriph_Driver/src/stm32f10x_flash.c ****     }
 1422              		.loc 1 1032 12 is_stmt 0 view .LVU388
 1423 0042 164A     		ldr	r2, .L130
 1424 0044 1369     		ldr	r3, [r2, #16]
1032:STM32F10x_StdPeriph_Driver/src/stm32f10x_flash.c ****     }
 1425              		.loc 1 1032 17 view .LVU389
 1426 0046 23F01003 		bic	r3, r3, #16
 1427 004a DB04     		lsls	r3, r3, #19
 1428 004c DB0C     		lsrs	r3, r3, #19
 1429 004e 1361     		str	r3, [r2, #16]
 1430 0050 E4E7     		b	.L119
 1431              	.L126:
1001:STM32F10x_StdPeriph_Driver/src/stm32f10x_flash.c ****       
 1432              		.loc 1 1001 7 is_stmt 1 view .LVU390
1001:STM32F10x_StdPeriph_Driver/src/stm32f10x_flash.c ****       
 1433              		.loc 1 1001 16 is_stmt 0 view .LVU391
 1434 0052 144B     		ldr	r3, .L130+8
 1435 0054 1F81     		strh	r7, [r3, #8]	@ movhi
1004:STM32F10x_StdPeriph_Driver/src/stm32f10x_flash.c ****     }
 1436              		.loc 1 1004 7 is_stmt 1 view .LVU392
1004:STM32F10x_StdPeriph_Driver/src/stm32f10x_flash.c ****     }
 1437              		.loc 1 1004 16 is_stmt 0 view .LVU393
 1438 0056 4FF40050 		mov	r0, #8192
 1439              	.LVL89:
1004:STM32F10x_StdPeriph_Driver/src/stm32f10x_flash.c ****     }
 1440              		.loc 1 1004 16 view .LVU394
 1441 005a FFF7FEFF 		bl	FLASH_WaitForLastOperation
ARM GAS  C:\Users\kevin\AppData\Local\Temp\ccopMTuX.s 			page 58


 1442              	.LVL90:
 1443 005e EAE7     		b	.L120
 1444              	.LVL91:
 1445              	.L127:
1006:STM32F10x_StdPeriph_Driver/src/stm32f10x_flash.c ****     {
 1446              		.loc 1 1006 35 discriminator 1 view .LVU395
 1447 0060 FF2E     		cmp	r6, #255
 1448 0062 0AD1     		bne	.L129
 1449              	.LVL92:
 1450              	.L122:
1013:STM32F10x_StdPeriph_Driver/src/stm32f10x_flash.c ****     {
 1451              		.loc 1 1013 5 is_stmt 1 view .LVU396
1013:STM32F10x_StdPeriph_Driver/src/stm32f10x_flash.c ****     {
 1452              		.loc 1 1013 7 is_stmt 0 view .LVU397
 1453 0064 0428     		cmp	r0, #4
 1454 0066 EAD1     		bne	.L123
1013:STM32F10x_StdPeriph_Driver/src/stm32f10x_flash.c ****     {
 1455              		.loc 1 1013 35 discriminator 1 view .LVU398
 1456 0068 FF2D     		cmp	r5, #255
 1457 006a E6D0     		beq	.L121
1015:STM32F10x_StdPeriph_Driver/src/stm32f10x_flash.c ****       
 1458              		.loc 1 1015 7 is_stmt 1 view .LVU399
1015:STM32F10x_StdPeriph_Driver/src/stm32f10x_flash.c ****       
 1459              		.loc 1 1015 16 is_stmt 0 view .LVU400
 1460 006c 0D4B     		ldr	r3, .L130+8
 1461 006e 9D81     		strh	r5, [r3, #12]	@ movhi
1018:STM32F10x_StdPeriph_Driver/src/stm32f10x_flash.c ****     }
 1462              		.loc 1 1018 7 is_stmt 1 view .LVU401
1018:STM32F10x_StdPeriph_Driver/src/stm32f10x_flash.c ****     }
 1463              		.loc 1 1018 16 is_stmt 0 view .LVU402
 1464 0070 4FF40050 		mov	r0, #8192
 1465              	.LVL93:
1018:STM32F10x_StdPeriph_Driver/src/stm32f10x_flash.c ****     }
 1466              		.loc 1 1018 16 view .LVU403
 1467 0074 FFF7FEFF 		bl	FLASH_WaitForLastOperation
 1468              	.LVL94:
 1469 0078 DFE7     		b	.L121
 1470              	.LVL95:
 1471              	.L129:
1008:STM32F10x_StdPeriph_Driver/src/stm32f10x_flash.c ****       
 1472              		.loc 1 1008 7 is_stmt 1 view .LVU404
1008:STM32F10x_StdPeriph_Driver/src/stm32f10x_flash.c ****       
 1473              		.loc 1 1008 16 is_stmt 0 view .LVU405
 1474 007a 0A4B     		ldr	r3, .L130+8
 1475 007c 5E81     		strh	r6, [r3, #10]	@ movhi
1011:STM32F10x_StdPeriph_Driver/src/stm32f10x_flash.c ****     }
 1476              		.loc 1 1011 7 is_stmt 1 view .LVU406
1011:STM32F10x_StdPeriph_Driver/src/stm32f10x_flash.c ****     }
 1477              		.loc 1 1011 16 is_stmt 0 view .LVU407
 1478 007e 4FF40050 		mov	r0, #8192
 1479              	.LVL96:
1011:STM32F10x_StdPeriph_Driver/src/stm32f10x_flash.c ****     }
 1480              		.loc 1 1011 16 view .LVU408
 1481 0082 FFF7FEFF 		bl	FLASH_WaitForLastOperation
 1482              	.LVL97:
 1483 0086 EDE7     		b	.L122
 1484              	.LVL98:
ARM GAS  C:\Users\kevin\AppData\Local\Temp\ccopMTuX.s 			page 59


 1485              	.L128:
1021:STM32F10x_StdPeriph_Driver/src/stm32f10x_flash.c ****     {
 1486              		.loc 1 1021 34 discriminator 1 view .LVU409
 1487 0088 FF2C     		cmp	r4, #255
 1488 008a D8D0     		beq	.L123
1023:STM32F10x_StdPeriph_Driver/src/stm32f10x_flash.c ****      
 1489              		.loc 1 1023 7 is_stmt 1 view .LVU410
1023:STM32F10x_StdPeriph_Driver/src/stm32f10x_flash.c ****      
 1490              		.loc 1 1023 16 is_stmt 0 view .LVU411
 1491 008c 054B     		ldr	r3, .L130+8
 1492 008e DC81     		strh	r4, [r3, #14]	@ movhi
1026:STM32F10x_StdPeriph_Driver/src/stm32f10x_flash.c ****     }
 1493              		.loc 1 1026 7 is_stmt 1 view .LVU412
1026:STM32F10x_StdPeriph_Driver/src/stm32f10x_flash.c ****     }
 1494              		.loc 1 1026 16 is_stmt 0 view .LVU413
 1495 0090 4FF40050 		mov	r0, #8192
 1496              	.LVL99:
1026:STM32F10x_StdPeriph_Driver/src/stm32f10x_flash.c ****     }
 1497              		.loc 1 1026 16 view .LVU414
 1498 0094 FFF7FEFF 		bl	FLASH_WaitForLastOperation
 1499              	.LVL100:
 1500 0098 D1E7     		b	.L123
 1501              	.L131:
 1502 009a 00BF     		.align	2
 1503              	.L130:
 1504 009c 00200240 		.word	1073881088
 1505 00a0 23016745 		.word	1164378403
 1506 00a4 00F8FF1F 		.word	536868864
 1507              		.cfi_endproc
 1508              	.LFE43:
 1510              		.section	.text.FLASH_ReadOutProtection,"ax",%progbits
 1511              		.align	1
 1512              		.global	FLASH_ReadOutProtection
 1513              		.syntax unified
 1514              		.thumb
 1515              		.thumb_func
 1517              	FLASH_ReadOutProtection:
 1518              	.LVL101:
 1519              	.LFB44:
1050:STM32F10x_StdPeriph_Driver/src/stm32f10x_flash.c ****   FLASH_Status status = FLASH_COMPLETE;
 1520              		.loc 1 1050 1 is_stmt 1 view -0
 1521              		.cfi_startproc
 1522              		@ args = 0, pretend = 0, frame = 0
 1523              		@ frame_needed = 0, uses_anonymous_args = 0
1050:STM32F10x_StdPeriph_Driver/src/stm32f10x_flash.c ****   FLASH_Status status = FLASH_COMPLETE;
 1524              		.loc 1 1050 1 is_stmt 0 view .LVU416
 1525 0000 10B5     		push	{r4, lr}
 1526              	.LCFI11:
 1527              		.cfi_def_cfa_offset 8
 1528              		.cfi_offset 4, -8
 1529              		.cfi_offset 14, -4
 1530 0002 0446     		mov	r4, r0
1051:STM32F10x_StdPeriph_Driver/src/stm32f10x_flash.c ****   /* Check the parameters */
 1531              		.loc 1 1051 3 is_stmt 1 view .LVU417
 1532              	.LVL102:
1053:STM32F10x_StdPeriph_Driver/src/stm32f10x_flash.c ****   status = FLASH_WaitForLastOperation(EraseTimeout);
 1533              		.loc 1 1053 3 view .LVU418
ARM GAS  C:\Users\kevin\AppData\Local\Temp\ccopMTuX.s 			page 60


1054:STM32F10x_StdPeriph_Driver/src/stm32f10x_flash.c ****   if(status == FLASH_COMPLETE)
 1534              		.loc 1 1054 3 view .LVU419
1054:STM32F10x_StdPeriph_Driver/src/stm32f10x_flash.c ****   if(status == FLASH_COMPLETE)
 1535              		.loc 1 1054 12 is_stmt 0 view .LVU420
 1536 0004 4FF43020 		mov	r0, #720896
 1537              	.LVL103:
1054:STM32F10x_StdPeriph_Driver/src/stm32f10x_flash.c ****   if(status == FLASH_COMPLETE)
 1538              		.loc 1 1054 12 view .LVU421
 1539 0008 FFF7FEFF 		bl	FLASH_WaitForLastOperation
 1540              	.LVL104:
1055:STM32F10x_StdPeriph_Driver/src/stm32f10x_flash.c ****   {
 1541              		.loc 1 1055 3 is_stmt 1 view .LVU422
1055:STM32F10x_StdPeriph_Driver/src/stm32f10x_flash.c ****   {
 1542              		.loc 1 1055 5 is_stmt 0 view .LVU423
 1543 000c 0428     		cmp	r0, #4
 1544 000e 00D0     		beq	.L138
 1545              	.L133:
1097:STM32F10x_StdPeriph_Driver/src/stm32f10x_flash.c **** }
 1546              		.loc 1 1097 3 is_stmt 1 view .LVU424
1098:STM32F10x_StdPeriph_Driver/src/stm32f10x_flash.c **** 
 1547              		.loc 1 1098 1 is_stmt 0 view .LVU425
 1548 0010 10BD     		pop	{r4, pc}
 1549              	.LVL105:
 1550              	.L138:
1058:STM32F10x_StdPeriph_Driver/src/stm32f10x_flash.c ****     FLASH->OPTKEYR = FLASH_KEY2;
 1551              		.loc 1 1058 5 is_stmt 1 view .LVU426
1058:STM32F10x_StdPeriph_Driver/src/stm32f10x_flash.c ****     FLASH->OPTKEYR = FLASH_KEY2;
 1552              		.loc 1 1058 20 is_stmt 0 view .LVU427
 1553 0012 1F4B     		ldr	r3, .L140
 1554 0014 1F4A     		ldr	r2, .L140+4
 1555 0016 9A60     		str	r2, [r3, #8]
1059:STM32F10x_StdPeriph_Driver/src/stm32f10x_flash.c ****     FLASH->CR |= CR_OPTER_Set;
 1556              		.loc 1 1059 5 is_stmt 1 view .LVU428
1059:STM32F10x_StdPeriph_Driver/src/stm32f10x_flash.c ****     FLASH->CR |= CR_OPTER_Set;
 1557              		.loc 1 1059 20 is_stmt 0 view .LVU429
 1558 0018 02F18832 		add	r2, r2, #-2004318072
 1559 001c 9A60     		str	r2, [r3, #8]
1060:STM32F10x_StdPeriph_Driver/src/stm32f10x_flash.c ****     FLASH->CR |= CR_STRT_Set;
 1560              		.loc 1 1060 5 is_stmt 1 view .LVU430
1060:STM32F10x_StdPeriph_Driver/src/stm32f10x_flash.c ****     FLASH->CR |= CR_STRT_Set;
 1561              		.loc 1 1060 10 is_stmt 0 view .LVU431
 1562 001e 1A69     		ldr	r2, [r3, #16]
1060:STM32F10x_StdPeriph_Driver/src/stm32f10x_flash.c ****     FLASH->CR |= CR_STRT_Set;
 1563              		.loc 1 1060 15 view .LVU432
 1564 0020 42F02002 		orr	r2, r2, #32
 1565 0024 1A61     		str	r2, [r3, #16]
1061:STM32F10x_StdPeriph_Driver/src/stm32f10x_flash.c ****     /* Wait for last operation to be completed */
 1566              		.loc 1 1061 5 is_stmt 1 view .LVU433
1061:STM32F10x_StdPeriph_Driver/src/stm32f10x_flash.c ****     /* Wait for last operation to be completed */
 1567              		.loc 1 1061 10 is_stmt 0 view .LVU434
 1568 0026 1A69     		ldr	r2, [r3, #16]
1061:STM32F10x_StdPeriph_Driver/src/stm32f10x_flash.c ****     /* Wait for last operation to be completed */
 1569              		.loc 1 1061 15 view .LVU435
 1570 0028 42F04002 		orr	r2, r2, #64
 1571 002c 1A61     		str	r2, [r3, #16]
1063:STM32F10x_StdPeriph_Driver/src/stm32f10x_flash.c ****     if(status == FLASH_COMPLETE)
 1572              		.loc 1 1063 5 is_stmt 1 view .LVU436
ARM GAS  C:\Users\kevin\AppData\Local\Temp\ccopMTuX.s 			page 61


1063:STM32F10x_StdPeriph_Driver/src/stm32f10x_flash.c ****     if(status == FLASH_COMPLETE)
 1573              		.loc 1 1063 14 is_stmt 0 view .LVU437
 1574 002e 4FF43020 		mov	r0, #720896
 1575              	.LVL106:
1063:STM32F10x_StdPeriph_Driver/src/stm32f10x_flash.c ****     if(status == FLASH_COMPLETE)
 1576              		.loc 1 1063 14 view .LVU438
 1577 0032 FFF7FEFF 		bl	FLASH_WaitForLastOperation
 1578              	.LVL107:
1064:STM32F10x_StdPeriph_Driver/src/stm32f10x_flash.c ****     {
 1579              		.loc 1 1064 5 is_stmt 1 view .LVU439
1064:STM32F10x_StdPeriph_Driver/src/stm32f10x_flash.c ****     {
 1580              		.loc 1 1064 7 is_stmt 0 view .LVU440
 1581 0036 0428     		cmp	r0, #4
 1582 0038 09D0     		beq	.L139
1089:STM32F10x_StdPeriph_Driver/src/stm32f10x_flash.c ****       {
 1583              		.loc 1 1089 7 is_stmt 1 view .LVU441
1089:STM32F10x_StdPeriph_Driver/src/stm32f10x_flash.c ****       {
 1584              		.loc 1 1089 9 is_stmt 0 view .LVU442
 1585 003a 0528     		cmp	r0, #5
 1586 003c E8D0     		beq	.L133
1092:STM32F10x_StdPeriph_Driver/src/stm32f10x_flash.c ****       }
 1587              		.loc 1 1092 9 is_stmt 1 view .LVU443
1092:STM32F10x_StdPeriph_Driver/src/stm32f10x_flash.c ****       }
 1588              		.loc 1 1092 14 is_stmt 0 view .LVU444
 1589 003e 144A     		ldr	r2, .L140
 1590 0040 1369     		ldr	r3, [r2, #16]
1092:STM32F10x_StdPeriph_Driver/src/stm32f10x_flash.c ****       }
 1591              		.loc 1 1092 19 view .LVU445
 1592 0042 23F02003 		bic	r3, r3, #32
 1593 0046 DB04     		lsls	r3, r3, #19
 1594 0048 DB0C     		lsrs	r3, r3, #19
 1595 004a 1361     		str	r3, [r2, #16]
 1596 004c E0E7     		b	.L133
 1597              	.L139:
1067:STM32F10x_StdPeriph_Driver/src/stm32f10x_flash.c ****       /* Enable the Option Bytes Programming operation */
 1598              		.loc 1 1067 7 is_stmt 1 view .LVU446
1067:STM32F10x_StdPeriph_Driver/src/stm32f10x_flash.c ****       /* Enable the Option Bytes Programming operation */
 1599              		.loc 1 1067 12 is_stmt 0 view .LVU447
 1600 004e 104B     		ldr	r3, .L140
 1601 0050 1A69     		ldr	r2, [r3, #16]
1067:STM32F10x_StdPeriph_Driver/src/stm32f10x_flash.c ****       /* Enable the Option Bytes Programming operation */
 1602              		.loc 1 1067 17 view .LVU448
 1603 0052 22F02002 		bic	r2, r2, #32
 1604 0056 D204     		lsls	r2, r2, #19
 1605 0058 D20C     		lsrs	r2, r2, #19
 1606 005a 1A61     		str	r2, [r3, #16]
1069:STM32F10x_StdPeriph_Driver/src/stm32f10x_flash.c ****       if(NewState != DISABLE)
 1607              		.loc 1 1069 7 is_stmt 1 view .LVU449
1069:STM32F10x_StdPeriph_Driver/src/stm32f10x_flash.c ****       if(NewState != DISABLE)
 1608              		.loc 1 1069 12 is_stmt 0 view .LVU450
 1609 005c 1A69     		ldr	r2, [r3, #16]
1069:STM32F10x_StdPeriph_Driver/src/stm32f10x_flash.c ****       if(NewState != DISABLE)
 1610              		.loc 1 1069 17 view .LVU451
 1611 005e 42F01002 		orr	r2, r2, #16
 1612 0062 1A61     		str	r2, [r3, #16]
1070:STM32F10x_StdPeriph_Driver/src/stm32f10x_flash.c ****       {
 1613              		.loc 1 1070 7 is_stmt 1 view .LVU452
ARM GAS  C:\Users\kevin\AppData\Local\Temp\ccopMTuX.s 			page 62


1070:STM32F10x_StdPeriph_Driver/src/stm32f10x_flash.c ****       {
 1614              		.loc 1 1070 9 is_stmt 0 view .LVU453
 1615 0064 84B1     		cbz	r4, .L135
1072:STM32F10x_StdPeriph_Driver/src/stm32f10x_flash.c ****       }
 1616              		.loc 1 1072 9 is_stmt 1 view .LVU454
1072:STM32F10x_StdPeriph_Driver/src/stm32f10x_flash.c ****       }
 1617              		.loc 1 1072 17 is_stmt 0 view .LVU455
 1618 0066 0C4B     		ldr	r3, .L140+8
 1619 0068 0022     		movs	r2, #0
 1620 006a 1A80     		strh	r2, [r3]	@ movhi
 1621              	.L136:
1079:STM32F10x_StdPeriph_Driver/src/stm32f10x_flash.c ****     
 1622              		.loc 1 1079 7 is_stmt 1 view .LVU456
1079:STM32F10x_StdPeriph_Driver/src/stm32f10x_flash.c ****     
 1623              		.loc 1 1079 16 is_stmt 0 view .LVU457
 1624 006c 4FF43020 		mov	r0, #720896
 1625              	.LVL108:
1079:STM32F10x_StdPeriph_Driver/src/stm32f10x_flash.c ****     
 1626              		.loc 1 1079 16 view .LVU458
 1627 0070 FFF7FEFF 		bl	FLASH_WaitForLastOperation
 1628              	.LVL109:
1081:STM32F10x_StdPeriph_Driver/src/stm32f10x_flash.c ****       {
 1629              		.loc 1 1081 7 is_stmt 1 view .LVU459
1081:STM32F10x_StdPeriph_Driver/src/stm32f10x_flash.c ****       {
 1630              		.loc 1 1081 9 is_stmt 0 view .LVU460
 1631 0074 0528     		cmp	r0, #5
 1632 0076 CBD0     		beq	.L133
1084:STM32F10x_StdPeriph_Driver/src/stm32f10x_flash.c ****       }
 1633              		.loc 1 1084 9 is_stmt 1 view .LVU461
1084:STM32F10x_StdPeriph_Driver/src/stm32f10x_flash.c ****       }
 1634              		.loc 1 1084 14 is_stmt 0 view .LVU462
 1635 0078 054A     		ldr	r2, .L140
 1636 007a 1369     		ldr	r3, [r2, #16]
1084:STM32F10x_StdPeriph_Driver/src/stm32f10x_flash.c ****       }
 1637              		.loc 1 1084 19 view .LVU463
 1638 007c 23F01003 		bic	r3, r3, #16
 1639 0080 DB04     		lsls	r3, r3, #19
 1640 0082 DB0C     		lsrs	r3, r3, #19
 1641 0084 1361     		str	r3, [r2, #16]
 1642 0086 C3E7     		b	.L133
 1643              	.L135:
1076:STM32F10x_StdPeriph_Driver/src/stm32f10x_flash.c ****       }
 1644              		.loc 1 1076 9 is_stmt 1 view .LVU464
1076:STM32F10x_StdPeriph_Driver/src/stm32f10x_flash.c ****       }
 1645              		.loc 1 1076 17 is_stmt 0 view .LVU465
 1646 0088 034B     		ldr	r3, .L140+8
 1647 008a A522     		movs	r2, #165
 1648 008c 1A80     		strh	r2, [r3]	@ movhi
 1649 008e EDE7     		b	.L136
 1650              	.L141:
 1651              		.align	2
 1652              	.L140:
 1653 0090 00200240 		.word	1073881088
 1654 0094 23016745 		.word	1164378403
 1655 0098 00F8FF1F 		.word	536868864
 1656              		.cfi_endproc
 1657              	.LFE44:
ARM GAS  C:\Users\kevin\AppData\Local\Temp\ccopMTuX.s 			page 63


 1659              		.section	.text.FLASH_UserOptionByteConfig,"ax",%progbits
 1660              		.align	1
 1661              		.global	FLASH_UserOptionByteConfig
 1662              		.syntax unified
 1663              		.thumb
 1664              		.thumb_func
 1666              	FLASH_UserOptionByteConfig:
 1667              	.LVL110:
 1668              	.LFB45:
1119:STM32F10x_StdPeriph_Driver/src/stm32f10x_flash.c ****   FLASH_Status status = FLASH_COMPLETE; 
 1669              		.loc 1 1119 1 is_stmt 1 view -0
 1670              		.cfi_startproc
 1671              		@ args = 0, pretend = 0, frame = 0
 1672              		@ frame_needed = 0, uses_anonymous_args = 0
1119:STM32F10x_StdPeriph_Driver/src/stm32f10x_flash.c ****   FLASH_Status status = FLASH_COMPLETE; 
 1673              		.loc 1 1119 1 is_stmt 0 view .LVU467
 1674 0000 70B5     		push	{r4, r5, r6, lr}
 1675              	.LCFI12:
 1676              		.cfi_def_cfa_offset 16
 1677              		.cfi_offset 4, -16
 1678              		.cfi_offset 5, -12
 1679              		.cfi_offset 6, -8
 1680              		.cfi_offset 14, -4
 1681 0002 0446     		mov	r4, r0
 1682 0004 0D46     		mov	r5, r1
 1683 0006 1646     		mov	r6, r2
1120:STM32F10x_StdPeriph_Driver/src/stm32f10x_flash.c **** 
 1684              		.loc 1 1120 3 is_stmt 1 view .LVU468
 1685              	.LVL111:
1123:STM32F10x_StdPeriph_Driver/src/stm32f10x_flash.c ****   assert_param(IS_OB_STOP_SOURCE(OB_STOP));
 1686              		.loc 1 1123 3 view .LVU469
1124:STM32F10x_StdPeriph_Driver/src/stm32f10x_flash.c ****   assert_param(IS_OB_STDBY_SOURCE(OB_STDBY));
 1687              		.loc 1 1124 3 view .LVU470
1125:STM32F10x_StdPeriph_Driver/src/stm32f10x_flash.c **** 
 1688              		.loc 1 1125 3 view .LVU471
1128:STM32F10x_StdPeriph_Driver/src/stm32f10x_flash.c ****   FLASH->OPTKEYR = FLASH_KEY2;
 1689              		.loc 1 1128 3 view .LVU472
1128:STM32F10x_StdPeriph_Driver/src/stm32f10x_flash.c ****   FLASH->OPTKEYR = FLASH_KEY2;
 1690              		.loc 1 1128 18 is_stmt 0 view .LVU473
 1691 0008 134B     		ldr	r3, .L146
 1692 000a 1448     		ldr	r0, .L146+4
 1693              	.LVL112:
1128:STM32F10x_StdPeriph_Driver/src/stm32f10x_flash.c ****   FLASH->OPTKEYR = FLASH_KEY2;
 1694              		.loc 1 1128 18 view .LVU474
 1695 000c 9860     		str	r0, [r3, #8]
1129:STM32F10x_StdPeriph_Driver/src/stm32f10x_flash.c ****   
 1696              		.loc 1 1129 3 is_stmt 1 view .LVU475
1129:STM32F10x_StdPeriph_Driver/src/stm32f10x_flash.c ****   
 1697              		.loc 1 1129 18 is_stmt 0 view .LVU476
 1698 000e 00F18830 		add	r0, r0, #-2004318072
 1699 0012 9860     		str	r0, [r3, #8]
1132:STM32F10x_StdPeriph_Driver/src/stm32f10x_flash.c ****   
 1700              		.loc 1 1132 3 is_stmt 1 view .LVU477
1132:STM32F10x_StdPeriph_Driver/src/stm32f10x_flash.c ****   
 1701              		.loc 1 1132 12 is_stmt 0 view .LVU478
 1702 0014 4FF40050 		mov	r0, #8192
 1703 0018 FFF7FEFF 		bl	FLASH_WaitForLastOperation
ARM GAS  C:\Users\kevin\AppData\Local\Temp\ccopMTuX.s 			page 64


 1704              	.LVL113:
1134:STM32F10x_StdPeriph_Driver/src/stm32f10x_flash.c ****   {  
 1705              		.loc 1 1134 3 is_stmt 1 view .LVU479
1134:STM32F10x_StdPeriph_Driver/src/stm32f10x_flash.c ****   {  
 1706              		.loc 1 1134 5 is_stmt 0 view .LVU480
 1707 001c 0428     		cmp	r0, #4
 1708 001e 00D0     		beq	.L145
 1709              	.LVL114:
 1710              	.L143:
1150:STM32F10x_StdPeriph_Driver/src/stm32f10x_flash.c **** }
 1711              		.loc 1 1150 3 is_stmt 1 view .LVU481
1151:STM32F10x_StdPeriph_Driver/src/stm32f10x_flash.c **** 
 1712              		.loc 1 1151 1 is_stmt 0 view .LVU482
 1713 0020 70BD     		pop	{r4, r5, r6, pc}
 1714              	.LVL115:
 1715              	.L145:
1137:STM32F10x_StdPeriph_Driver/src/stm32f10x_flash.c ****            
 1716              		.loc 1 1137 5 is_stmt 1 view .LVU483
1137:STM32F10x_StdPeriph_Driver/src/stm32f10x_flash.c ****            
 1717              		.loc 1 1137 10 is_stmt 0 view .LVU484
 1718 0022 0D4A     		ldr	r2, .L146
 1719 0024 1369     		ldr	r3, [r2, #16]
1137:STM32F10x_StdPeriph_Driver/src/stm32f10x_flash.c ****            
 1720              		.loc 1 1137 15 view .LVU485
 1721 0026 43F01003 		orr	r3, r3, #16
 1722 002a 1361     		str	r3, [r2, #16]
1139:STM32F10x_StdPeriph_Driver/src/stm32f10x_flash.c ****   
 1723              		.loc 1 1139 5 is_stmt 1 view .LVU486
1139:STM32F10x_StdPeriph_Driver/src/stm32f10x_flash.c ****   
 1724              		.loc 1 1139 14 is_stmt 0 view .LVU487
 1725 002c 46EA0502 		orr	r2, r6, r5
 1726 0030 1443     		orrs	r4, r4, r2
 1727 0032 44F0F804 		orr	r4, r4, #248
 1728 0036 0A4B     		ldr	r3, .L146+8
 1729 0038 5C80     		strh	r4, [r3, #2]	@ movhi
1142:STM32F10x_StdPeriph_Driver/src/stm32f10x_flash.c ****     if(status != FLASH_TIMEOUT)
 1730              		.loc 1 1142 5 is_stmt 1 view .LVU488
1142:STM32F10x_StdPeriph_Driver/src/stm32f10x_flash.c ****     if(status != FLASH_TIMEOUT)
 1731              		.loc 1 1142 14 is_stmt 0 view .LVU489
 1732 003a 4FF40050 		mov	r0, #8192
 1733              	.LVL116:
