ARM GAS  C:\Users\kevin\AppData\Local\Temp\ccRSUIFU.s 			page 1


   1              		.cpu cortex-m3
   2              		.arch armv7-m
   3              		.fpu softvfp
   4              		.eabi_attribute 20, 1
   5              		.eabi_attribute 21, 1
   6              		.eabi_attribute 23, 3
   7              		.eabi_attribute 24, 1
   8              		.eabi_attribute 25, 1
   9              		.eabi_attribute 26, 1
  10              		.eabi_attribute 30, 1
  11              		.eabi_attribute 34, 1
  12              		.eabi_attribute 18, 4
  13              		.file	"stm32f10x_can.c"
  14              		.text
  15              	.Ltext0:
  16              		.cfi_sections	.debug_frame
  17              		.file 1 "STM32F10x_StdPeriph_Driver/src/stm32f10x_can.c"
  18              		.section	.text.CheckITStatus,"ax",%progbits
  19              		.align	1
  20              		.syntax unified
  21              		.thumb
  22              		.thumb_func
  24              	CheckITStatus:
  25              	.LVL0:
  26              	.LFB53:
   1:STM32F10x_StdPeriph_Driver/src/stm32f10x_can.c **** /**
   2:STM32F10x_StdPeriph_Driver/src/stm32f10x_can.c ****   ******************************************************************************
   3:STM32F10x_StdPeriph_Driver/src/stm32f10x_can.c ****   * @file    stm32f10x_can.c
   4:STM32F10x_StdPeriph_Driver/src/stm32f10x_can.c ****   * @author  MCD Application Team
   5:STM32F10x_StdPeriph_Driver/src/stm32f10x_can.c ****   * @version V3.5.0
   6:STM32F10x_StdPeriph_Driver/src/stm32f10x_can.c ****   * @date    11-March-2011
   7:STM32F10x_StdPeriph_Driver/src/stm32f10x_can.c ****   * @brief   This file provides all the CAN firmware functions.
   8:STM32F10x_StdPeriph_Driver/src/stm32f10x_can.c ****   ******************************************************************************
   9:STM32F10x_StdPeriph_Driver/src/stm32f10x_can.c ****   * @attention
  10:STM32F10x_StdPeriph_Driver/src/stm32f10x_can.c ****   *
  11:STM32F10x_StdPeriph_Driver/src/stm32f10x_can.c ****   * THE PRESENT FIRMWARE WHICH IS FOR GUIDANCE ONLY AIMS AT PROVIDING CUSTOMERS
  12:STM32F10x_StdPeriph_Driver/src/stm32f10x_can.c ****   * WITH CODING INFORMATION REGARDING THEIR PRODUCTS IN ORDER FOR THEM TO SAVE
  13:STM32F10x_StdPeriph_Driver/src/stm32f10x_can.c ****   * TIME. AS A RESULT, STMICROELECTRONICS SHALL NOT BE HELD LIABLE FOR ANY
  14:STM32F10x_StdPeriph_Driver/src/stm32f10x_can.c ****   * DIRECT, INDIRECT OR CONSEQUENTIAL DAMAGES WITH RESPECT TO ANY CLAIMS ARISING
  15:STM32F10x_StdPeriph_Driver/src/stm32f10x_can.c ****   * FROM THE CONTENT OF SUCH FIRMWARE AND/OR THE USE MADE BY CUSTOMERS OF THE
  16:STM32F10x_StdPeriph_Driver/src/stm32f10x_can.c ****   * CODING INFORMATION CONTAINED HEREIN IN CONNECTION WITH THEIR PRODUCTS.
  17:STM32F10x_StdPeriph_Driver/src/stm32f10x_can.c ****   *
  18:STM32F10x_StdPeriph_Driver/src/stm32f10x_can.c ****   * <h2><center>&copy; COPYRIGHT 2011 STMicroelectronics</center></h2>
  19:STM32F10x_StdPeriph_Driver/src/stm32f10x_can.c ****   ******************************************************************************
  20:STM32F10x_StdPeriph_Driver/src/stm32f10x_can.c ****   */
  21:STM32F10x_StdPeriph_Driver/src/stm32f10x_can.c **** 
  22:STM32F10x_StdPeriph_Driver/src/stm32f10x_can.c **** /* Includes ------------------------------------------------------------------*/
  23:STM32F10x_StdPeriph_Driver/src/stm32f10x_can.c **** #include "stm32f10x_can.h"
  24:STM32F10x_StdPeriph_Driver/src/stm32f10x_can.c **** #include "stm32f10x_rcc.h"
  25:STM32F10x_StdPeriph_Driver/src/stm32f10x_can.c **** 
  26:STM32F10x_StdPeriph_Driver/src/stm32f10x_can.c **** /** @addtogroup STM32F10x_StdPeriph_Driver
  27:STM32F10x_StdPeriph_Driver/src/stm32f10x_can.c ****   * @{
  28:STM32F10x_StdPeriph_Driver/src/stm32f10x_can.c ****   */
  29:STM32F10x_StdPeriph_Driver/src/stm32f10x_can.c **** 
  30:STM32F10x_StdPeriph_Driver/src/stm32f10x_can.c **** /** @defgroup CAN 
  31:STM32F10x_StdPeriph_Driver/src/stm32f10x_can.c ****   * @brief CAN driver modules
  32:STM32F10x_StdPeriph_Driver/src/stm32f10x_can.c ****   * @{
ARM GAS  C:\Users\kevin\AppData\Local\Temp\ccRSUIFU.s 			page 2


  33:STM32F10x_StdPeriph_Driver/src/stm32f10x_can.c ****   */ 
  34:STM32F10x_StdPeriph_Driver/src/stm32f10x_can.c **** 
  35:STM32F10x_StdPeriph_Driver/src/stm32f10x_can.c **** /** @defgroup CAN_Private_TypesDefinitions
  36:STM32F10x_StdPeriph_Driver/src/stm32f10x_can.c ****   * @{
  37:STM32F10x_StdPeriph_Driver/src/stm32f10x_can.c ****   */
  38:STM32F10x_StdPeriph_Driver/src/stm32f10x_can.c **** 
  39:STM32F10x_StdPeriph_Driver/src/stm32f10x_can.c **** /**
  40:STM32F10x_StdPeriph_Driver/src/stm32f10x_can.c ****   * @}
  41:STM32F10x_StdPeriph_Driver/src/stm32f10x_can.c ****   */
  42:STM32F10x_StdPeriph_Driver/src/stm32f10x_can.c **** 
  43:STM32F10x_StdPeriph_Driver/src/stm32f10x_can.c **** /** @defgroup CAN_Private_Defines
  44:STM32F10x_StdPeriph_Driver/src/stm32f10x_can.c ****   * @{
  45:STM32F10x_StdPeriph_Driver/src/stm32f10x_can.c ****   */
  46:STM32F10x_StdPeriph_Driver/src/stm32f10x_can.c **** 
  47:STM32F10x_StdPeriph_Driver/src/stm32f10x_can.c **** /* CAN Master Control Register bits */
  48:STM32F10x_StdPeriph_Driver/src/stm32f10x_can.c **** 
  49:STM32F10x_StdPeriph_Driver/src/stm32f10x_can.c **** #define MCR_DBF      ((uint32_t)0x00010000) /* software master reset */
  50:STM32F10x_StdPeriph_Driver/src/stm32f10x_can.c **** 
  51:STM32F10x_StdPeriph_Driver/src/stm32f10x_can.c **** /* CAN Mailbox Transmit Request */
  52:STM32F10x_StdPeriph_Driver/src/stm32f10x_can.c **** #define TMIDxR_TXRQ  ((uint32_t)0x00000001) /* Transmit mailbox request */
  53:STM32F10x_StdPeriph_Driver/src/stm32f10x_can.c **** 
  54:STM32F10x_StdPeriph_Driver/src/stm32f10x_can.c **** /* CAN Filter Master Register bits */
  55:STM32F10x_StdPeriph_Driver/src/stm32f10x_can.c **** #define FMR_FINIT    ((uint32_t)0x00000001) /* Filter init mode */
  56:STM32F10x_StdPeriph_Driver/src/stm32f10x_can.c **** 
  57:STM32F10x_StdPeriph_Driver/src/stm32f10x_can.c **** /* Time out for INAK bit */
  58:STM32F10x_StdPeriph_Driver/src/stm32f10x_can.c **** #define INAK_TIMEOUT        ((uint32_t)0x0000FFFF)
  59:STM32F10x_StdPeriph_Driver/src/stm32f10x_can.c **** /* Time out for SLAK bit */
  60:STM32F10x_StdPeriph_Driver/src/stm32f10x_can.c **** #define SLAK_TIMEOUT        ((uint32_t)0x0000FFFF)
  61:STM32F10x_StdPeriph_Driver/src/stm32f10x_can.c **** 
  62:STM32F10x_StdPeriph_Driver/src/stm32f10x_can.c **** 
  63:STM32F10x_StdPeriph_Driver/src/stm32f10x_can.c **** 
  64:STM32F10x_StdPeriph_Driver/src/stm32f10x_can.c **** /* Flags in TSR register */
  65:STM32F10x_StdPeriph_Driver/src/stm32f10x_can.c **** #define CAN_FLAGS_TSR              ((uint32_t)0x08000000) 
  66:STM32F10x_StdPeriph_Driver/src/stm32f10x_can.c **** /* Flags in RF1R register */
  67:STM32F10x_StdPeriph_Driver/src/stm32f10x_can.c **** #define CAN_FLAGS_RF1R             ((uint32_t)0x04000000) 
  68:STM32F10x_StdPeriph_Driver/src/stm32f10x_can.c **** /* Flags in RF0R register */
  69:STM32F10x_StdPeriph_Driver/src/stm32f10x_can.c **** #define CAN_FLAGS_RF0R             ((uint32_t)0x02000000) 
  70:STM32F10x_StdPeriph_Driver/src/stm32f10x_can.c **** /* Flags in MSR register */
  71:STM32F10x_StdPeriph_Driver/src/stm32f10x_can.c **** #define CAN_FLAGS_MSR              ((uint32_t)0x01000000) 
  72:STM32F10x_StdPeriph_Driver/src/stm32f10x_can.c **** /* Flags in ESR register */
  73:STM32F10x_StdPeriph_Driver/src/stm32f10x_can.c **** #define CAN_FLAGS_ESR              ((uint32_t)0x00F00000) 
  74:STM32F10x_StdPeriph_Driver/src/stm32f10x_can.c **** 
  75:STM32F10x_StdPeriph_Driver/src/stm32f10x_can.c **** /* Mailboxes definition */
  76:STM32F10x_StdPeriph_Driver/src/stm32f10x_can.c **** #define CAN_TXMAILBOX_0                   ((uint8_t)0x00)
  77:STM32F10x_StdPeriph_Driver/src/stm32f10x_can.c **** #define CAN_TXMAILBOX_1                   ((uint8_t)0x01)
  78:STM32F10x_StdPeriph_Driver/src/stm32f10x_can.c **** #define CAN_TXMAILBOX_2                   ((uint8_t)0x02) 
  79:STM32F10x_StdPeriph_Driver/src/stm32f10x_can.c **** 
  80:STM32F10x_StdPeriph_Driver/src/stm32f10x_can.c **** 
  81:STM32F10x_StdPeriph_Driver/src/stm32f10x_can.c **** 
  82:STM32F10x_StdPeriph_Driver/src/stm32f10x_can.c **** #define CAN_MODE_MASK              ((uint32_t) 0x00000003)
  83:STM32F10x_StdPeriph_Driver/src/stm32f10x_can.c **** /**
  84:STM32F10x_StdPeriph_Driver/src/stm32f10x_can.c ****   * @}
  85:STM32F10x_StdPeriph_Driver/src/stm32f10x_can.c ****   */
  86:STM32F10x_StdPeriph_Driver/src/stm32f10x_can.c **** 
  87:STM32F10x_StdPeriph_Driver/src/stm32f10x_can.c **** /** @defgroup CAN_Private_Macros
  88:STM32F10x_StdPeriph_Driver/src/stm32f10x_can.c ****   * @{
  89:STM32F10x_StdPeriph_Driver/src/stm32f10x_can.c ****   */
ARM GAS  C:\Users\kevin\AppData\Local\Temp\ccRSUIFU.s 			page 3


  90:STM32F10x_StdPeriph_Driver/src/stm32f10x_can.c **** 
  91:STM32F10x_StdPeriph_Driver/src/stm32f10x_can.c **** /**
  92:STM32F10x_StdPeriph_Driver/src/stm32f10x_can.c ****   * @}
  93:STM32F10x_StdPeriph_Driver/src/stm32f10x_can.c ****   */
  94:STM32F10x_StdPeriph_Driver/src/stm32f10x_can.c **** 
  95:STM32F10x_StdPeriph_Driver/src/stm32f10x_can.c **** /** @defgroup CAN_Private_Variables
  96:STM32F10x_StdPeriph_Driver/src/stm32f10x_can.c ****   * @{
  97:STM32F10x_StdPeriph_Driver/src/stm32f10x_can.c ****   */
  98:STM32F10x_StdPeriph_Driver/src/stm32f10x_can.c **** 
  99:STM32F10x_StdPeriph_Driver/src/stm32f10x_can.c **** /**
 100:STM32F10x_StdPeriph_Driver/src/stm32f10x_can.c ****   * @}
 101:STM32F10x_StdPeriph_Driver/src/stm32f10x_can.c ****   */
 102:STM32F10x_StdPeriph_Driver/src/stm32f10x_can.c **** 
 103:STM32F10x_StdPeriph_Driver/src/stm32f10x_can.c **** /** @defgroup CAN_Private_FunctionPrototypes
 104:STM32F10x_StdPeriph_Driver/src/stm32f10x_can.c ****   * @{
 105:STM32F10x_StdPeriph_Driver/src/stm32f10x_can.c ****   */
 106:STM32F10x_StdPeriph_Driver/src/stm32f10x_can.c **** 
 107:STM32F10x_StdPeriph_Driver/src/stm32f10x_can.c **** static ITStatus CheckITStatus(uint32_t CAN_Reg, uint32_t It_Bit);
 108:STM32F10x_StdPeriph_Driver/src/stm32f10x_can.c **** 
 109:STM32F10x_StdPeriph_Driver/src/stm32f10x_can.c **** /**
 110:STM32F10x_StdPeriph_Driver/src/stm32f10x_can.c ****   * @}
 111:STM32F10x_StdPeriph_Driver/src/stm32f10x_can.c ****   */
 112:STM32F10x_StdPeriph_Driver/src/stm32f10x_can.c **** 
 113:STM32F10x_StdPeriph_Driver/src/stm32f10x_can.c **** /** @defgroup CAN_Private_Functions
 114:STM32F10x_StdPeriph_Driver/src/stm32f10x_can.c ****   * @{
 115:STM32F10x_StdPeriph_Driver/src/stm32f10x_can.c ****   */
 116:STM32F10x_StdPeriph_Driver/src/stm32f10x_can.c **** 
 117:STM32F10x_StdPeriph_Driver/src/stm32f10x_can.c **** /**
 118:STM32F10x_StdPeriph_Driver/src/stm32f10x_can.c ****   * @brief  Deinitializes the CAN peripheral registers to their default reset values.
 119:STM32F10x_StdPeriph_Driver/src/stm32f10x_can.c ****   * @param  CANx: where x can be 1 or 2 to select the CAN peripheral.
 120:STM32F10x_StdPeriph_Driver/src/stm32f10x_can.c ****   * @retval None.
 121:STM32F10x_StdPeriph_Driver/src/stm32f10x_can.c ****   */
 122:STM32F10x_StdPeriph_Driver/src/stm32f10x_can.c **** void CAN_DeInit(CAN_TypeDef* CANx)
 123:STM32F10x_StdPeriph_Driver/src/stm32f10x_can.c **** {
 124:STM32F10x_StdPeriph_Driver/src/stm32f10x_can.c ****   /* Check the parameters */
 125:STM32F10x_StdPeriph_Driver/src/stm32f10x_can.c ****   assert_param(IS_CAN_ALL_PERIPH(CANx));
 126:STM32F10x_StdPeriph_Driver/src/stm32f10x_can.c ****  
 127:STM32F10x_StdPeriph_Driver/src/stm32f10x_can.c ****   if (CANx == CAN1)
 128:STM32F10x_StdPeriph_Driver/src/stm32f10x_can.c ****   {
 129:STM32F10x_StdPeriph_Driver/src/stm32f10x_can.c ****     /* Enable CAN1 reset state */
 130:STM32F10x_StdPeriph_Driver/src/stm32f10x_can.c ****     RCC_APB1PeriphResetCmd(RCC_APB1Periph_CAN1, ENABLE);
 131:STM32F10x_StdPeriph_Driver/src/stm32f10x_can.c ****     /* Release CAN1 from reset state */
 132:STM32F10x_StdPeriph_Driver/src/stm32f10x_can.c ****     RCC_APB1PeriphResetCmd(RCC_APB1Periph_CAN1, DISABLE);
 133:STM32F10x_StdPeriph_Driver/src/stm32f10x_can.c ****   }
 134:STM32F10x_StdPeriph_Driver/src/stm32f10x_can.c ****   else
 135:STM32F10x_StdPeriph_Driver/src/stm32f10x_can.c ****   {  
 136:STM32F10x_StdPeriph_Driver/src/stm32f10x_can.c ****     /* Enable CAN2 reset state */
 137:STM32F10x_StdPeriph_Driver/src/stm32f10x_can.c ****     RCC_APB1PeriphResetCmd(RCC_APB1Periph_CAN2, ENABLE);
 138:STM32F10x_StdPeriph_Driver/src/stm32f10x_can.c ****     /* Release CAN2 from reset state */
 139:STM32F10x_StdPeriph_Driver/src/stm32f10x_can.c ****     RCC_APB1PeriphResetCmd(RCC_APB1Periph_CAN2, DISABLE);
 140:STM32F10x_StdPeriph_Driver/src/stm32f10x_can.c ****   }
 141:STM32F10x_StdPeriph_Driver/src/stm32f10x_can.c **** }
 142:STM32F10x_StdPeriph_Driver/src/stm32f10x_can.c **** 
 143:STM32F10x_StdPeriph_Driver/src/stm32f10x_can.c **** /**
 144:STM32F10x_StdPeriph_Driver/src/stm32f10x_can.c ****   * @brief  Initializes the CAN peripheral according to the specified
 145:STM32F10x_StdPeriph_Driver/src/stm32f10x_can.c ****   *         parameters in the CAN_InitStruct.
 146:STM32F10x_StdPeriph_Driver/src/stm32f10x_can.c ****   * @param  CANx:           where x can be 1 or 2 to to select the CAN 
ARM GAS  C:\Users\kevin\AppData\Local\Temp\ccRSUIFU.s 			page 4


 147:STM32F10x_StdPeriph_Driver/src/stm32f10x_can.c ****   *                         peripheral.
 148:STM32F10x_StdPeriph_Driver/src/stm32f10x_can.c ****   * @param  CAN_InitStruct: pointer to a CAN_InitTypeDef structure that
 149:STM32F10x_StdPeriph_Driver/src/stm32f10x_can.c ****   *                         contains the configuration information for the 
 150:STM32F10x_StdPeriph_Driver/src/stm32f10x_can.c ****   *                         CAN peripheral.
 151:STM32F10x_StdPeriph_Driver/src/stm32f10x_can.c ****   * @retval Constant indicates initialization succeed which will be 
 152:STM32F10x_StdPeriph_Driver/src/stm32f10x_can.c ****   *         CAN_InitStatus_Failed or CAN_InitStatus_Success.
 153:STM32F10x_StdPeriph_Driver/src/stm32f10x_can.c ****   */
 154:STM32F10x_StdPeriph_Driver/src/stm32f10x_can.c **** uint8_t CAN_Init(CAN_TypeDef* CANx, CAN_InitTypeDef* CAN_InitStruct)
 155:STM32F10x_StdPeriph_Driver/src/stm32f10x_can.c **** {
 156:STM32F10x_StdPeriph_Driver/src/stm32f10x_can.c ****   uint8_t InitStatus = CAN_InitStatus_Failed;
 157:STM32F10x_StdPeriph_Driver/src/stm32f10x_can.c ****   uint32_t wait_ack = 0x00000000;
 158:STM32F10x_StdPeriph_Driver/src/stm32f10x_can.c ****   /* Check the parameters */
 159:STM32F10x_StdPeriph_Driver/src/stm32f10x_can.c ****   assert_param(IS_CAN_ALL_PERIPH(CANx));
 160:STM32F10x_StdPeriph_Driver/src/stm32f10x_can.c ****   assert_param(IS_FUNCTIONAL_STATE(CAN_InitStruct->CAN_TTCM));
 161:STM32F10x_StdPeriph_Driver/src/stm32f10x_can.c ****   assert_param(IS_FUNCTIONAL_STATE(CAN_InitStruct->CAN_ABOM));
 162:STM32F10x_StdPeriph_Driver/src/stm32f10x_can.c ****   assert_param(IS_FUNCTIONAL_STATE(CAN_InitStruct->CAN_AWUM));
 163:STM32F10x_StdPeriph_Driver/src/stm32f10x_can.c ****   assert_param(IS_FUNCTIONAL_STATE(CAN_InitStruct->CAN_NART));
 164:STM32F10x_StdPeriph_Driver/src/stm32f10x_can.c ****   assert_param(IS_FUNCTIONAL_STATE(CAN_InitStruct->CAN_RFLM));
 165:STM32F10x_StdPeriph_Driver/src/stm32f10x_can.c ****   assert_param(IS_FUNCTIONAL_STATE(CAN_InitStruct->CAN_TXFP));
 166:STM32F10x_StdPeriph_Driver/src/stm32f10x_can.c ****   assert_param(IS_CAN_MODE(CAN_InitStruct->CAN_Mode));
 167:STM32F10x_StdPeriph_Driver/src/stm32f10x_can.c ****   assert_param(IS_CAN_SJW(CAN_InitStruct->CAN_SJW));
 168:STM32F10x_StdPeriph_Driver/src/stm32f10x_can.c ****   assert_param(IS_CAN_BS1(CAN_InitStruct->CAN_BS1));
 169:STM32F10x_StdPeriph_Driver/src/stm32f10x_can.c ****   assert_param(IS_CAN_BS2(CAN_InitStruct->CAN_BS2));
 170:STM32F10x_StdPeriph_Driver/src/stm32f10x_can.c ****   assert_param(IS_CAN_PRESCALER(CAN_InitStruct->CAN_Prescaler));
 171:STM32F10x_StdPeriph_Driver/src/stm32f10x_can.c **** 
 172:STM32F10x_StdPeriph_Driver/src/stm32f10x_can.c ****   /* Exit from sleep mode */
 173:STM32F10x_StdPeriph_Driver/src/stm32f10x_can.c ****   CANx->MCR &= (~(uint32_t)CAN_MCR_SLEEP);
 174:STM32F10x_StdPeriph_Driver/src/stm32f10x_can.c **** 
 175:STM32F10x_StdPeriph_Driver/src/stm32f10x_can.c ****   /* Request initialisation */
 176:STM32F10x_StdPeriph_Driver/src/stm32f10x_can.c ****   CANx->MCR |= CAN_MCR_INRQ ;
 177:STM32F10x_StdPeriph_Driver/src/stm32f10x_can.c **** 
 178:STM32F10x_StdPeriph_Driver/src/stm32f10x_can.c ****   /* Wait the acknowledge */
 179:STM32F10x_StdPeriph_Driver/src/stm32f10x_can.c ****   while (((CANx->MSR & CAN_MSR_INAK) != CAN_MSR_INAK) && (wait_ack != INAK_TIMEOUT))
 180:STM32F10x_StdPeriph_Driver/src/stm32f10x_can.c ****   {
 181:STM32F10x_StdPeriph_Driver/src/stm32f10x_can.c ****     wait_ack++;
 182:STM32F10x_StdPeriph_Driver/src/stm32f10x_can.c ****   }
 183:STM32F10x_StdPeriph_Driver/src/stm32f10x_can.c **** 
 184:STM32F10x_StdPeriph_Driver/src/stm32f10x_can.c ****   /* Check acknowledge */
 185:STM32F10x_StdPeriph_Driver/src/stm32f10x_can.c ****   if ((CANx->MSR & CAN_MSR_INAK) != CAN_MSR_INAK)
 186:STM32F10x_StdPeriph_Driver/src/stm32f10x_can.c ****   {
 187:STM32F10x_StdPeriph_Driver/src/stm32f10x_can.c ****     InitStatus = CAN_InitStatus_Failed;
 188:STM32F10x_StdPeriph_Driver/src/stm32f10x_can.c ****   }
 189:STM32F10x_StdPeriph_Driver/src/stm32f10x_can.c ****   else 
 190:STM32F10x_StdPeriph_Driver/src/stm32f10x_can.c ****   {
 191:STM32F10x_StdPeriph_Driver/src/stm32f10x_can.c ****     /* Set the time triggered communication mode */
 192:STM32F10x_StdPeriph_Driver/src/stm32f10x_can.c ****     if (CAN_InitStruct->CAN_TTCM == ENABLE)
 193:STM32F10x_StdPeriph_Driver/src/stm32f10x_can.c ****     {
 194:STM32F10x_StdPeriph_Driver/src/stm32f10x_can.c ****       CANx->MCR |= CAN_MCR_TTCM;
 195:STM32F10x_StdPeriph_Driver/src/stm32f10x_can.c ****     }
 196:STM32F10x_StdPeriph_Driver/src/stm32f10x_can.c ****     else
 197:STM32F10x_StdPeriph_Driver/src/stm32f10x_can.c ****     {
 198:STM32F10x_StdPeriph_Driver/src/stm32f10x_can.c ****       CANx->MCR &= ~(uint32_t)CAN_MCR_TTCM;
 199:STM32F10x_StdPeriph_Driver/src/stm32f10x_can.c ****     }
 200:STM32F10x_StdPeriph_Driver/src/stm32f10x_can.c **** 
 201:STM32F10x_StdPeriph_Driver/src/stm32f10x_can.c ****     /* Set the automatic bus-off management */
 202:STM32F10x_StdPeriph_Driver/src/stm32f10x_can.c ****     if (CAN_InitStruct->CAN_ABOM == ENABLE)
 203:STM32F10x_StdPeriph_Driver/src/stm32f10x_can.c ****     {
ARM GAS  C:\Users\kevin\AppData\Local\Temp\ccRSUIFU.s 			page 5


 204:STM32F10x_StdPeriph_Driver/src/stm32f10x_can.c ****       CANx->MCR |= CAN_MCR_ABOM;
 205:STM32F10x_StdPeriph_Driver/src/stm32f10x_can.c ****     }
 206:STM32F10x_StdPeriph_Driver/src/stm32f10x_can.c ****     else
 207:STM32F10x_StdPeriph_Driver/src/stm32f10x_can.c ****     {
 208:STM32F10x_StdPeriph_Driver/src/stm32f10x_can.c ****       CANx->MCR &= ~(uint32_t)CAN_MCR_ABOM;
 209:STM32F10x_StdPeriph_Driver/src/stm32f10x_can.c ****     }
 210:STM32F10x_StdPeriph_Driver/src/stm32f10x_can.c **** 
 211:STM32F10x_StdPeriph_Driver/src/stm32f10x_can.c ****     /* Set the automatic wake-up mode */
 212:STM32F10x_StdPeriph_Driver/src/stm32f10x_can.c ****     if (CAN_InitStruct->CAN_AWUM == ENABLE)
 213:STM32F10x_StdPeriph_Driver/src/stm32f10x_can.c ****     {
 214:STM32F10x_StdPeriph_Driver/src/stm32f10x_can.c ****       CANx->MCR |= CAN_MCR_AWUM;
 215:STM32F10x_StdPeriph_Driver/src/stm32f10x_can.c ****     }
 216:STM32F10x_StdPeriph_Driver/src/stm32f10x_can.c ****     else
 217:STM32F10x_StdPeriph_Driver/src/stm32f10x_can.c ****     {
 218:STM32F10x_StdPeriph_Driver/src/stm32f10x_can.c ****       CANx->MCR &= ~(uint32_t)CAN_MCR_AWUM;
 219:STM32F10x_StdPeriph_Driver/src/stm32f10x_can.c ****     }
 220:STM32F10x_StdPeriph_Driver/src/stm32f10x_can.c **** 
 221:STM32F10x_StdPeriph_Driver/src/stm32f10x_can.c ****     /* Set the no automatic retransmission */
 222:STM32F10x_StdPeriph_Driver/src/stm32f10x_can.c ****     if (CAN_InitStruct->CAN_NART == ENABLE)
 223:STM32F10x_StdPeriph_Driver/src/stm32f10x_can.c ****     {
 224:STM32F10x_StdPeriph_Driver/src/stm32f10x_can.c ****       CANx->MCR |= CAN_MCR_NART;
 225:STM32F10x_StdPeriph_Driver/src/stm32f10x_can.c ****     }
 226:STM32F10x_StdPeriph_Driver/src/stm32f10x_can.c ****     else
 227:STM32F10x_StdPeriph_Driver/src/stm32f10x_can.c ****     {
 228:STM32F10x_StdPeriph_Driver/src/stm32f10x_can.c ****       CANx->MCR &= ~(uint32_t)CAN_MCR_NART;
 229:STM32F10x_StdPeriph_Driver/src/stm32f10x_can.c ****     }
 230:STM32F10x_StdPeriph_Driver/src/stm32f10x_can.c **** 
 231:STM32F10x_StdPeriph_Driver/src/stm32f10x_can.c ****     /* Set the receive FIFO locked mode */
 232:STM32F10x_StdPeriph_Driver/src/stm32f10x_can.c ****     if (CAN_InitStruct->CAN_RFLM == ENABLE)
 233:STM32F10x_StdPeriph_Driver/src/stm32f10x_can.c ****     {
 234:STM32F10x_StdPeriph_Driver/src/stm32f10x_can.c ****       CANx->MCR |= CAN_MCR_RFLM;
 235:STM32F10x_StdPeriph_Driver/src/stm32f10x_can.c ****     }
 236:STM32F10x_StdPeriph_Driver/src/stm32f10x_can.c ****     else
 237:STM32F10x_StdPeriph_Driver/src/stm32f10x_can.c ****     {
 238:STM32F10x_StdPeriph_Driver/src/stm32f10x_can.c ****       CANx->MCR &= ~(uint32_t)CAN_MCR_RFLM;
 239:STM32F10x_StdPeriph_Driver/src/stm32f10x_can.c ****     }
 240:STM32F10x_StdPeriph_Driver/src/stm32f10x_can.c **** 
 241:STM32F10x_StdPeriph_Driver/src/stm32f10x_can.c ****     /* Set the transmit FIFO priority */
 242:STM32F10x_StdPeriph_Driver/src/stm32f10x_can.c ****     if (CAN_InitStruct->CAN_TXFP == ENABLE)
 243:STM32F10x_StdPeriph_Driver/src/stm32f10x_can.c ****     {
 244:STM32F10x_StdPeriph_Driver/src/stm32f10x_can.c ****       CANx->MCR |= CAN_MCR_TXFP;
 245:STM32F10x_StdPeriph_Driver/src/stm32f10x_can.c ****     }
 246:STM32F10x_StdPeriph_Driver/src/stm32f10x_can.c ****     else
 247:STM32F10x_StdPeriph_Driver/src/stm32f10x_can.c ****     {
 248:STM32F10x_StdPeriph_Driver/src/stm32f10x_can.c ****       CANx->MCR &= ~(uint32_t)CAN_MCR_TXFP;
 249:STM32F10x_StdPeriph_Driver/src/stm32f10x_can.c ****     }
 250:STM32F10x_StdPeriph_Driver/src/stm32f10x_can.c **** 
 251:STM32F10x_StdPeriph_Driver/src/stm32f10x_can.c ****     /* Set the bit timing register */
 252:STM32F10x_StdPeriph_Driver/src/stm32f10x_can.c ****     CANx->BTR = (uint32_t)((uint32_t)CAN_InitStruct->CAN_Mode << 30) | \
 253:STM32F10x_StdPeriph_Driver/src/stm32f10x_can.c ****                 ((uint32_t)CAN_InitStruct->CAN_SJW << 24) | \
 254:STM32F10x_StdPeriph_Driver/src/stm32f10x_can.c ****                 ((uint32_t)CAN_InitStruct->CAN_BS1 << 16) | \
 255:STM32F10x_StdPeriph_Driver/src/stm32f10x_can.c ****                 ((uint32_t)CAN_InitStruct->CAN_BS2 << 20) | \
 256:STM32F10x_StdPeriph_Driver/src/stm32f10x_can.c ****                ((uint32_t)CAN_InitStruct->CAN_Prescaler - 1);
 257:STM32F10x_StdPeriph_Driver/src/stm32f10x_can.c **** 
 258:STM32F10x_StdPeriph_Driver/src/stm32f10x_can.c ****     /* Request leave initialisation */
 259:STM32F10x_StdPeriph_Driver/src/stm32f10x_can.c ****     CANx->MCR &= ~(uint32_t)CAN_MCR_INRQ;
 260:STM32F10x_StdPeriph_Driver/src/stm32f10x_can.c **** 
ARM GAS  C:\Users\kevin\AppData\Local\Temp\ccRSUIFU.s 			page 6


 261:STM32F10x_StdPeriph_Driver/src/stm32f10x_can.c ****    /* Wait the acknowledge */
 262:STM32F10x_StdPeriph_Driver/src/stm32f10x_can.c ****    wait_ack = 0;
 263:STM32F10x_StdPeriph_Driver/src/stm32f10x_can.c **** 
 264:STM32F10x_StdPeriph_Driver/src/stm32f10x_can.c ****    while (((CANx->MSR & CAN_MSR_INAK) == CAN_MSR_INAK) && (wait_ack != INAK_TIMEOUT))
 265:STM32F10x_StdPeriph_Driver/src/stm32f10x_can.c ****    {
 266:STM32F10x_StdPeriph_Driver/src/stm32f10x_can.c ****      wait_ack++;
 267:STM32F10x_StdPeriph_Driver/src/stm32f10x_can.c ****    }
 268:STM32F10x_StdPeriph_Driver/src/stm32f10x_can.c **** 
 269:STM32F10x_StdPeriph_Driver/src/stm32f10x_can.c ****     /* ...and check acknowledged */
 270:STM32F10x_StdPeriph_Driver/src/stm32f10x_can.c ****     if ((CANx->MSR & CAN_MSR_INAK) == CAN_MSR_INAK)
 271:STM32F10x_StdPeriph_Driver/src/stm32f10x_can.c ****     {
 272:STM32F10x_StdPeriph_Driver/src/stm32f10x_can.c ****       InitStatus = CAN_InitStatus_Failed;
 273:STM32F10x_StdPeriph_Driver/src/stm32f10x_can.c ****     }
 274:STM32F10x_StdPeriph_Driver/src/stm32f10x_can.c ****     else
 275:STM32F10x_StdPeriph_Driver/src/stm32f10x_can.c ****     {
 276:STM32F10x_StdPeriph_Driver/src/stm32f10x_can.c ****       InitStatus = CAN_InitStatus_Success ;
 277:STM32F10x_StdPeriph_Driver/src/stm32f10x_can.c ****     }
 278:STM32F10x_StdPeriph_Driver/src/stm32f10x_can.c ****   }
 279:STM32F10x_StdPeriph_Driver/src/stm32f10x_can.c **** 
 280:STM32F10x_StdPeriph_Driver/src/stm32f10x_can.c ****   /* At this step, return the status of initialization */
 281:STM32F10x_StdPeriph_Driver/src/stm32f10x_can.c ****   return InitStatus;
 282:STM32F10x_StdPeriph_Driver/src/stm32f10x_can.c **** }
 283:STM32F10x_StdPeriph_Driver/src/stm32f10x_can.c **** 
 284:STM32F10x_StdPeriph_Driver/src/stm32f10x_can.c **** /**
 285:STM32F10x_StdPeriph_Driver/src/stm32f10x_can.c ****   * @brief  Initializes the CAN peripheral according to the specified
 286:STM32F10x_StdPeriph_Driver/src/stm32f10x_can.c ****   *         parameters in the CAN_FilterInitStruct.
 287:STM32F10x_StdPeriph_Driver/src/stm32f10x_can.c ****   * @param  CAN_FilterInitStruct: pointer to a CAN_FilterInitTypeDef
 288:STM32F10x_StdPeriph_Driver/src/stm32f10x_can.c ****   *                               structure that contains the configuration 
 289:STM32F10x_StdPeriph_Driver/src/stm32f10x_can.c ****   *                               information.
 290:STM32F10x_StdPeriph_Driver/src/stm32f10x_can.c ****   * @retval None.
 291:STM32F10x_StdPeriph_Driver/src/stm32f10x_can.c ****   */
 292:STM32F10x_StdPeriph_Driver/src/stm32f10x_can.c **** void CAN_FilterInit(CAN_FilterInitTypeDef* CAN_FilterInitStruct)
 293:STM32F10x_StdPeriph_Driver/src/stm32f10x_can.c **** {
 294:STM32F10x_StdPeriph_Driver/src/stm32f10x_can.c ****   uint32_t filter_number_bit_pos = 0;
 295:STM32F10x_StdPeriph_Driver/src/stm32f10x_can.c ****   /* Check the parameters */
 296:STM32F10x_StdPeriph_Driver/src/stm32f10x_can.c ****   assert_param(IS_CAN_FILTER_NUMBER(CAN_FilterInitStruct->CAN_FilterNumber));
 297:STM32F10x_StdPeriph_Driver/src/stm32f10x_can.c ****   assert_param(IS_CAN_FILTER_MODE(CAN_FilterInitStruct->CAN_FilterMode));
 298:STM32F10x_StdPeriph_Driver/src/stm32f10x_can.c ****   assert_param(IS_CAN_FILTER_SCALE(CAN_FilterInitStruct->CAN_FilterScale));
 299:STM32F10x_StdPeriph_Driver/src/stm32f10x_can.c ****   assert_param(IS_CAN_FILTER_FIFO(CAN_FilterInitStruct->CAN_FilterFIFOAssignment));
 300:STM32F10x_StdPeriph_Driver/src/stm32f10x_can.c ****   assert_param(IS_FUNCTIONAL_STATE(CAN_FilterInitStruct->CAN_FilterActivation));
 301:STM32F10x_StdPeriph_Driver/src/stm32f10x_can.c **** 
 302:STM32F10x_StdPeriph_Driver/src/stm32f10x_can.c ****   filter_number_bit_pos = ((uint32_t)1) << CAN_FilterInitStruct->CAN_FilterNumber;
 303:STM32F10x_StdPeriph_Driver/src/stm32f10x_can.c **** 
 304:STM32F10x_StdPeriph_Driver/src/stm32f10x_can.c ****   /* Initialisation mode for the filter */
 305:STM32F10x_StdPeriph_Driver/src/stm32f10x_can.c ****   CAN1->FMR |= FMR_FINIT;
 306:STM32F10x_StdPeriph_Driver/src/stm32f10x_can.c **** 
 307:STM32F10x_StdPeriph_Driver/src/stm32f10x_can.c ****   /* Filter Deactivation */
 308:STM32F10x_StdPeriph_Driver/src/stm32f10x_can.c ****   CAN1->FA1R &= ~(uint32_t)filter_number_bit_pos;
 309:STM32F10x_StdPeriph_Driver/src/stm32f10x_can.c **** 
 310:STM32F10x_StdPeriph_Driver/src/stm32f10x_can.c ****   /* Filter Scale */
 311:STM32F10x_StdPeriph_Driver/src/stm32f10x_can.c ****   if (CAN_FilterInitStruct->CAN_FilterScale == CAN_FilterScale_16bit)
 312:STM32F10x_StdPeriph_Driver/src/stm32f10x_can.c ****   {
 313:STM32F10x_StdPeriph_Driver/src/stm32f10x_can.c ****     /* 16-bit scale for the filter */
 314:STM32F10x_StdPeriph_Driver/src/stm32f10x_can.c ****     CAN1->FS1R &= ~(uint32_t)filter_number_bit_pos;
 315:STM32F10x_StdPeriph_Driver/src/stm32f10x_can.c **** 
 316:STM32F10x_StdPeriph_Driver/src/stm32f10x_can.c ****     /* First 16-bit identifier and First 16-bit mask */
 317:STM32F10x_StdPeriph_Driver/src/stm32f10x_can.c ****     /* Or First 16-bit identifier and Second 16-bit identifier */
ARM GAS  C:\Users\kevin\AppData\Local\Temp\ccRSUIFU.s 			page 7


 318:STM32F10x_StdPeriph_Driver/src/stm32f10x_can.c ****     CAN1->sFilterRegister[CAN_FilterInitStruct->CAN_FilterNumber].FR1 = 
 319:STM32F10x_StdPeriph_Driver/src/stm32f10x_can.c ****     ((0x0000FFFF & (uint32_t)CAN_FilterInitStruct->CAN_FilterMaskIdLow) << 16) |
 320:STM32F10x_StdPeriph_Driver/src/stm32f10x_can.c ****         (0x0000FFFF & (uint32_t)CAN_FilterInitStruct->CAN_FilterIdLow);
 321:STM32F10x_StdPeriph_Driver/src/stm32f10x_can.c **** 
 322:STM32F10x_StdPeriph_Driver/src/stm32f10x_can.c ****     /* Second 16-bit identifier and Second 16-bit mask */
 323:STM32F10x_StdPeriph_Driver/src/stm32f10x_can.c ****     /* Or Third 16-bit identifier and Fourth 16-bit identifier */
 324:STM32F10x_StdPeriph_Driver/src/stm32f10x_can.c ****     CAN1->sFilterRegister[CAN_FilterInitStruct->CAN_FilterNumber].FR2 = 
 325:STM32F10x_StdPeriph_Driver/src/stm32f10x_can.c ****     ((0x0000FFFF & (uint32_t)CAN_FilterInitStruct->CAN_FilterMaskIdHigh) << 16) |
 326:STM32F10x_StdPeriph_Driver/src/stm32f10x_can.c ****         (0x0000FFFF & (uint32_t)CAN_FilterInitStruct->CAN_FilterIdHigh);
 327:STM32F10x_StdPeriph_Driver/src/stm32f10x_can.c ****   }
 328:STM32F10x_StdPeriph_Driver/src/stm32f10x_can.c **** 
 329:STM32F10x_StdPeriph_Driver/src/stm32f10x_can.c ****   if (CAN_FilterInitStruct->CAN_FilterScale == CAN_FilterScale_32bit)
 330:STM32F10x_StdPeriph_Driver/src/stm32f10x_can.c ****   {
 331:STM32F10x_StdPeriph_Driver/src/stm32f10x_can.c ****     /* 32-bit scale for the filter */
 332:STM32F10x_StdPeriph_Driver/src/stm32f10x_can.c ****     CAN1->FS1R |= filter_number_bit_pos;
 333:STM32F10x_StdPeriph_Driver/src/stm32f10x_can.c ****     /* 32-bit identifier or First 32-bit identifier */
 334:STM32F10x_StdPeriph_Driver/src/stm32f10x_can.c ****     CAN1->sFilterRegister[CAN_FilterInitStruct->CAN_FilterNumber].FR1 = 
 335:STM32F10x_StdPeriph_Driver/src/stm32f10x_can.c ****     ((0x0000FFFF & (uint32_t)CAN_FilterInitStruct->CAN_FilterIdHigh) << 16) |
 336:STM32F10x_StdPeriph_Driver/src/stm32f10x_can.c ****         (0x0000FFFF & (uint32_t)CAN_FilterInitStruct->CAN_FilterIdLow);
 337:STM32F10x_StdPeriph_Driver/src/stm32f10x_can.c ****     /* 32-bit mask or Second 32-bit identifier */
 338:STM32F10x_StdPeriph_Driver/src/stm32f10x_can.c ****     CAN1->sFilterRegister[CAN_FilterInitStruct->CAN_FilterNumber].FR2 = 
 339:STM32F10x_StdPeriph_Driver/src/stm32f10x_can.c ****     ((0x0000FFFF & (uint32_t)CAN_FilterInitStruct->CAN_FilterMaskIdHigh) << 16) |
 340:STM32F10x_StdPeriph_Driver/src/stm32f10x_can.c ****         (0x0000FFFF & (uint32_t)CAN_FilterInitStruct->CAN_FilterMaskIdLow);
 341:STM32F10x_StdPeriph_Driver/src/stm32f10x_can.c ****   }
 342:STM32F10x_StdPeriph_Driver/src/stm32f10x_can.c **** 
 343:STM32F10x_StdPeriph_Driver/src/stm32f10x_can.c ****   /* Filter Mode */
 344:STM32F10x_StdPeriph_Driver/src/stm32f10x_can.c ****   if (CAN_FilterInitStruct->CAN_FilterMode == CAN_FilterMode_IdMask)
 345:STM32F10x_StdPeriph_Driver/src/stm32f10x_can.c ****   {
 346:STM32F10x_StdPeriph_Driver/src/stm32f10x_can.c ****     /*Id/Mask mode for the filter*/
 347:STM32F10x_StdPeriph_Driver/src/stm32f10x_can.c ****     CAN1->FM1R &= ~(uint32_t)filter_number_bit_pos;
 348:STM32F10x_StdPeriph_Driver/src/stm32f10x_can.c ****   }
 349:STM32F10x_StdPeriph_Driver/src/stm32f10x_can.c ****   else /* CAN_FilterInitStruct->CAN_FilterMode == CAN_FilterMode_IdList */
 350:STM32F10x_StdPeriph_Driver/src/stm32f10x_can.c ****   {
 351:STM32F10x_StdPeriph_Driver/src/stm32f10x_can.c ****     /*Identifier list mode for the filter*/
 352:STM32F10x_StdPeriph_Driver/src/stm32f10x_can.c ****     CAN1->FM1R |= (uint32_t)filter_number_bit_pos;
 353:STM32F10x_StdPeriph_Driver/src/stm32f10x_can.c ****   }
 354:STM32F10x_StdPeriph_Driver/src/stm32f10x_can.c **** 
 355:STM32F10x_StdPeriph_Driver/src/stm32f10x_can.c ****   /* Filter FIFO assignment */
 356:STM32F10x_StdPeriph_Driver/src/stm32f10x_can.c ****   if (CAN_FilterInitStruct->CAN_FilterFIFOAssignment == CAN_Filter_FIFO0)
 357:STM32F10x_StdPeriph_Driver/src/stm32f10x_can.c ****   {
 358:STM32F10x_StdPeriph_Driver/src/stm32f10x_can.c ****     /* FIFO 0 assignation for the filter */
 359:STM32F10x_StdPeriph_Driver/src/stm32f10x_can.c ****     CAN1->FFA1R &= ~(uint32_t)filter_number_bit_pos;
 360:STM32F10x_StdPeriph_Driver/src/stm32f10x_can.c ****   }
 361:STM32F10x_StdPeriph_Driver/src/stm32f10x_can.c **** 
 362:STM32F10x_StdPeriph_Driver/src/stm32f10x_can.c ****   if (CAN_FilterInitStruct->CAN_FilterFIFOAssignment == CAN_Filter_FIFO1)
 363:STM32F10x_StdPeriph_Driver/src/stm32f10x_can.c ****   {
 364:STM32F10x_StdPeriph_Driver/src/stm32f10x_can.c ****     /* FIFO 1 assignation for the filter */
 365:STM32F10x_StdPeriph_Driver/src/stm32f10x_can.c ****     CAN1->FFA1R |= (uint32_t)filter_number_bit_pos;
 366:STM32F10x_StdPeriph_Driver/src/stm32f10x_can.c ****   }
 367:STM32F10x_StdPeriph_Driver/src/stm32f10x_can.c ****   
 368:STM32F10x_StdPeriph_Driver/src/stm32f10x_can.c ****   /* Filter activation */
 369:STM32F10x_StdPeriph_Driver/src/stm32f10x_can.c ****   if (CAN_FilterInitStruct->CAN_FilterActivation == ENABLE)
 370:STM32F10x_StdPeriph_Driver/src/stm32f10x_can.c ****   {
 371:STM32F10x_StdPeriph_Driver/src/stm32f10x_can.c ****     CAN1->FA1R |= filter_number_bit_pos;
 372:STM32F10x_StdPeriph_Driver/src/stm32f10x_can.c ****   }
 373:STM32F10x_StdPeriph_Driver/src/stm32f10x_can.c **** 
 374:STM32F10x_StdPeriph_Driver/src/stm32f10x_can.c ****   /* Leave the initialisation mode for the filter */
ARM GAS  C:\Users\kevin\AppData\Local\Temp\ccRSUIFU.s 			page 8


 375:STM32F10x_StdPeriph_Driver/src/stm32f10x_can.c ****   CAN1->FMR &= ~FMR_FINIT;
 376:STM32F10x_StdPeriph_Driver/src/stm32f10x_can.c **** }
 377:STM32F10x_StdPeriph_Driver/src/stm32f10x_can.c **** 
 378:STM32F10x_StdPeriph_Driver/src/stm32f10x_can.c **** /**
 379:STM32F10x_StdPeriph_Driver/src/stm32f10x_can.c ****   * @brief  Fills each CAN_InitStruct member with its default value.
 380:STM32F10x_StdPeriph_Driver/src/stm32f10x_can.c ****   * @param  CAN_InitStruct: pointer to a CAN_InitTypeDef structure which
 381:STM32F10x_StdPeriph_Driver/src/stm32f10x_can.c ****   *                         will be initialized.
 382:STM32F10x_StdPeriph_Driver/src/stm32f10x_can.c ****   * @retval None.
 383:STM32F10x_StdPeriph_Driver/src/stm32f10x_can.c ****   */
 384:STM32F10x_StdPeriph_Driver/src/stm32f10x_can.c **** void CAN_StructInit(CAN_InitTypeDef* CAN_InitStruct)
 385:STM32F10x_StdPeriph_Driver/src/stm32f10x_can.c **** {
 386:STM32F10x_StdPeriph_Driver/src/stm32f10x_can.c ****   /* Reset CAN init structure parameters values */
 387:STM32F10x_StdPeriph_Driver/src/stm32f10x_can.c ****   
 388:STM32F10x_StdPeriph_Driver/src/stm32f10x_can.c ****   /* Initialize the time triggered communication mode */
 389:STM32F10x_StdPeriph_Driver/src/stm32f10x_can.c ****   CAN_InitStruct->CAN_TTCM = DISABLE;
 390:STM32F10x_StdPeriph_Driver/src/stm32f10x_can.c ****   
 391:STM32F10x_StdPeriph_Driver/src/stm32f10x_can.c ****   /* Initialize the automatic bus-off management */
 392:STM32F10x_StdPeriph_Driver/src/stm32f10x_can.c ****   CAN_InitStruct->CAN_ABOM = DISABLE;
 393:STM32F10x_StdPeriph_Driver/src/stm32f10x_can.c ****   
 394:STM32F10x_StdPeriph_Driver/src/stm32f10x_can.c ****   /* Initialize the automatic wake-up mode */
 395:STM32F10x_StdPeriph_Driver/src/stm32f10x_can.c ****   CAN_InitStruct->CAN_AWUM = DISABLE;
 396:STM32F10x_StdPeriph_Driver/src/stm32f10x_can.c ****   
 397:STM32F10x_StdPeriph_Driver/src/stm32f10x_can.c ****   /* Initialize the no automatic retransmission */
 398:STM32F10x_StdPeriph_Driver/src/stm32f10x_can.c ****   CAN_InitStruct->CAN_NART = DISABLE;
 399:STM32F10x_StdPeriph_Driver/src/stm32f10x_can.c ****   
 400:STM32F10x_StdPeriph_Driver/src/stm32f10x_can.c ****   /* Initialize the receive FIFO locked mode */
 401:STM32F10x_StdPeriph_Driver/src/stm32f10x_can.c ****   CAN_InitStruct->CAN_RFLM = DISABLE;
 402:STM32F10x_StdPeriph_Driver/src/stm32f10x_can.c ****   
 403:STM32F10x_StdPeriph_Driver/src/stm32f10x_can.c ****   /* Initialize the transmit FIFO priority */
 404:STM32F10x_StdPeriph_Driver/src/stm32f10x_can.c ****   CAN_InitStruct->CAN_TXFP = DISABLE;
 405:STM32F10x_StdPeriph_Driver/src/stm32f10x_can.c ****   
 406:STM32F10x_StdPeriph_Driver/src/stm32f10x_can.c ****   /* Initialize the CAN_Mode member */
 407:STM32F10x_StdPeriph_Driver/src/stm32f10x_can.c ****   CAN_InitStruct->CAN_Mode = CAN_Mode_Normal;
 408:STM32F10x_StdPeriph_Driver/src/stm32f10x_can.c ****   
 409:STM32F10x_StdPeriph_Driver/src/stm32f10x_can.c ****   /* Initialize the CAN_SJW member */
 410:STM32F10x_StdPeriph_Driver/src/stm32f10x_can.c ****   CAN_InitStruct->CAN_SJW = CAN_SJW_1tq;
 411:STM32F10x_StdPeriph_Driver/src/stm32f10x_can.c ****   
 412:STM32F10x_StdPeriph_Driver/src/stm32f10x_can.c ****   /* Initialize the CAN_BS1 member */
 413:STM32F10x_StdPeriph_Driver/src/stm32f10x_can.c ****   CAN_InitStruct->CAN_BS1 = CAN_BS1_4tq;
 414:STM32F10x_StdPeriph_Driver/src/stm32f10x_can.c ****   
 415:STM32F10x_StdPeriph_Driver/src/stm32f10x_can.c ****   /* Initialize the CAN_BS2 member */
 416:STM32F10x_StdPeriph_Driver/src/stm32f10x_can.c ****   CAN_InitStruct->CAN_BS2 = CAN_BS2_3tq;
 417:STM32F10x_StdPeriph_Driver/src/stm32f10x_can.c ****   
 418:STM32F10x_StdPeriph_Driver/src/stm32f10x_can.c ****   /* Initialize the CAN_Prescaler member */
 419:STM32F10x_StdPeriph_Driver/src/stm32f10x_can.c ****   CAN_InitStruct->CAN_Prescaler = 1;
 420:STM32F10x_StdPeriph_Driver/src/stm32f10x_can.c **** }
 421:STM32F10x_StdPeriph_Driver/src/stm32f10x_can.c **** 
 422:STM32F10x_StdPeriph_Driver/src/stm32f10x_can.c **** /**
 423:STM32F10x_StdPeriph_Driver/src/stm32f10x_can.c ****   * @brief  Select the start bank filter for slave CAN.
 424:STM32F10x_StdPeriph_Driver/src/stm32f10x_can.c ****   * @note   This function applies only to STM32 Connectivity line devices.
 425:STM32F10x_StdPeriph_Driver/src/stm32f10x_can.c ****   * @param  CAN_BankNumber: Select the start slave bank filter from 1..27.
 426:STM32F10x_StdPeriph_Driver/src/stm32f10x_can.c ****   * @retval None.
 427:STM32F10x_StdPeriph_Driver/src/stm32f10x_can.c ****   */
 428:STM32F10x_StdPeriph_Driver/src/stm32f10x_can.c **** void CAN_SlaveStartBank(uint8_t CAN_BankNumber) 
 429:STM32F10x_StdPeriph_Driver/src/stm32f10x_can.c **** {
 430:STM32F10x_StdPeriph_Driver/src/stm32f10x_can.c ****   /* Check the parameters */
 431:STM32F10x_StdPeriph_Driver/src/stm32f10x_can.c ****   assert_param(IS_CAN_BANKNUMBER(CAN_BankNumber));
ARM GAS  C:\Users\kevin\AppData\Local\Temp\ccRSUIFU.s 			page 9


 432:STM32F10x_StdPeriph_Driver/src/stm32f10x_can.c ****   
 433:STM32F10x_StdPeriph_Driver/src/stm32f10x_can.c ****   /* Enter Initialisation mode for the filter */
 434:STM32F10x_StdPeriph_Driver/src/stm32f10x_can.c ****   CAN1->FMR |= FMR_FINIT;
 435:STM32F10x_StdPeriph_Driver/src/stm32f10x_can.c ****   
 436:STM32F10x_StdPeriph_Driver/src/stm32f10x_can.c ****   /* Select the start slave bank */
 437:STM32F10x_StdPeriph_Driver/src/stm32f10x_can.c ****   CAN1->FMR &= (uint32_t)0xFFFFC0F1 ;
 438:STM32F10x_StdPeriph_Driver/src/stm32f10x_can.c ****   CAN1->FMR |= (uint32_t)(CAN_BankNumber)<<8;
 439:STM32F10x_StdPeriph_Driver/src/stm32f10x_can.c ****   
 440:STM32F10x_StdPeriph_Driver/src/stm32f10x_can.c ****   /* Leave Initialisation mode for the filter */
 441:STM32F10x_StdPeriph_Driver/src/stm32f10x_can.c ****   CAN1->FMR &= ~FMR_FINIT;
 442:STM32F10x_StdPeriph_Driver/src/stm32f10x_can.c **** }
 443:STM32F10x_StdPeriph_Driver/src/stm32f10x_can.c **** 
 444:STM32F10x_StdPeriph_Driver/src/stm32f10x_can.c **** /**
 445:STM32F10x_StdPeriph_Driver/src/stm32f10x_can.c ****   * @brief  Enables or disables the DBG Freeze for CAN.
 446:STM32F10x_StdPeriph_Driver/src/stm32f10x_can.c ****   * @param  CANx:     where x can be 1 or 2 to to select the CAN peripheral.
 447:STM32F10x_StdPeriph_Driver/src/stm32f10x_can.c ****   * @param  NewState: new state of the CAN peripheral. This parameter can 
 448:STM32F10x_StdPeriph_Driver/src/stm32f10x_can.c ****   *                   be: ENABLE or DISABLE.
 449:STM32F10x_StdPeriph_Driver/src/stm32f10x_can.c ****   * @retval None.
 450:STM32F10x_StdPeriph_Driver/src/stm32f10x_can.c ****   */
 451:STM32F10x_StdPeriph_Driver/src/stm32f10x_can.c **** void CAN_DBGFreeze(CAN_TypeDef* CANx, FunctionalState NewState)
 452:STM32F10x_StdPeriph_Driver/src/stm32f10x_can.c **** {
 453:STM32F10x_StdPeriph_Driver/src/stm32f10x_can.c ****   /* Check the parameters */
 454:STM32F10x_StdPeriph_Driver/src/stm32f10x_can.c ****   assert_param(IS_CAN_ALL_PERIPH(CANx));
 455:STM32F10x_StdPeriph_Driver/src/stm32f10x_can.c ****   assert_param(IS_FUNCTIONAL_STATE(NewState));
 456:STM32F10x_StdPeriph_Driver/src/stm32f10x_can.c ****   
 457:STM32F10x_StdPeriph_Driver/src/stm32f10x_can.c ****   if (NewState != DISABLE)
 458:STM32F10x_StdPeriph_Driver/src/stm32f10x_can.c ****   {
 459:STM32F10x_StdPeriph_Driver/src/stm32f10x_can.c ****     /* Enable Debug Freeze  */
 460:STM32F10x_StdPeriph_Driver/src/stm32f10x_can.c ****     CANx->MCR |= MCR_DBF;
 461:STM32F10x_StdPeriph_Driver/src/stm32f10x_can.c ****   }
 462:STM32F10x_StdPeriph_Driver/src/stm32f10x_can.c ****   else
 463:STM32F10x_StdPeriph_Driver/src/stm32f10x_can.c ****   {
 464:STM32F10x_StdPeriph_Driver/src/stm32f10x_can.c ****     /* Disable Debug Freeze */
 465:STM32F10x_StdPeriph_Driver/src/stm32f10x_can.c ****     CANx->MCR &= ~MCR_DBF;
 466:STM32F10x_StdPeriph_Driver/src/stm32f10x_can.c ****   }
 467:STM32F10x_StdPeriph_Driver/src/stm32f10x_can.c **** }
 468:STM32F10x_StdPeriph_Driver/src/stm32f10x_can.c **** 
 469:STM32F10x_StdPeriph_Driver/src/stm32f10x_can.c **** 
 470:STM32F10x_StdPeriph_Driver/src/stm32f10x_can.c **** /**
 471:STM32F10x_StdPeriph_Driver/src/stm32f10x_can.c ****   * @brief  Enables or disabes the CAN Time TriggerOperation communication mode.
 472:STM32F10x_StdPeriph_Driver/src/stm32f10x_can.c ****   * @param  CANx:      where x can be 1 or 2 to to select the CAN peripheral.
 473:STM32F10x_StdPeriph_Driver/src/stm32f10x_can.c ****   * @param  NewState : Mode new state , can be one of @ref FunctionalState.
 474:STM32F10x_StdPeriph_Driver/src/stm32f10x_can.c ****   * @note   when enabled, Time stamp (TIME[15:0]) value is sent in the last 
 475:STM32F10x_StdPeriph_Driver/src/stm32f10x_can.c ****   *         two data bytes of the 8-byte message: TIME[7:0] in data byte 6 
 476:STM32F10x_StdPeriph_Driver/src/stm32f10x_can.c ****   *         and TIME[15:8] in data byte 7 
 477:STM32F10x_StdPeriph_Driver/src/stm32f10x_can.c ****   * @note   DLC must be programmed as 8 in order Time Stamp (2 bytes) to be 
 478:STM32F10x_StdPeriph_Driver/src/stm32f10x_can.c ****   *         sent over the CAN bus.  
 479:STM32F10x_StdPeriph_Driver/src/stm32f10x_can.c ****   * @retval None
 480:STM32F10x_StdPeriph_Driver/src/stm32f10x_can.c ****   */
 481:STM32F10x_StdPeriph_Driver/src/stm32f10x_can.c **** void CAN_TTComModeCmd(CAN_TypeDef* CANx, FunctionalState NewState)
 482:STM32F10x_StdPeriph_Driver/src/stm32f10x_can.c **** {
 483:STM32F10x_StdPeriph_Driver/src/stm32f10x_can.c ****   /* Check the parameters */
 484:STM32F10x_StdPeriph_Driver/src/stm32f10x_can.c ****   assert_param(IS_CAN_ALL_PERIPH(CANx));
 485:STM32F10x_StdPeriph_Driver/src/stm32f10x_can.c ****   assert_param(IS_FUNCTIONAL_STATE(NewState));
 486:STM32F10x_StdPeriph_Driver/src/stm32f10x_can.c ****   if (NewState != DISABLE)
 487:STM32F10x_StdPeriph_Driver/src/stm32f10x_can.c ****   {
 488:STM32F10x_StdPeriph_Driver/src/stm32f10x_can.c ****     /* Enable the TTCM mode */
ARM GAS  C:\Users\kevin\AppData\Local\Temp\ccRSUIFU.s 			page 10


 489:STM32F10x_StdPeriph_Driver/src/stm32f10x_can.c ****     CANx->MCR |= CAN_MCR_TTCM;
 490:STM32F10x_StdPeriph_Driver/src/stm32f10x_can.c **** 
 491:STM32F10x_StdPeriph_Driver/src/stm32f10x_can.c ****     /* Set TGT bits */
 492:STM32F10x_StdPeriph_Driver/src/stm32f10x_can.c ****     CANx->sTxMailBox[0].TDTR |= ((uint32_t)CAN_TDT0R_TGT);
 493:STM32F10x_StdPeriph_Driver/src/stm32f10x_can.c ****     CANx->sTxMailBox[1].TDTR |= ((uint32_t)CAN_TDT1R_TGT);
 494:STM32F10x_StdPeriph_Driver/src/stm32f10x_can.c ****     CANx->sTxMailBox[2].TDTR |= ((uint32_t)CAN_TDT2R_TGT);
 495:STM32F10x_StdPeriph_Driver/src/stm32f10x_can.c ****   }
 496:STM32F10x_StdPeriph_Driver/src/stm32f10x_can.c ****   else
 497:STM32F10x_StdPeriph_Driver/src/stm32f10x_can.c ****   {
 498:STM32F10x_StdPeriph_Driver/src/stm32f10x_can.c ****     /* Disable the TTCM mode */
 499:STM32F10x_StdPeriph_Driver/src/stm32f10x_can.c ****     CANx->MCR &= (uint32_t)(~(uint32_t)CAN_MCR_TTCM);
 500:STM32F10x_StdPeriph_Driver/src/stm32f10x_can.c **** 
 501:STM32F10x_StdPeriph_Driver/src/stm32f10x_can.c ****     /* Reset TGT bits */
 502:STM32F10x_StdPeriph_Driver/src/stm32f10x_can.c ****     CANx->sTxMailBox[0].TDTR &= ((uint32_t)~CAN_TDT0R_TGT);
 503:STM32F10x_StdPeriph_Driver/src/stm32f10x_can.c ****     CANx->sTxMailBox[1].TDTR &= ((uint32_t)~CAN_TDT1R_TGT);
 504:STM32F10x_StdPeriph_Driver/src/stm32f10x_can.c ****     CANx->sTxMailBox[2].TDTR &= ((uint32_t)~CAN_TDT2R_TGT);
 505:STM32F10x_StdPeriph_Driver/src/stm32f10x_can.c ****   }
 506:STM32F10x_StdPeriph_Driver/src/stm32f10x_can.c **** }
 507:STM32F10x_StdPeriph_Driver/src/stm32f10x_can.c **** /**
 508:STM32F10x_StdPeriph_Driver/src/stm32f10x_can.c ****   * @brief  Initiates the transmission of a message.
 509:STM32F10x_StdPeriph_Driver/src/stm32f10x_can.c ****   * @param  CANx:      where x can be 1 or 2 to to select the CAN peripheral.
 510:STM32F10x_StdPeriph_Driver/src/stm32f10x_can.c ****   * @param  TxMessage: pointer to a structure which contains CAN Id, CAN
 511:STM32F10x_StdPeriph_Driver/src/stm32f10x_can.c ****   *                    DLC and CAN data.
 512:STM32F10x_StdPeriph_Driver/src/stm32f10x_can.c ****   * @retval The number of the mailbox that is used for transmission
 513:STM32F10x_StdPeriph_Driver/src/stm32f10x_can.c ****   *                    or CAN_TxStatus_NoMailBox if there is no empty mailbox.
 514:STM32F10x_StdPeriph_Driver/src/stm32f10x_can.c ****   */
 515:STM32F10x_StdPeriph_Driver/src/stm32f10x_can.c **** uint8_t CAN_Transmit(CAN_TypeDef* CANx, CanTxMsg* TxMessage)
 516:STM32F10x_StdPeriph_Driver/src/stm32f10x_can.c **** {
 517:STM32F10x_StdPeriph_Driver/src/stm32f10x_can.c ****   uint8_t transmit_mailbox = 0;
 518:STM32F10x_StdPeriph_Driver/src/stm32f10x_can.c ****   /* Check the parameters */
 519:STM32F10x_StdPeriph_Driver/src/stm32f10x_can.c ****   assert_param(IS_CAN_ALL_PERIPH(CANx));
 520:STM32F10x_StdPeriph_Driver/src/stm32f10x_can.c ****   assert_param(IS_CAN_IDTYPE(TxMessage->IDE));
 521:STM32F10x_StdPeriph_Driver/src/stm32f10x_can.c ****   assert_param(IS_CAN_RTR(TxMessage->RTR));
 522:STM32F10x_StdPeriph_Driver/src/stm32f10x_can.c ****   assert_param(IS_CAN_DLC(TxMessage->DLC));
 523:STM32F10x_StdPeriph_Driver/src/stm32f10x_can.c **** 
 524:STM32F10x_StdPeriph_Driver/src/stm32f10x_can.c ****   /* Select one empty transmit mailbox */
 525:STM32F10x_StdPeriph_Driver/src/stm32f10x_can.c ****   if ((CANx->TSR&CAN_TSR_TME0) == CAN_TSR_TME0)
 526:STM32F10x_StdPeriph_Driver/src/stm32f10x_can.c ****   {
 527:STM32F10x_StdPeriph_Driver/src/stm32f10x_can.c ****     transmit_mailbox = 0;
 528:STM32F10x_StdPeriph_Driver/src/stm32f10x_can.c ****   }
 529:STM32F10x_StdPeriph_Driver/src/stm32f10x_can.c ****   else if ((CANx->TSR&CAN_TSR_TME1) == CAN_TSR_TME1)
 530:STM32F10x_StdPeriph_Driver/src/stm32f10x_can.c ****   {
 531:STM32F10x_StdPeriph_Driver/src/stm32f10x_can.c ****     transmit_mailbox = 1;
 532:STM32F10x_StdPeriph_Driver/src/stm32f10x_can.c ****   }
 533:STM32F10x_StdPeriph_Driver/src/stm32f10x_can.c ****   else if ((CANx->TSR&CAN_TSR_TME2) == CAN_TSR_TME2)
 534:STM32F10x_StdPeriph_Driver/src/stm32f10x_can.c ****   {
 535:STM32F10x_StdPeriph_Driver/src/stm32f10x_can.c ****     transmit_mailbox = 2;
 536:STM32F10x_StdPeriph_Driver/src/stm32f10x_can.c ****   }
 537:STM32F10x_StdPeriph_Driver/src/stm32f10x_can.c ****   else
 538:STM32F10x_StdPeriph_Driver/src/stm32f10x_can.c ****   {
 539:STM32F10x_StdPeriph_Driver/src/stm32f10x_can.c ****     transmit_mailbox = CAN_TxStatus_NoMailBox;
 540:STM32F10x_StdPeriph_Driver/src/stm32f10x_can.c ****   }
 541:STM32F10x_StdPeriph_Driver/src/stm32f10x_can.c **** 
 542:STM32F10x_StdPeriph_Driver/src/stm32f10x_can.c ****   if (transmit_mailbox != CAN_TxStatus_NoMailBox)
 543:STM32F10x_StdPeriph_Driver/src/stm32f10x_can.c ****   {
 544:STM32F10x_StdPeriph_Driver/src/stm32f10x_can.c ****     /* Set up the Id */
 545:STM32F10x_StdPeriph_Driver/src/stm32f10x_can.c ****     CANx->sTxMailBox[transmit_mailbox].TIR &= TMIDxR_TXRQ;
ARM GAS  C:\Users\kevin\AppData\Local\Temp\ccRSUIFU.s 			page 11


 546:STM32F10x_StdPeriph_Driver/src/stm32f10x_can.c ****     if (TxMessage->IDE == CAN_Id_Standard)
 547:STM32F10x_StdPeriph_Driver/src/stm32f10x_can.c ****     {
 548:STM32F10x_StdPeriph_Driver/src/stm32f10x_can.c ****       assert_param(IS_CAN_STDID(TxMessage->StdId));  
 549:STM32F10x_StdPeriph_Driver/src/stm32f10x_can.c ****       CANx->sTxMailBox[transmit_mailbox].TIR |= ((TxMessage->StdId << 21) | \
 550:STM32F10x_StdPeriph_Driver/src/stm32f10x_can.c ****                                                   TxMessage->RTR);
 551:STM32F10x_StdPeriph_Driver/src/stm32f10x_can.c ****     }
 552:STM32F10x_StdPeriph_Driver/src/stm32f10x_can.c ****     else
 553:STM32F10x_StdPeriph_Driver/src/stm32f10x_can.c ****     {
 554:STM32F10x_StdPeriph_Driver/src/stm32f10x_can.c ****       assert_param(IS_CAN_EXTID(TxMessage->ExtId));
 555:STM32F10x_StdPeriph_Driver/src/stm32f10x_can.c ****       CANx->sTxMailBox[transmit_mailbox].TIR |= ((TxMessage->ExtId << 3) | \
 556:STM32F10x_StdPeriph_Driver/src/stm32f10x_can.c ****                                                   TxMessage->IDE | \
 557:STM32F10x_StdPeriph_Driver/src/stm32f10x_can.c ****                                                   TxMessage->RTR);
 558:STM32F10x_StdPeriph_Driver/src/stm32f10x_can.c ****     }
 559:STM32F10x_StdPeriph_Driver/src/stm32f10x_can.c ****     
 560:STM32F10x_StdPeriph_Driver/src/stm32f10x_can.c ****     /* Set up the DLC */
 561:STM32F10x_StdPeriph_Driver/src/stm32f10x_can.c ****     TxMessage->DLC &= (uint8_t)0x0000000F;
 562:STM32F10x_StdPeriph_Driver/src/stm32f10x_can.c ****     CANx->sTxMailBox[transmit_mailbox].TDTR &= (uint32_t)0xFFFFFFF0;
 563:STM32F10x_StdPeriph_Driver/src/stm32f10x_can.c ****     CANx->sTxMailBox[transmit_mailbox].TDTR |= TxMessage->DLC;
 564:STM32F10x_StdPeriph_Driver/src/stm32f10x_can.c **** 
 565:STM32F10x_StdPeriph_Driver/src/stm32f10x_can.c ****     /* Set up the data field */
 566:STM32F10x_StdPeriph_Driver/src/stm32f10x_can.c ****     CANx->sTxMailBox[transmit_mailbox].TDLR = (((uint32_t)TxMessage->Data[3] << 24) | 
 567:STM32F10x_StdPeriph_Driver/src/stm32f10x_can.c ****                                              ((uint32_t)TxMessage->Data[2] << 16) |
 568:STM32F10x_StdPeriph_Driver/src/stm32f10x_can.c ****                                              ((uint32_t)TxMessage->Data[1] << 8) | 
 569:STM32F10x_StdPeriph_Driver/src/stm32f10x_can.c ****                                              ((uint32_t)TxMessage->Data[0]));
 570:STM32F10x_StdPeriph_Driver/src/stm32f10x_can.c ****     CANx->sTxMailBox[transmit_mailbox].TDHR = (((uint32_t)TxMessage->Data[7] << 24) | 
 571:STM32F10x_StdPeriph_Driver/src/stm32f10x_can.c ****                                              ((uint32_t)TxMessage->Data[6] << 16) |
 572:STM32F10x_StdPeriph_Driver/src/stm32f10x_can.c ****                                              ((uint32_t)TxMessage->Data[5] << 8) |
 573:STM32F10x_StdPeriph_Driver/src/stm32f10x_can.c ****                                              ((uint32_t)TxMessage->Data[4]));
 574:STM32F10x_StdPeriph_Driver/src/stm32f10x_can.c ****     /* Request transmission */
 575:STM32F10x_StdPeriph_Driver/src/stm32f10x_can.c ****     CANx->sTxMailBox[transmit_mailbox].TIR |= TMIDxR_TXRQ;
 576:STM32F10x_StdPeriph_Driver/src/stm32f10x_can.c ****   }
 577:STM32F10x_StdPeriph_Driver/src/stm32f10x_can.c ****   return transmit_mailbox;
 578:STM32F10x_StdPeriph_Driver/src/stm32f10x_can.c **** }
 579:STM32F10x_StdPeriph_Driver/src/stm32f10x_can.c **** 
 580:STM32F10x_StdPeriph_Driver/src/stm32f10x_can.c **** /**
 581:STM32F10x_StdPeriph_Driver/src/stm32f10x_can.c ****   * @brief  Checks the transmission of a message.
 582:STM32F10x_StdPeriph_Driver/src/stm32f10x_can.c ****   * @param  CANx:            where x can be 1 or 2 to to select the 
 583:STM32F10x_StdPeriph_Driver/src/stm32f10x_can.c ****   *                          CAN peripheral.
 584:STM32F10x_StdPeriph_Driver/src/stm32f10x_can.c ****   * @param  TransmitMailbox: the number of the mailbox that is used for 
 585:STM32F10x_StdPeriph_Driver/src/stm32f10x_can.c ****   *                          transmission.
 586:STM32F10x_StdPeriph_Driver/src/stm32f10x_can.c ****   * @retval CAN_TxStatus_Ok if the CAN driver transmits the message, CAN_TxStatus_Failed 
 587:STM32F10x_StdPeriph_Driver/src/stm32f10x_can.c ****   *         in an other case.
 588:STM32F10x_StdPeriph_Driver/src/stm32f10x_can.c ****   */
 589:STM32F10x_StdPeriph_Driver/src/stm32f10x_can.c **** uint8_t CAN_TransmitStatus(CAN_TypeDef* CANx, uint8_t TransmitMailbox)
 590:STM32F10x_StdPeriph_Driver/src/stm32f10x_can.c **** {
 591:STM32F10x_StdPeriph_Driver/src/stm32f10x_can.c ****   uint32_t state = 0;
 592:STM32F10x_StdPeriph_Driver/src/stm32f10x_can.c **** 
 593:STM32F10x_StdPeriph_Driver/src/stm32f10x_can.c ****   /* Check the parameters */
 594:STM32F10x_StdPeriph_Driver/src/stm32f10x_can.c ****   assert_param(IS_CAN_ALL_PERIPH(CANx));
 595:STM32F10x_StdPeriph_Driver/src/stm32f10x_can.c ****   assert_param(IS_CAN_TRANSMITMAILBOX(TransmitMailbox));
 596:STM32F10x_StdPeriph_Driver/src/stm32f10x_can.c ****  
 597:STM32F10x_StdPeriph_Driver/src/stm32f10x_can.c ****   switch (TransmitMailbox)
 598:STM32F10x_StdPeriph_Driver/src/stm32f10x_can.c ****   {
 599:STM32F10x_StdPeriph_Driver/src/stm32f10x_can.c ****     case (CAN_TXMAILBOX_0): 
 600:STM32F10x_StdPeriph_Driver/src/stm32f10x_can.c ****       state =   CANx->TSR &  (CAN_TSR_RQCP0 | CAN_TSR_TXOK0 | CAN_TSR_TME0);
 601:STM32F10x_StdPeriph_Driver/src/stm32f10x_can.c ****       break;
 602:STM32F10x_StdPeriph_Driver/src/stm32f10x_can.c ****     case (CAN_TXMAILBOX_1): 
ARM GAS  C:\Users\kevin\AppData\Local\Temp\ccRSUIFU.s 			page 12


 603:STM32F10x_StdPeriph_Driver/src/stm32f10x_can.c ****       state =   CANx->TSR &  (CAN_TSR_RQCP1 | CAN_TSR_TXOK1 | CAN_TSR_TME1);
 604:STM32F10x_StdPeriph_Driver/src/stm32f10x_can.c ****       break;
 605:STM32F10x_StdPeriph_Driver/src/stm32f10x_can.c ****     case (CAN_TXMAILBOX_2): 
 606:STM32F10x_StdPeriph_Driver/src/stm32f10x_can.c ****       state =   CANx->TSR &  (CAN_TSR_RQCP2 | CAN_TSR_TXOK2 | CAN_TSR_TME2);
 607:STM32F10x_StdPeriph_Driver/src/stm32f10x_can.c ****       break;
 608:STM32F10x_StdPeriph_Driver/src/stm32f10x_can.c ****     default:
 609:STM32F10x_StdPeriph_Driver/src/stm32f10x_can.c ****       state = CAN_TxStatus_Failed;
 610:STM32F10x_StdPeriph_Driver/src/stm32f10x_can.c ****       break;
 611:STM32F10x_StdPeriph_Driver/src/stm32f10x_can.c ****   }
 612:STM32F10x_StdPeriph_Driver/src/stm32f10x_can.c ****   switch (state)
 613:STM32F10x_StdPeriph_Driver/src/stm32f10x_can.c ****   {
 614:STM32F10x_StdPeriph_Driver/src/stm32f10x_can.c ****       /* transmit pending  */
 615:STM32F10x_StdPeriph_Driver/src/stm32f10x_can.c ****     case (0x0): state = CAN_TxStatus_Pending;
 616:STM32F10x_StdPeriph_Driver/src/stm32f10x_can.c ****       break;
 617:STM32F10x_StdPeriph_Driver/src/stm32f10x_can.c ****       /* transmit failed  */
 618:STM32F10x_StdPeriph_Driver/src/stm32f10x_can.c ****      case (CAN_TSR_RQCP0 | CAN_TSR_TME0): state = CAN_TxStatus_Failed;
 619:STM32F10x_StdPeriph_Driver/src/stm32f10x_can.c ****       break;
 620:STM32F10x_StdPeriph_Driver/src/stm32f10x_can.c ****      case (CAN_TSR_RQCP1 | CAN_TSR_TME1): state = CAN_TxStatus_Failed;
 621:STM32F10x_StdPeriph_Driver/src/stm32f10x_can.c ****       break;
 622:STM32F10x_StdPeriph_Driver/src/stm32f10x_can.c ****      case (CAN_TSR_RQCP2 | CAN_TSR_TME2): state = CAN_TxStatus_Failed;
 623:STM32F10x_StdPeriph_Driver/src/stm32f10x_can.c ****       break;
 624:STM32F10x_StdPeriph_Driver/src/stm32f10x_can.c ****       /* transmit succeeded  */
 625:STM32F10x_StdPeriph_Driver/src/stm32f10x_can.c ****     case (CAN_TSR_RQCP0 | CAN_TSR_TXOK0 | CAN_TSR_TME0):state = CAN_TxStatus_Ok;
 626:STM32F10x_StdPeriph_Driver/src/stm32f10x_can.c ****       break;
 627:STM32F10x_StdPeriph_Driver/src/stm32f10x_can.c ****     case (CAN_TSR_RQCP1 | CAN_TSR_TXOK1 | CAN_TSR_TME1):state = CAN_TxStatus_Ok;
 628:STM32F10x_StdPeriph_Driver/src/stm32f10x_can.c ****       break;
 629:STM32F10x_StdPeriph_Driver/src/stm32f10x_can.c ****     case (CAN_TSR_RQCP2 | CAN_TSR_TXOK2 | CAN_TSR_TME2):state = CAN_TxStatus_Ok;
 630:STM32F10x_StdPeriph_Driver/src/stm32f10x_can.c ****       break;
 631:STM32F10x_StdPeriph_Driver/src/stm32f10x_can.c ****     default: state = CAN_TxStatus_Failed;
 632:STM32F10x_StdPeriph_Driver/src/stm32f10x_can.c ****       break;
 633:STM32F10x_StdPeriph_Driver/src/stm32f10x_can.c ****   }
 634:STM32F10x_StdPeriph_Driver/src/stm32f10x_can.c ****   return (uint8_t) state;
 635:STM32F10x_StdPeriph_Driver/src/stm32f10x_can.c **** }
 636:STM32F10x_StdPeriph_Driver/src/stm32f10x_can.c **** 
 637:STM32F10x_StdPeriph_Driver/src/stm32f10x_can.c **** /**
 638:STM32F10x_StdPeriph_Driver/src/stm32f10x_can.c ****   * @brief  Cancels a transmit request.
 639:STM32F10x_StdPeriph_Driver/src/stm32f10x_can.c ****   * @param  CANx:     where x can be 1 or 2 to to select the CAN peripheral. 
 640:STM32F10x_StdPeriph_Driver/src/stm32f10x_can.c ****   * @param  Mailbox:  Mailbox number.
 641:STM32F10x_StdPeriph_Driver/src/stm32f10x_can.c ****   * @retval None.
 642:STM32F10x_StdPeriph_Driver/src/stm32f10x_can.c ****   */
 643:STM32F10x_StdPeriph_Driver/src/stm32f10x_can.c **** void CAN_CancelTransmit(CAN_TypeDef* CANx, uint8_t Mailbox)
 644:STM32F10x_StdPeriph_Driver/src/stm32f10x_can.c **** {
 645:STM32F10x_StdPeriph_Driver/src/stm32f10x_can.c ****   /* Check the parameters */
 646:STM32F10x_StdPeriph_Driver/src/stm32f10x_can.c ****   assert_param(IS_CAN_ALL_PERIPH(CANx));
 647:STM32F10x_StdPeriph_Driver/src/stm32f10x_can.c ****   assert_param(IS_CAN_TRANSMITMAILBOX(Mailbox));
 648:STM32F10x_StdPeriph_Driver/src/stm32f10x_can.c ****   /* abort transmission */
 649:STM32F10x_StdPeriph_Driver/src/stm32f10x_can.c ****   switch (Mailbox)
 650:STM32F10x_StdPeriph_Driver/src/stm32f10x_can.c ****   {
 651:STM32F10x_StdPeriph_Driver/src/stm32f10x_can.c ****     case (CAN_TXMAILBOX_0): CANx->TSR |= CAN_TSR_ABRQ0;
 652:STM32F10x_StdPeriph_Driver/src/stm32f10x_can.c ****       break;
 653:STM32F10x_StdPeriph_Driver/src/stm32f10x_can.c ****     case (CAN_TXMAILBOX_1): CANx->TSR |= CAN_TSR_ABRQ1;
 654:STM32F10x_StdPeriph_Driver/src/stm32f10x_can.c ****       break;
 655:STM32F10x_StdPeriph_Driver/src/stm32f10x_can.c ****     case (CAN_TXMAILBOX_2): CANx->TSR |= CAN_TSR_ABRQ2;
 656:STM32F10x_StdPeriph_Driver/src/stm32f10x_can.c ****       break;
 657:STM32F10x_StdPeriph_Driver/src/stm32f10x_can.c ****     default:
 658:STM32F10x_StdPeriph_Driver/src/stm32f10x_can.c ****       break;
 659:STM32F10x_StdPeriph_Driver/src/stm32f10x_can.c ****   }
ARM GAS  C:\Users\kevin\AppData\Local\Temp\ccRSUIFU.s 			page 13


 660:STM32F10x_StdPeriph_Driver/src/stm32f10x_can.c **** }
 661:STM32F10x_StdPeriph_Driver/src/stm32f10x_can.c **** 
 662:STM32F10x_StdPeriph_Driver/src/stm32f10x_can.c **** 
 663:STM32F10x_StdPeriph_Driver/src/stm32f10x_can.c **** /**
 664:STM32F10x_StdPeriph_Driver/src/stm32f10x_can.c ****   * @brief  Receives a message.
 665:STM32F10x_StdPeriph_Driver/src/stm32f10x_can.c ****   * @param  CANx:       where x can be 1 or 2 to to select the CAN peripheral.
 666:STM32F10x_StdPeriph_Driver/src/stm32f10x_can.c ****   * @param  FIFONumber: Receive FIFO number, CAN_FIFO0 or CAN_FIFO1.
 667:STM32F10x_StdPeriph_Driver/src/stm32f10x_can.c ****   * @param  RxMessage:  pointer to a structure receive message which contains 
 668:STM32F10x_StdPeriph_Driver/src/stm32f10x_can.c ****   *                     CAN Id, CAN DLC, CAN datas and FMI number.
 669:STM32F10x_StdPeriph_Driver/src/stm32f10x_can.c ****   * @retval None.
 670:STM32F10x_StdPeriph_Driver/src/stm32f10x_can.c ****   */
 671:STM32F10x_StdPeriph_Driver/src/stm32f10x_can.c **** void CAN_Receive(CAN_TypeDef* CANx, uint8_t FIFONumber, CanRxMsg* RxMessage)
 672:STM32F10x_StdPeriph_Driver/src/stm32f10x_can.c **** {
 673:STM32F10x_StdPeriph_Driver/src/stm32f10x_can.c ****   /* Check the parameters */
 674:STM32F10x_StdPeriph_Driver/src/stm32f10x_can.c ****   assert_param(IS_CAN_ALL_PERIPH(CANx));
 675:STM32F10x_StdPeriph_Driver/src/stm32f10x_can.c ****   assert_param(IS_CAN_FIFO(FIFONumber));
 676:STM32F10x_StdPeriph_Driver/src/stm32f10x_can.c ****   /* Get the Id */
 677:STM32F10x_StdPeriph_Driver/src/stm32f10x_can.c ****   RxMessage->IDE = (uint8_t)0x04 & CANx->sFIFOMailBox[FIFONumber].RIR;
 678:STM32F10x_StdPeriph_Driver/src/stm32f10x_can.c ****   if (RxMessage->IDE == CAN_Id_Standard)
 679:STM32F10x_StdPeriph_Driver/src/stm32f10x_can.c ****   {
 680:STM32F10x_StdPeriph_Driver/src/stm32f10x_can.c ****     RxMessage->StdId = (uint32_t)0x000007FF & (CANx->sFIFOMailBox[FIFONumber].RIR >> 21);
 681:STM32F10x_StdPeriph_Driver/src/stm32f10x_can.c ****   }
 682:STM32F10x_StdPeriph_Driver/src/stm32f10x_can.c ****   else
 683:STM32F10x_StdPeriph_Driver/src/stm32f10x_can.c ****   {
 684:STM32F10x_StdPeriph_Driver/src/stm32f10x_can.c ****     RxMessage->ExtId = (uint32_t)0x1FFFFFFF & (CANx->sFIFOMailBox[FIFONumber].RIR >> 3);
 685:STM32F10x_StdPeriph_Driver/src/stm32f10x_can.c ****   }
 686:STM32F10x_StdPeriph_Driver/src/stm32f10x_can.c ****   
 687:STM32F10x_StdPeriph_Driver/src/stm32f10x_can.c ****   RxMessage->RTR = (uint8_t)0x02 & CANx->sFIFOMailBox[FIFONumber].RIR;
 688:STM32F10x_StdPeriph_Driver/src/stm32f10x_can.c ****   /* Get the DLC */
 689:STM32F10x_StdPeriph_Driver/src/stm32f10x_can.c ****   RxMessage->DLC = (uint8_t)0x0F & CANx->sFIFOMailBox[FIFONumber].RDTR;
 690:STM32F10x_StdPeriph_Driver/src/stm32f10x_can.c ****   /* Get the FMI */
 691:STM32F10x_StdPeriph_Driver/src/stm32f10x_can.c ****   RxMessage->FMI = (uint8_t)0xFF & (CANx->sFIFOMailBox[FIFONumber].RDTR >> 8);
 692:STM32F10x_StdPeriph_Driver/src/stm32f10x_can.c ****   /* Get the data field */
 693:STM32F10x_StdPeriph_Driver/src/stm32f10x_can.c ****   RxMessage->Data[0] = (uint8_t)0xFF & CANx->sFIFOMailBox[FIFONumber].RDLR;
 694:STM32F10x_StdPeriph_Driver/src/stm32f10x_can.c ****   RxMessage->Data[1] = (uint8_t)0xFF & (CANx->sFIFOMailBox[FIFONumber].RDLR >> 8);
 695:STM32F10x_StdPeriph_Driver/src/stm32f10x_can.c ****   RxMessage->Data[2] = (uint8_t)0xFF & (CANx->sFIFOMailBox[FIFONumber].RDLR >> 16);
 696:STM32F10x_StdPeriph_Driver/src/stm32f10x_can.c ****   RxMessage->Data[3] = (uint8_t)0xFF & (CANx->sFIFOMailBox[FIFONumber].RDLR >> 24);
 697:STM32F10x_StdPeriph_Driver/src/stm32f10x_can.c ****   RxMessage->Data[4] = (uint8_t)0xFF & CANx->sFIFOMailBox[FIFONumber].RDHR;
 698:STM32F10x_StdPeriph_Driver/src/stm32f10x_can.c ****   RxMessage->Data[5] = (uint8_t)0xFF & (CANx->sFIFOMailBox[FIFONumber].RDHR >> 8);
 699:STM32F10x_StdPeriph_Driver/src/stm32f10x_can.c ****   RxMessage->Data[6] = (uint8_t)0xFF & (CANx->sFIFOMailBox[FIFONumber].RDHR >> 16);
 700:STM32F10x_StdPeriph_Driver/src/stm32f10x_can.c ****   RxMessage->Data[7] = (uint8_t)0xFF & (CANx->sFIFOMailBox[FIFONumber].RDHR >> 24);
 701:STM32F10x_StdPeriph_Driver/src/stm32f10x_can.c ****   /* Release the FIFO */
 702:STM32F10x_StdPeriph_Driver/src/stm32f10x_can.c ****   /* Release FIFO0 */
 703:STM32F10x_StdPeriph_Driver/src/stm32f10x_can.c ****   if (FIFONumber == CAN_FIFO0)
 704:STM32F10x_StdPeriph_Driver/src/stm32f10x_can.c ****   {
 705:STM32F10x_StdPeriph_Driver/src/stm32f10x_can.c ****     CANx->RF0R |= CAN_RF0R_RFOM0;
 706:STM32F10x_StdPeriph_Driver/src/stm32f10x_can.c ****   }
 707:STM32F10x_StdPeriph_Driver/src/stm32f10x_can.c ****   /* Release FIFO1 */
 708:STM32F10x_StdPeriph_Driver/src/stm32f10x_can.c ****   else /* FIFONumber == CAN_FIFO1 */
 709:STM32F10x_StdPeriph_Driver/src/stm32f10x_can.c ****   {
 710:STM32F10x_StdPeriph_Driver/src/stm32f10x_can.c ****     CANx->RF1R |= CAN_RF1R_RFOM1;
 711:STM32F10x_StdPeriph_Driver/src/stm32f10x_can.c ****   }
 712:STM32F10x_StdPeriph_Driver/src/stm32f10x_can.c **** }
 713:STM32F10x_StdPeriph_Driver/src/stm32f10x_can.c **** 
 714:STM32F10x_StdPeriph_Driver/src/stm32f10x_can.c **** /**
 715:STM32F10x_StdPeriph_Driver/src/stm32f10x_can.c ****   * @brief  Releases the specified FIFO.
 716:STM32F10x_StdPeriph_Driver/src/stm32f10x_can.c ****   * @param  CANx:       where x can be 1 or 2 to to select the CAN peripheral. 
ARM GAS  C:\Users\kevin\AppData\Local\Temp\ccRSUIFU.s 			page 14


 717:STM32F10x_StdPeriph_Driver/src/stm32f10x_can.c ****   * @param  FIFONumber: FIFO to release, CAN_FIFO0 or CAN_FIFO1.
 718:STM32F10x_StdPeriph_Driver/src/stm32f10x_can.c ****   * @retval None.
 719:STM32F10x_StdPeriph_Driver/src/stm32f10x_can.c ****   */
 720:STM32F10x_StdPeriph_Driver/src/stm32f10x_can.c **** void CAN_FIFORelease(CAN_TypeDef* CANx, uint8_t FIFONumber)
 721:STM32F10x_StdPeriph_Driver/src/stm32f10x_can.c **** {
 722:STM32F10x_StdPeriph_Driver/src/stm32f10x_can.c ****   /* Check the parameters */
 723:STM32F10x_StdPeriph_Driver/src/stm32f10x_can.c ****   assert_param(IS_CAN_ALL_PERIPH(CANx));
 724:STM32F10x_StdPeriph_Driver/src/stm32f10x_can.c ****   assert_param(IS_CAN_FIFO(FIFONumber));
 725:STM32F10x_StdPeriph_Driver/src/stm32f10x_can.c ****   /* Release FIFO0 */
 726:STM32F10x_StdPeriph_Driver/src/stm32f10x_can.c ****   if (FIFONumber == CAN_FIFO0)
 727:STM32F10x_StdPeriph_Driver/src/stm32f10x_can.c ****   {
 728:STM32F10x_StdPeriph_Driver/src/stm32f10x_can.c ****     CANx->RF0R |= CAN_RF0R_RFOM0;
 729:STM32F10x_StdPeriph_Driver/src/stm32f10x_can.c ****   }
 730:STM32F10x_StdPeriph_Driver/src/stm32f10x_can.c ****   /* Release FIFO1 */
 731:STM32F10x_StdPeriph_Driver/src/stm32f10x_can.c ****   else /* FIFONumber == CAN_FIFO1 */
 732:STM32F10x_StdPeriph_Driver/src/stm32f10x_can.c ****   {
 733:STM32F10x_StdPeriph_Driver/src/stm32f10x_can.c ****     CANx->RF1R |= CAN_RF1R_RFOM1;
 734:STM32F10x_StdPeriph_Driver/src/stm32f10x_can.c ****   }
 735:STM32F10x_StdPeriph_Driver/src/stm32f10x_can.c **** }
 736:STM32F10x_StdPeriph_Driver/src/stm32f10x_can.c **** 
 737:STM32F10x_StdPeriph_Driver/src/stm32f10x_can.c **** /**
 738:STM32F10x_StdPeriph_Driver/src/stm32f10x_can.c ****   * @brief  Returns the number of pending messages.
 739:STM32F10x_StdPeriph_Driver/src/stm32f10x_can.c ****   * @param  CANx:       where x can be 1 or 2 to to select the CAN peripheral.
 740:STM32F10x_StdPeriph_Driver/src/stm32f10x_can.c ****   * @param  FIFONumber: Receive FIFO number, CAN_FIFO0 or CAN_FIFO1.
 741:STM32F10x_StdPeriph_Driver/src/stm32f10x_can.c ****   * @retval NbMessage : which is the number of pending message.
 742:STM32F10x_StdPeriph_Driver/src/stm32f10x_can.c ****   */
 743:STM32F10x_StdPeriph_Driver/src/stm32f10x_can.c **** uint8_t CAN_MessagePending(CAN_TypeDef* CANx, uint8_t FIFONumber)
 744:STM32F10x_StdPeriph_Driver/src/stm32f10x_can.c **** {
 745:STM32F10x_StdPeriph_Driver/src/stm32f10x_can.c ****   uint8_t message_pending=0;
 746:STM32F10x_StdPeriph_Driver/src/stm32f10x_can.c ****   /* Check the parameters */
 747:STM32F10x_StdPeriph_Driver/src/stm32f10x_can.c ****   assert_param(IS_CAN_ALL_PERIPH(CANx));
 748:STM32F10x_StdPeriph_Driver/src/stm32f10x_can.c ****   assert_param(IS_CAN_FIFO(FIFONumber));
 749:STM32F10x_StdPeriph_Driver/src/stm32f10x_can.c ****   if (FIFONumber == CAN_FIFO0)
 750:STM32F10x_StdPeriph_Driver/src/stm32f10x_can.c ****   {
 751:STM32F10x_StdPeriph_Driver/src/stm32f10x_can.c ****     message_pending = (uint8_t)(CANx->RF0R&(uint32_t)0x03);
 752:STM32F10x_StdPeriph_Driver/src/stm32f10x_can.c ****   }
 753:STM32F10x_StdPeriph_Driver/src/stm32f10x_can.c ****   else if (FIFONumber == CAN_FIFO1)
 754:STM32F10x_StdPeriph_Driver/src/stm32f10x_can.c ****   {
 755:STM32F10x_StdPeriph_Driver/src/stm32f10x_can.c ****     message_pending = (uint8_t)(CANx->RF1R&(uint32_t)0x03);
 756:STM32F10x_StdPeriph_Driver/src/stm32f10x_can.c ****   }
 757:STM32F10x_StdPeriph_Driver/src/stm32f10x_can.c ****   else
 758:STM32F10x_StdPeriph_Driver/src/stm32f10x_can.c ****   {
 759:STM32F10x_StdPeriph_Driver/src/stm32f10x_can.c ****     message_pending = 0;
 760:STM32F10x_StdPeriph_Driver/src/stm32f10x_can.c ****   }
 761:STM32F10x_StdPeriph_Driver/src/stm32f10x_can.c ****   return message_pending;
 762:STM32F10x_StdPeriph_Driver/src/stm32f10x_can.c **** }
 763:STM32F10x_StdPeriph_Driver/src/stm32f10x_can.c **** 
 764:STM32F10x_StdPeriph_Driver/src/stm32f10x_can.c **** 
 765:STM32F10x_StdPeriph_Driver/src/stm32f10x_can.c **** /**
 766:STM32F10x_StdPeriph_Driver/src/stm32f10x_can.c ****   * @brief   Select the CAN Operation mode.
 767:STM32F10x_StdPeriph_Driver/src/stm32f10x_can.c ****   * @param CAN_OperatingMode : CAN Operating Mode. This parameter can be one 
 768:STM32F10x_StdPeriph_Driver/src/stm32f10x_can.c ****   *                            of @ref CAN_OperatingMode_TypeDef enumeration.
 769:STM32F10x_StdPeriph_Driver/src/stm32f10x_can.c ****   * @retval status of the requested mode which can be 
 770:STM32F10x_StdPeriph_Driver/src/stm32f10x_can.c ****   *         - CAN_ModeStatus_Failed    CAN failed entering the specific mode 
 771:STM32F10x_StdPeriph_Driver/src/stm32f10x_can.c ****   *         - CAN_ModeStatus_Success   CAN Succeed entering the specific mode 
 772:STM32F10x_StdPeriph_Driver/src/stm32f10x_can.c **** 
 773:STM32F10x_StdPeriph_Driver/src/stm32f10x_can.c ****   */
ARM GAS  C:\Users\kevin\AppData\Local\Temp\ccRSUIFU.s 			page 15


 774:STM32F10x_StdPeriph_Driver/src/stm32f10x_can.c **** uint8_t CAN_OperatingModeRequest(CAN_TypeDef* CANx, uint8_t CAN_OperatingMode)
 775:STM32F10x_StdPeriph_Driver/src/stm32f10x_can.c **** {
 776:STM32F10x_StdPeriph_Driver/src/stm32f10x_can.c ****   uint8_t status = CAN_ModeStatus_Failed;
 777:STM32F10x_StdPeriph_Driver/src/stm32f10x_can.c ****   
 778:STM32F10x_StdPeriph_Driver/src/stm32f10x_can.c ****   /* Timeout for INAK or also for SLAK bits*/
 779:STM32F10x_StdPeriph_Driver/src/stm32f10x_can.c ****   uint32_t timeout = INAK_TIMEOUT; 
 780:STM32F10x_StdPeriph_Driver/src/stm32f10x_can.c **** 
 781:STM32F10x_StdPeriph_Driver/src/stm32f10x_can.c ****   /* Check the parameters */
 782:STM32F10x_StdPeriph_Driver/src/stm32f10x_can.c ****   assert_param(IS_CAN_ALL_PERIPH(CANx));
 783:STM32F10x_StdPeriph_Driver/src/stm32f10x_can.c ****   assert_param(IS_CAN_OPERATING_MODE(CAN_OperatingMode));
 784:STM32F10x_StdPeriph_Driver/src/stm32f10x_can.c **** 
 785:STM32F10x_StdPeriph_Driver/src/stm32f10x_can.c ****   if (CAN_OperatingMode == CAN_OperatingMode_Initialization)
 786:STM32F10x_StdPeriph_Driver/src/stm32f10x_can.c ****   {
 787:STM32F10x_StdPeriph_Driver/src/stm32f10x_can.c ****     /* Request initialisation */
 788:STM32F10x_StdPeriph_Driver/src/stm32f10x_can.c ****     CANx->MCR = (uint32_t)((CANx->MCR & (uint32_t)(~(uint32_t)CAN_MCR_SLEEP)) | CAN_MCR_INRQ);
 789:STM32F10x_StdPeriph_Driver/src/stm32f10x_can.c **** 
 790:STM32F10x_StdPeriph_Driver/src/stm32f10x_can.c ****     /* Wait the acknowledge */
 791:STM32F10x_StdPeriph_Driver/src/stm32f10x_can.c ****     while (((CANx->MSR & CAN_MODE_MASK) != CAN_MSR_INAK) && (timeout != 0))
 792:STM32F10x_StdPeriph_Driver/src/stm32f10x_can.c ****     {
 793:STM32F10x_StdPeriph_Driver/src/stm32f10x_can.c ****       timeout--;
 794:STM32F10x_StdPeriph_Driver/src/stm32f10x_can.c ****     }
 795:STM32F10x_StdPeriph_Driver/src/stm32f10x_can.c ****     if ((CANx->MSR & CAN_MODE_MASK) != CAN_MSR_INAK)
 796:STM32F10x_StdPeriph_Driver/src/stm32f10x_can.c ****     {
 797:STM32F10x_StdPeriph_Driver/src/stm32f10x_can.c ****       status = CAN_ModeStatus_Failed;
 798:STM32F10x_StdPeriph_Driver/src/stm32f10x_can.c ****     }
 799:STM32F10x_StdPeriph_Driver/src/stm32f10x_can.c ****     else
 800:STM32F10x_StdPeriph_Driver/src/stm32f10x_can.c ****     {
 801:STM32F10x_StdPeriph_Driver/src/stm32f10x_can.c ****       status = CAN_ModeStatus_Success;
 802:STM32F10x_StdPeriph_Driver/src/stm32f10x_can.c ****     }
 803:STM32F10x_StdPeriph_Driver/src/stm32f10x_can.c ****   }
 804:STM32F10x_StdPeriph_Driver/src/stm32f10x_can.c ****   else  if (CAN_OperatingMode == CAN_OperatingMode_Normal)
 805:STM32F10x_StdPeriph_Driver/src/stm32f10x_can.c ****   {
 806:STM32F10x_StdPeriph_Driver/src/stm32f10x_can.c ****     /* Request leave initialisation and sleep mode  and enter Normal mode */
 807:STM32F10x_StdPeriph_Driver/src/stm32f10x_can.c ****     CANx->MCR &= (uint32_t)(~(CAN_MCR_SLEEP|CAN_MCR_INRQ));
 808:STM32F10x_StdPeriph_Driver/src/stm32f10x_can.c **** 
 809:STM32F10x_StdPeriph_Driver/src/stm32f10x_can.c ****     /* Wait the acknowledge */
 810:STM32F10x_StdPeriph_Driver/src/stm32f10x_can.c ****     while (((CANx->MSR & CAN_MODE_MASK) != 0) && (timeout!=0))
 811:STM32F10x_StdPeriph_Driver/src/stm32f10x_can.c ****     {
 812:STM32F10x_StdPeriph_Driver/src/stm32f10x_can.c ****       timeout--;
 813:STM32F10x_StdPeriph_Driver/src/stm32f10x_can.c ****     }
 814:STM32F10x_StdPeriph_Driver/src/stm32f10x_can.c ****     if ((CANx->MSR & CAN_MODE_MASK) != 0)
 815:STM32F10x_StdPeriph_Driver/src/stm32f10x_can.c ****     {
 816:STM32F10x_StdPeriph_Driver/src/stm32f10x_can.c ****       status = CAN_ModeStatus_Failed;
 817:STM32F10x_StdPeriph_Driver/src/stm32f10x_can.c ****     }
 818:STM32F10x_StdPeriph_Driver/src/stm32f10x_can.c ****     else
 819:STM32F10x_StdPeriph_Driver/src/stm32f10x_can.c ****     {
 820:STM32F10x_StdPeriph_Driver/src/stm32f10x_can.c ****       status = CAN_ModeStatus_Success;
 821:STM32F10x_StdPeriph_Driver/src/stm32f10x_can.c ****     }
 822:STM32F10x_StdPeriph_Driver/src/stm32f10x_can.c ****   }
 823:STM32F10x_StdPeriph_Driver/src/stm32f10x_can.c ****   else  if (CAN_OperatingMode == CAN_OperatingMode_Sleep)
 824:STM32F10x_StdPeriph_Driver/src/stm32f10x_can.c ****   {
 825:STM32F10x_StdPeriph_Driver/src/stm32f10x_can.c ****     /* Request Sleep mode */
 826:STM32F10x_StdPeriph_Driver/src/stm32f10x_can.c ****     CANx->MCR = (uint32_t)((CANx->MCR & (uint32_t)(~(uint32_t)CAN_MCR_INRQ)) | CAN_MCR_SLEEP);
 827:STM32F10x_StdPeriph_Driver/src/stm32f10x_can.c **** 
 828:STM32F10x_StdPeriph_Driver/src/stm32f10x_can.c ****     /* Wait the acknowledge */
 829:STM32F10x_StdPeriph_Driver/src/stm32f10x_can.c ****     while (((CANx->MSR & CAN_MODE_MASK) != CAN_MSR_SLAK) && (timeout!=0))
 830:STM32F10x_StdPeriph_Driver/src/stm32f10x_can.c ****     {
ARM GAS  C:\Users\kevin\AppData\Local\Temp\ccRSUIFU.s 			page 16


 831:STM32F10x_StdPeriph_Driver/src/stm32f10x_can.c ****       timeout--;
 832:STM32F10x_StdPeriph_Driver/src/stm32f10x_can.c ****     }
 833:STM32F10x_StdPeriph_Driver/src/stm32f10x_can.c ****     if ((CANx->MSR & CAN_MODE_MASK) != CAN_MSR_SLAK)
 834:STM32F10x_StdPeriph_Driver/src/stm32f10x_can.c ****     {
 835:STM32F10x_StdPeriph_Driver/src/stm32f10x_can.c ****       status = CAN_ModeStatus_Failed;
 836:STM32F10x_StdPeriph_Driver/src/stm32f10x_can.c ****     }
 837:STM32F10x_StdPeriph_Driver/src/stm32f10x_can.c ****     else
 838:STM32F10x_StdPeriph_Driver/src/stm32f10x_can.c ****     {
 839:STM32F10x_StdPeriph_Driver/src/stm32f10x_can.c ****       status = CAN_ModeStatus_Success;
 840:STM32F10x_StdPeriph_Driver/src/stm32f10x_can.c ****     }
 841:STM32F10x_StdPeriph_Driver/src/stm32f10x_can.c ****   }
 842:STM32F10x_StdPeriph_Driver/src/stm32f10x_can.c ****   else
 843:STM32F10x_StdPeriph_Driver/src/stm32f10x_can.c ****   {
 844:STM32F10x_StdPeriph_Driver/src/stm32f10x_can.c ****     status = CAN_ModeStatus_Failed;
 845:STM32F10x_StdPeriph_Driver/src/stm32f10x_can.c ****   }
 846:STM32F10x_StdPeriph_Driver/src/stm32f10x_can.c **** 
 847:STM32F10x_StdPeriph_Driver/src/stm32f10x_can.c ****   return  (uint8_t) status;
 848:STM32F10x_StdPeriph_Driver/src/stm32f10x_can.c **** }
 849:STM32F10x_StdPeriph_Driver/src/stm32f10x_can.c **** 
 850:STM32F10x_StdPeriph_Driver/src/stm32f10x_can.c **** /**
 851:STM32F10x_StdPeriph_Driver/src/stm32f10x_can.c ****   * @brief  Enters the low power mode.
 852:STM32F10x_StdPeriph_Driver/src/stm32f10x_can.c ****   * @param  CANx:   where x can be 1 or 2 to to select the CAN peripheral.
 853:STM32F10x_StdPeriph_Driver/src/stm32f10x_can.c ****   * @retval status: CAN_Sleep_Ok if sleep entered, CAN_Sleep_Failed in an 
 854:STM32F10x_StdPeriph_Driver/src/stm32f10x_can.c ****   *                 other case.
 855:STM32F10x_StdPeriph_Driver/src/stm32f10x_can.c ****   */
 856:STM32F10x_StdPeriph_Driver/src/stm32f10x_can.c **** uint8_t CAN_Sleep(CAN_TypeDef* CANx)
 857:STM32F10x_StdPeriph_Driver/src/stm32f10x_can.c **** {
 858:STM32F10x_StdPeriph_Driver/src/stm32f10x_can.c ****   uint8_t sleepstatus = CAN_Sleep_Failed;
 859:STM32F10x_StdPeriph_Driver/src/stm32f10x_can.c ****   
 860:STM32F10x_StdPeriph_Driver/src/stm32f10x_can.c ****   /* Check the parameters */
 861:STM32F10x_StdPeriph_Driver/src/stm32f10x_can.c ****   assert_param(IS_CAN_ALL_PERIPH(CANx));
 862:STM32F10x_StdPeriph_Driver/src/stm32f10x_can.c ****     
 863:STM32F10x_StdPeriph_Driver/src/stm32f10x_can.c ****   /* Request Sleep mode */
 864:STM32F10x_StdPeriph_Driver/src/stm32f10x_can.c ****    CANx->MCR = (((CANx->MCR) & (uint32_t)(~(uint32_t)CAN_MCR_INRQ)) | CAN_MCR_SLEEP);
 865:STM32F10x_StdPeriph_Driver/src/stm32f10x_can.c ****    
 866:STM32F10x_StdPeriph_Driver/src/stm32f10x_can.c ****   /* Sleep mode status */
 867:STM32F10x_StdPeriph_Driver/src/stm32f10x_can.c ****   if ((CANx->MSR & (CAN_MSR_SLAK|CAN_MSR_INAK)) == CAN_MSR_SLAK)
 868:STM32F10x_StdPeriph_Driver/src/stm32f10x_can.c ****   {
 869:STM32F10x_StdPeriph_Driver/src/stm32f10x_can.c ****     /* Sleep mode not entered */
 870:STM32F10x_StdPeriph_Driver/src/stm32f10x_can.c ****     sleepstatus =  CAN_Sleep_Ok;
 871:STM32F10x_StdPeriph_Driver/src/stm32f10x_can.c ****   }
 872:STM32F10x_StdPeriph_Driver/src/stm32f10x_can.c ****   /* return sleep mode status */
 873:STM32F10x_StdPeriph_Driver/src/stm32f10x_can.c ****    return (uint8_t)sleepstatus;
 874:STM32F10x_StdPeriph_Driver/src/stm32f10x_can.c **** }
 875:STM32F10x_StdPeriph_Driver/src/stm32f10x_can.c **** 
 876:STM32F10x_StdPeriph_Driver/src/stm32f10x_can.c **** /**
 877:STM32F10x_StdPeriph_Driver/src/stm32f10x_can.c ****   * @brief  Wakes the CAN up.
 878:STM32F10x_StdPeriph_Driver/src/stm32f10x_can.c ****   * @param  CANx:    where x can be 1 or 2 to to select the CAN peripheral.
 879:STM32F10x_StdPeriph_Driver/src/stm32f10x_can.c ****   * @retval status:  CAN_WakeUp_Ok if sleep mode left, CAN_WakeUp_Failed in an 
 880:STM32F10x_StdPeriph_Driver/src/stm32f10x_can.c ****   *                  other case.
 881:STM32F10x_StdPeriph_Driver/src/stm32f10x_can.c ****   */
 882:STM32F10x_StdPeriph_Driver/src/stm32f10x_can.c **** uint8_t CAN_WakeUp(CAN_TypeDef* CANx)
 883:STM32F10x_StdPeriph_Driver/src/stm32f10x_can.c **** {
 884:STM32F10x_StdPeriph_Driver/src/stm32f10x_can.c ****   uint32_t wait_slak = SLAK_TIMEOUT;
 885:STM32F10x_StdPeriph_Driver/src/stm32f10x_can.c ****   uint8_t wakeupstatus = CAN_WakeUp_Failed;
 886:STM32F10x_StdPeriph_Driver/src/stm32f10x_can.c ****   
 887:STM32F10x_StdPeriph_Driver/src/stm32f10x_can.c ****   /* Check the parameters */
ARM GAS  C:\Users\kevin\AppData\Local\Temp\ccRSUIFU.s 			page 17


 888:STM32F10x_StdPeriph_Driver/src/stm32f10x_can.c ****   assert_param(IS_CAN_ALL_PERIPH(CANx));
 889:STM32F10x_StdPeriph_Driver/src/stm32f10x_can.c ****     
 890:STM32F10x_StdPeriph_Driver/src/stm32f10x_can.c ****   /* Wake up request */
 891:STM32F10x_StdPeriph_Driver/src/stm32f10x_can.c ****   CANx->MCR &= ~(uint32_t)CAN_MCR_SLEEP;
 892:STM32F10x_StdPeriph_Driver/src/stm32f10x_can.c ****     
 893:STM32F10x_StdPeriph_Driver/src/stm32f10x_can.c ****   /* Sleep mode status */
 894:STM32F10x_StdPeriph_Driver/src/stm32f10x_can.c ****   while(((CANx->MSR & CAN_MSR_SLAK) == CAN_MSR_SLAK)&&(wait_slak!=0x00))
 895:STM32F10x_StdPeriph_Driver/src/stm32f10x_can.c ****   {
 896:STM32F10x_StdPeriph_Driver/src/stm32f10x_can.c ****    wait_slak--;
 897:STM32F10x_StdPeriph_Driver/src/stm32f10x_can.c ****   }
 898:STM32F10x_StdPeriph_Driver/src/stm32f10x_can.c ****   if((CANx->MSR & CAN_MSR_SLAK) != CAN_MSR_SLAK)
 899:STM32F10x_StdPeriph_Driver/src/stm32f10x_can.c ****   {
 900:STM32F10x_StdPeriph_Driver/src/stm32f10x_can.c ****    /* wake up done : Sleep mode exited */
 901:STM32F10x_StdPeriph_Driver/src/stm32f10x_can.c ****     wakeupstatus = CAN_WakeUp_Ok;
 902:STM32F10x_StdPeriph_Driver/src/stm32f10x_can.c ****   }
 903:STM32F10x_StdPeriph_Driver/src/stm32f10x_can.c ****   /* return wakeup status */
 904:STM32F10x_StdPeriph_Driver/src/stm32f10x_can.c ****   return (uint8_t)wakeupstatus;
 905:STM32F10x_StdPeriph_Driver/src/stm32f10x_can.c **** }
 906:STM32F10x_StdPeriph_Driver/src/stm32f10x_can.c **** 
 907:STM32F10x_StdPeriph_Driver/src/stm32f10x_can.c **** 
 908:STM32F10x_StdPeriph_Driver/src/stm32f10x_can.c **** /**
 909:STM32F10x_StdPeriph_Driver/src/stm32f10x_can.c ****   * @brief  Returns the CANx's last error code (LEC).
 910:STM32F10x_StdPeriph_Driver/src/stm32f10x_can.c ****   * @param  CANx:          where x can be 1 or 2 to to select the CAN peripheral.  
 911:STM32F10x_StdPeriph_Driver/src/stm32f10x_can.c ****   * @retval CAN_ErrorCode: specifies the Error code : 
 912:STM32F10x_StdPeriph_Driver/src/stm32f10x_can.c ****   *                        - CAN_ERRORCODE_NoErr            No Error  
 913:STM32F10x_StdPeriph_Driver/src/stm32f10x_can.c ****   *                        - CAN_ERRORCODE_StuffErr         Stuff Error
 914:STM32F10x_StdPeriph_Driver/src/stm32f10x_can.c ****   *                        - CAN_ERRORCODE_FormErr          Form Error
 915:STM32F10x_StdPeriph_Driver/src/stm32f10x_can.c ****   *                        - CAN_ERRORCODE_ACKErr           Acknowledgment Error
 916:STM32F10x_StdPeriph_Driver/src/stm32f10x_can.c ****   *                        - CAN_ERRORCODE_BitRecessiveErr  Bit Recessive Error
 917:STM32F10x_StdPeriph_Driver/src/stm32f10x_can.c ****   *                        - CAN_ERRORCODE_BitDominantErr   Bit Dominant Error
 918:STM32F10x_StdPeriph_Driver/src/stm32f10x_can.c ****   *                        - CAN_ERRORCODE_CRCErr           CRC Error
 919:STM32F10x_StdPeriph_Driver/src/stm32f10x_can.c ****   *                        - CAN_ERRORCODE_SoftwareSetErr   Software Set Error  
 920:STM32F10x_StdPeriph_Driver/src/stm32f10x_can.c ****   */
 921:STM32F10x_StdPeriph_Driver/src/stm32f10x_can.c ****  
 922:STM32F10x_StdPeriph_Driver/src/stm32f10x_can.c **** uint8_t CAN_GetLastErrorCode(CAN_TypeDef* CANx)
 923:STM32F10x_StdPeriph_Driver/src/stm32f10x_can.c **** {
 924:STM32F10x_StdPeriph_Driver/src/stm32f10x_can.c ****   uint8_t errorcode=0;
 925:STM32F10x_StdPeriph_Driver/src/stm32f10x_can.c ****   
 926:STM32F10x_StdPeriph_Driver/src/stm32f10x_can.c ****   /* Check the parameters */
 927:STM32F10x_StdPeriph_Driver/src/stm32f10x_can.c ****   assert_param(IS_CAN_ALL_PERIPH(CANx));
 928:STM32F10x_StdPeriph_Driver/src/stm32f10x_can.c ****   
 929:STM32F10x_StdPeriph_Driver/src/stm32f10x_can.c ****   /* Get the error code*/
 930:STM32F10x_StdPeriph_Driver/src/stm32f10x_can.c ****   errorcode = (((uint8_t)CANx->ESR) & (uint8_t)CAN_ESR_LEC);
 931:STM32F10x_StdPeriph_Driver/src/stm32f10x_can.c ****   
 932:STM32F10x_StdPeriph_Driver/src/stm32f10x_can.c ****   /* Return the error code*/
 933:STM32F10x_StdPeriph_Driver/src/stm32f10x_can.c ****   return errorcode;
 934:STM32F10x_StdPeriph_Driver/src/stm32f10x_can.c **** }
 935:STM32F10x_StdPeriph_Driver/src/stm32f10x_can.c **** /**
 936:STM32F10x_StdPeriph_Driver/src/stm32f10x_can.c ****   * @brief  Returns the CANx Receive Error Counter (REC).
 937:STM32F10x_StdPeriph_Driver/src/stm32f10x_can.c ****   * @note   In case of an error during reception, this counter is incremented 
 938:STM32F10x_StdPeriph_Driver/src/stm32f10x_can.c ****   *         by 1 or by 8 depending on the error condition as defined by the CAN 
 939:STM32F10x_StdPeriph_Driver/src/stm32f10x_can.c ****   *         standard. After every successful reception, the counter is 
 940:STM32F10x_StdPeriph_Driver/src/stm32f10x_can.c ****   *         decremented by 1 or reset to 120 if its value was higher than 128. 
 941:STM32F10x_StdPeriph_Driver/src/stm32f10x_can.c ****   *         When the counter value exceeds 127, the CAN controller enters the 
 942:STM32F10x_StdPeriph_Driver/src/stm32f10x_can.c ****   *         error passive state.  
 943:STM32F10x_StdPeriph_Driver/src/stm32f10x_can.c ****   * @param  CANx: where x can be 1 or 2 to to select the CAN peripheral.  
 944:STM32F10x_StdPeriph_Driver/src/stm32f10x_can.c ****   * @retval CAN Receive Error Counter. 
ARM GAS  C:\Users\kevin\AppData\Local\Temp\ccRSUIFU.s 			page 18


 945:STM32F10x_StdPeriph_Driver/src/stm32f10x_can.c ****   */
 946:STM32F10x_StdPeriph_Driver/src/stm32f10x_can.c **** uint8_t CAN_GetReceiveErrorCounter(CAN_TypeDef* CANx)
 947:STM32F10x_StdPeriph_Driver/src/stm32f10x_can.c **** {
 948:STM32F10x_StdPeriph_Driver/src/stm32f10x_can.c ****   uint8_t counter=0;
 949:STM32F10x_StdPeriph_Driver/src/stm32f10x_can.c ****   
 950:STM32F10x_StdPeriph_Driver/src/stm32f10x_can.c ****   /* Check the parameters */
 951:STM32F10x_StdPeriph_Driver/src/stm32f10x_can.c ****   assert_param(IS_CAN_ALL_PERIPH(CANx));
 952:STM32F10x_StdPeriph_Driver/src/stm32f10x_can.c ****   
 953:STM32F10x_StdPeriph_Driver/src/stm32f10x_can.c ****   /* Get the Receive Error Counter*/
 954:STM32F10x_StdPeriph_Driver/src/stm32f10x_can.c ****   counter = (uint8_t)((CANx->ESR & CAN_ESR_REC)>> 24);
 955:STM32F10x_StdPeriph_Driver/src/stm32f10x_can.c ****   
 956:STM32F10x_StdPeriph_Driver/src/stm32f10x_can.c ****   /* Return the Receive Error Counter*/
 957:STM32F10x_StdPeriph_Driver/src/stm32f10x_can.c ****   return counter;
 958:STM32F10x_StdPeriph_Driver/src/stm32f10x_can.c **** }
 959:STM32F10x_StdPeriph_Driver/src/stm32f10x_can.c **** 
 960:STM32F10x_StdPeriph_Driver/src/stm32f10x_can.c **** 
 961:STM32F10x_StdPeriph_Driver/src/stm32f10x_can.c **** /**
 962:STM32F10x_StdPeriph_Driver/src/stm32f10x_can.c ****   * @brief  Returns the LSB of the 9-bit CANx Transmit Error Counter(TEC).
 963:STM32F10x_StdPeriph_Driver/src/stm32f10x_can.c ****   * @param  CANx:   where x can be 1 or 2 to to select the CAN peripheral.  
 964:STM32F10x_StdPeriph_Driver/src/stm32f10x_can.c ****   * @retval LSB of the 9-bit CAN Transmit Error Counter. 
 965:STM32F10x_StdPeriph_Driver/src/stm32f10x_can.c ****   */
 966:STM32F10x_StdPeriph_Driver/src/stm32f10x_can.c **** uint8_t CAN_GetLSBTransmitErrorCounter(CAN_TypeDef* CANx)
 967:STM32F10x_StdPeriph_Driver/src/stm32f10x_can.c **** {
 968:STM32F10x_StdPeriph_Driver/src/stm32f10x_can.c ****   uint8_t counter=0;
 969:STM32F10x_StdPeriph_Driver/src/stm32f10x_can.c ****   
 970:STM32F10x_StdPeriph_Driver/src/stm32f10x_can.c ****   /* Check the parameters */
 971:STM32F10x_StdPeriph_Driver/src/stm32f10x_can.c ****   assert_param(IS_CAN_ALL_PERIPH(CANx));
 972:STM32F10x_StdPeriph_Driver/src/stm32f10x_can.c ****   
 973:STM32F10x_StdPeriph_Driver/src/stm32f10x_can.c ****   /* Get the LSB of the 9-bit CANx Transmit Error Counter(TEC) */
 974:STM32F10x_StdPeriph_Driver/src/stm32f10x_can.c ****   counter = (uint8_t)((CANx->ESR & CAN_ESR_TEC)>> 16);
 975:STM32F10x_StdPeriph_Driver/src/stm32f10x_can.c ****   
 976:STM32F10x_StdPeriph_Driver/src/stm32f10x_can.c ****   /* Return the LSB of the 9-bit CANx Transmit Error Counter(TEC) */
 977:STM32F10x_StdPeriph_Driver/src/stm32f10x_can.c ****   return counter;
 978:STM32F10x_StdPeriph_Driver/src/stm32f10x_can.c **** }
 979:STM32F10x_StdPeriph_Driver/src/stm32f10x_can.c **** 
 980:STM32F10x_StdPeriph_Driver/src/stm32f10x_can.c **** 
 981:STM32F10x_StdPeriph_Driver/src/stm32f10x_can.c **** /**
 982:STM32F10x_StdPeriph_Driver/src/stm32f10x_can.c ****   * @brief  Enables or disables the specified CANx interrupts.
 983:STM32F10x_StdPeriph_Driver/src/stm32f10x_can.c ****   * @param  CANx:   where x can be 1 or 2 to to select the CAN peripheral.
 984:STM32F10x_StdPeriph_Driver/src/stm32f10x_can.c ****   * @param  CAN_IT: specifies the CAN interrupt sources to be enabled or disabled.
 985:STM32F10x_StdPeriph_Driver/src/stm32f10x_can.c ****   *                 This parameter can be: 
 986:STM32F10x_StdPeriph_Driver/src/stm32f10x_can.c ****   *                 - CAN_IT_TME, 
 987:STM32F10x_StdPeriph_Driver/src/stm32f10x_can.c ****   *                 - CAN_IT_FMP0, 
 988:STM32F10x_StdPeriph_Driver/src/stm32f10x_can.c ****   *                 - CAN_IT_FF0,
 989:STM32F10x_StdPeriph_Driver/src/stm32f10x_can.c ****   *                 - CAN_IT_FOV0, 
 990:STM32F10x_StdPeriph_Driver/src/stm32f10x_can.c ****   *                 - CAN_IT_FMP1, 
 991:STM32F10x_StdPeriph_Driver/src/stm32f10x_can.c ****   *                 - CAN_IT_FF1,
 992:STM32F10x_StdPeriph_Driver/src/stm32f10x_can.c ****   *                 - CAN_IT_FOV1, 
 993:STM32F10x_StdPeriph_Driver/src/stm32f10x_can.c ****   *                 - CAN_IT_EWG, 
 994:STM32F10x_StdPeriph_Driver/src/stm32f10x_can.c ****   *                 - CAN_IT_EPV,
 995:STM32F10x_StdPeriph_Driver/src/stm32f10x_can.c ****   *                 - CAN_IT_LEC, 
 996:STM32F10x_StdPeriph_Driver/src/stm32f10x_can.c ****   *                 - CAN_IT_ERR, 
 997:STM32F10x_StdPeriph_Driver/src/stm32f10x_can.c ****   *                 - CAN_IT_WKU or 
 998:STM32F10x_StdPeriph_Driver/src/stm32f10x_can.c ****   *                 - CAN_IT_SLK.
 999:STM32F10x_StdPeriph_Driver/src/stm32f10x_can.c ****   * @param  NewState: new state of the CAN interrupts.
1000:STM32F10x_StdPeriph_Driver/src/stm32f10x_can.c ****   *                   This parameter can be: ENABLE or DISABLE.
1001:STM32F10x_StdPeriph_Driver/src/stm32f10x_can.c ****   * @retval None.
ARM GAS  C:\Users\kevin\AppData\Local\Temp\ccRSUIFU.s 			page 19


1002:STM32F10x_StdPeriph_Driver/src/stm32f10x_can.c ****   */
1003:STM32F10x_StdPeriph_Driver/src/stm32f10x_can.c **** void CAN_ITConfig(CAN_TypeDef* CANx, uint32_t CAN_IT, FunctionalState NewState)
1004:STM32F10x_StdPeriph_Driver/src/stm32f10x_can.c **** {
1005:STM32F10x_StdPeriph_Driver/src/stm32f10x_can.c ****   /* Check the parameters */
1006:STM32F10x_StdPeriph_Driver/src/stm32f10x_can.c ****   assert_param(IS_CAN_ALL_PERIPH(CANx));
1007:STM32F10x_StdPeriph_Driver/src/stm32f10x_can.c ****   assert_param(IS_CAN_IT(CAN_IT));
1008:STM32F10x_StdPeriph_Driver/src/stm32f10x_can.c ****   assert_param(IS_FUNCTIONAL_STATE(NewState));
1009:STM32F10x_StdPeriph_Driver/src/stm32f10x_can.c **** 
1010:STM32F10x_StdPeriph_Driver/src/stm32f10x_can.c ****   if (NewState != DISABLE)
1011:STM32F10x_StdPeriph_Driver/src/stm32f10x_can.c ****   {
1012:STM32F10x_StdPeriph_Driver/src/stm32f10x_can.c ****     /* Enable the selected CANx interrupt */
1013:STM32F10x_StdPeriph_Driver/src/stm32f10x_can.c ****     CANx->IER |= CAN_IT;
1014:STM32F10x_StdPeriph_Driver/src/stm32f10x_can.c ****   }
1015:STM32F10x_StdPeriph_Driver/src/stm32f10x_can.c ****   else
1016:STM32F10x_StdPeriph_Driver/src/stm32f10x_can.c ****   {
1017:STM32F10x_StdPeriph_Driver/src/stm32f10x_can.c ****     /* Disable the selected CANx interrupt */
1018:STM32F10x_StdPeriph_Driver/src/stm32f10x_can.c ****     CANx->IER &= ~CAN_IT;
1019:STM32F10x_StdPeriph_Driver/src/stm32f10x_can.c ****   }
1020:STM32F10x_StdPeriph_Driver/src/stm32f10x_can.c **** }
1021:STM32F10x_StdPeriph_Driver/src/stm32f10x_can.c **** /**
1022:STM32F10x_StdPeriph_Driver/src/stm32f10x_can.c ****   * @brief  Checks whether the specified CAN flag is set or not.
1023:STM32F10x_StdPeriph_Driver/src/stm32f10x_can.c ****   * @param  CANx:     where x can be 1 or 2 to to select the CAN peripheral.
1024:STM32F10x_StdPeriph_Driver/src/stm32f10x_can.c ****   * @param  CAN_FLAG: specifies the flag to check.
1025:STM32F10x_StdPeriph_Driver/src/stm32f10x_can.c ****   *                   This parameter can be one of the following flags: 
1026:STM32F10x_StdPeriph_Driver/src/stm32f10x_can.c ****   *                  - CAN_FLAG_EWG
1027:STM32F10x_StdPeriph_Driver/src/stm32f10x_can.c ****   *                  - CAN_FLAG_EPV 
1028:STM32F10x_StdPeriph_Driver/src/stm32f10x_can.c ****   *                  - CAN_FLAG_BOF
1029:STM32F10x_StdPeriph_Driver/src/stm32f10x_can.c ****   *                  - CAN_FLAG_RQCP0
1030:STM32F10x_StdPeriph_Driver/src/stm32f10x_can.c ****   *                  - CAN_FLAG_RQCP1
1031:STM32F10x_StdPeriph_Driver/src/stm32f10x_can.c ****   *                  - CAN_FLAG_RQCP2
1032:STM32F10x_StdPeriph_Driver/src/stm32f10x_can.c ****   *                  - CAN_FLAG_FMP1   
1033:STM32F10x_StdPeriph_Driver/src/stm32f10x_can.c ****   *                  - CAN_FLAG_FF1       
1034:STM32F10x_StdPeriph_Driver/src/stm32f10x_can.c ****   *                  - CAN_FLAG_FOV1   
1035:STM32F10x_StdPeriph_Driver/src/stm32f10x_can.c ****   *                  - CAN_FLAG_FMP0   
1036:STM32F10x_StdPeriph_Driver/src/stm32f10x_can.c ****   *                  - CAN_FLAG_FF0       
1037:STM32F10x_StdPeriph_Driver/src/stm32f10x_can.c ****   *                  - CAN_FLAG_FOV0   
1038:STM32F10x_StdPeriph_Driver/src/stm32f10x_can.c ****   *                  - CAN_FLAG_WKU 
1039:STM32F10x_StdPeriph_Driver/src/stm32f10x_can.c ****   *                  - CAN_FLAG_SLAK  
1040:STM32F10x_StdPeriph_Driver/src/stm32f10x_can.c ****   *                  - CAN_FLAG_LEC       
1041:STM32F10x_StdPeriph_Driver/src/stm32f10x_can.c ****   * @retval The new state of CAN_FLAG (SET or RESET).
1042:STM32F10x_StdPeriph_Driver/src/stm32f10x_can.c ****   */
1043:STM32F10x_StdPeriph_Driver/src/stm32f10x_can.c **** FlagStatus CAN_GetFlagStatus(CAN_TypeDef* CANx, uint32_t CAN_FLAG)
1044:STM32F10x_StdPeriph_Driver/src/stm32f10x_can.c **** {
1045:STM32F10x_StdPeriph_Driver/src/stm32f10x_can.c ****   FlagStatus bitstatus = RESET;
1046:STM32F10x_StdPeriph_Driver/src/stm32f10x_can.c ****   
1047:STM32F10x_StdPeriph_Driver/src/stm32f10x_can.c ****   /* Check the parameters */
1048:STM32F10x_StdPeriph_Driver/src/stm32f10x_can.c ****   assert_param(IS_CAN_ALL_PERIPH(CANx));
1049:STM32F10x_StdPeriph_Driver/src/stm32f10x_can.c ****   assert_param(IS_CAN_GET_FLAG(CAN_FLAG));
1050:STM32F10x_StdPeriph_Driver/src/stm32f10x_can.c ****   
1051:STM32F10x_StdPeriph_Driver/src/stm32f10x_can.c **** 
1052:STM32F10x_StdPeriph_Driver/src/stm32f10x_can.c ****   if((CAN_FLAG & CAN_FLAGS_ESR) != (uint32_t)RESET)
1053:STM32F10x_StdPeriph_Driver/src/stm32f10x_can.c ****   { 
1054:STM32F10x_StdPeriph_Driver/src/stm32f10x_can.c ****     /* Check the status of the specified CAN flag */
1055:STM32F10x_StdPeriph_Driver/src/stm32f10x_can.c ****     if ((CANx->ESR & (CAN_FLAG & 0x000FFFFF)) != (uint32_t)RESET)
1056:STM32F10x_StdPeriph_Driver/src/stm32f10x_can.c ****     { 
1057:STM32F10x_StdPeriph_Driver/src/stm32f10x_can.c ****       /* CAN_FLAG is set */
1058:STM32F10x_StdPeriph_Driver/src/stm32f10x_can.c ****       bitstatus = SET;
ARM GAS  C:\Users\kevin\AppData\Local\Temp\ccRSUIFU.s 			page 20


1059:STM32F10x_StdPeriph_Driver/src/stm32f10x_can.c ****     }
1060:STM32F10x_StdPeriph_Driver/src/stm32f10x_can.c ****     else
1061:STM32F10x_StdPeriph_Driver/src/stm32f10x_can.c ****     { 
1062:STM32F10x_StdPeriph_Driver/src/stm32f10x_can.c ****       /* CAN_FLAG is reset */
1063:STM32F10x_StdPeriph_Driver/src/stm32f10x_can.c ****       bitstatus = RESET;
1064:STM32F10x_StdPeriph_Driver/src/stm32f10x_can.c ****     }
1065:STM32F10x_StdPeriph_Driver/src/stm32f10x_can.c ****   }
1066:STM32F10x_StdPeriph_Driver/src/stm32f10x_can.c ****   else if((CAN_FLAG & CAN_FLAGS_MSR) != (uint32_t)RESET)
1067:STM32F10x_StdPeriph_Driver/src/stm32f10x_can.c ****   { 
1068:STM32F10x_StdPeriph_Driver/src/stm32f10x_can.c ****     /* Check the status of the specified CAN flag */
1069:STM32F10x_StdPeriph_Driver/src/stm32f10x_can.c ****     if ((CANx->MSR & (CAN_FLAG & 0x000FFFFF)) != (uint32_t)RESET)
1070:STM32F10x_StdPeriph_Driver/src/stm32f10x_can.c ****     { 
1071:STM32F10x_StdPeriph_Driver/src/stm32f10x_can.c ****       /* CAN_FLAG is set */
1072:STM32F10x_StdPeriph_Driver/src/stm32f10x_can.c ****       bitstatus = SET;
1073:STM32F10x_StdPeriph_Driver/src/stm32f10x_can.c ****     }
1074:STM32F10x_StdPeriph_Driver/src/stm32f10x_can.c ****     else
1075:STM32F10x_StdPeriph_Driver/src/stm32f10x_can.c ****     { 
1076:STM32F10x_StdPeriph_Driver/src/stm32f10x_can.c ****       /* CAN_FLAG is reset */
1077:STM32F10x_StdPeriph_Driver/src/stm32f10x_can.c ****       bitstatus = RESET;
1078:STM32F10x_StdPeriph_Driver/src/stm32f10x_can.c ****     }
1079:STM32F10x_StdPeriph_Driver/src/stm32f10x_can.c ****   }
1080:STM32F10x_StdPeriph_Driver/src/stm32f10x_can.c ****   else if((CAN_FLAG & CAN_FLAGS_TSR) != (uint32_t)RESET)
1081:STM32F10x_StdPeriph_Driver/src/stm32f10x_can.c ****   { 
1082:STM32F10x_StdPeriph_Driver/src/stm32f10x_can.c ****     /* Check the status of the specified CAN flag */
1083:STM32F10x_StdPeriph_Driver/src/stm32f10x_can.c ****     if ((CANx->TSR & (CAN_FLAG & 0x000FFFFF)) != (uint32_t)RESET)
1084:STM32F10x_StdPeriph_Driver/src/stm32f10x_can.c ****     { 
1085:STM32F10x_StdPeriph_Driver/src/stm32f10x_can.c ****       /* CAN_FLAG is set */
1086:STM32F10x_StdPeriph_Driver/src/stm32f10x_can.c ****       bitstatus = SET;
1087:STM32F10x_StdPeriph_Driver/src/stm32f10x_can.c ****     }
1088:STM32F10x_StdPeriph_Driver/src/stm32f10x_can.c ****     else
1089:STM32F10x_StdPeriph_Driver/src/stm32f10x_can.c ****     { 
1090:STM32F10x_StdPeriph_Driver/src/stm32f10x_can.c ****       /* CAN_FLAG is reset */
1091:STM32F10x_StdPeriph_Driver/src/stm32f10x_can.c ****       bitstatus = RESET;
1092:STM32F10x_StdPeriph_Driver/src/stm32f10x_can.c ****     }
1093:STM32F10x_StdPeriph_Driver/src/stm32f10x_can.c ****   }
1094:STM32F10x_StdPeriph_Driver/src/stm32f10x_can.c ****   else if((CAN_FLAG & CAN_FLAGS_RF0R) != (uint32_t)RESET)
1095:STM32F10x_StdPeriph_Driver/src/stm32f10x_can.c ****   { 
1096:STM32F10x_StdPeriph_Driver/src/stm32f10x_can.c ****     /* Check the status of the specified CAN flag */
1097:STM32F10x_StdPeriph_Driver/src/stm32f10x_can.c ****     if ((CANx->RF0R & (CAN_FLAG & 0x000FFFFF)) != (uint32_t)RESET)
1098:STM32F10x_StdPeriph_Driver/src/stm32f10x_can.c ****     { 
1099:STM32F10x_StdPeriph_Driver/src/stm32f10x_can.c ****       /* CAN_FLAG is set */
1100:STM32F10x_StdPeriph_Driver/src/stm32f10x_can.c ****       bitstatus = SET;
1101:STM32F10x_StdPeriph_Driver/src/stm32f10x_can.c ****     }
1102:STM32F10x_StdPeriph_Driver/src/stm32f10x_can.c ****     else
1103:STM32F10x_StdPeriph_Driver/src/stm32f10x_can.c ****     { 
1104:STM32F10x_StdPeriph_Driver/src/stm32f10x_can.c ****       /* CAN_FLAG is reset */
1105:STM32F10x_StdPeriph_Driver/src/stm32f10x_can.c ****       bitstatus = RESET;
1106:STM32F10x_StdPeriph_Driver/src/stm32f10x_can.c ****     }
1107:STM32F10x_StdPeriph_Driver/src/stm32f10x_can.c ****   }
1108:STM32F10x_StdPeriph_Driver/src/stm32f10x_can.c ****   else /* If(CAN_FLAG & CAN_FLAGS_RF1R != (uint32_t)RESET) */
1109:STM32F10x_StdPeriph_Driver/src/stm32f10x_can.c ****   { 
1110:STM32F10x_StdPeriph_Driver/src/stm32f10x_can.c ****     /* Check the status of the specified CAN flag */
1111:STM32F10x_StdPeriph_Driver/src/stm32f10x_can.c ****     if ((uint32_t)(CANx->RF1R & (CAN_FLAG & 0x000FFFFF)) != (uint32_t)RESET)
1112:STM32F10x_StdPeriph_Driver/src/stm32f10x_can.c ****     { 
1113:STM32F10x_StdPeriph_Driver/src/stm32f10x_can.c ****       /* CAN_FLAG is set */
1114:STM32F10x_StdPeriph_Driver/src/stm32f10x_can.c ****       bitstatus = SET;
1115:STM32F10x_StdPeriph_Driver/src/stm32f10x_can.c ****     }
ARM GAS  C:\Users\kevin\AppData\Local\Temp\ccRSUIFU.s 			page 21


1116:STM32F10x_StdPeriph_Driver/src/stm32f10x_can.c ****     else
1117:STM32F10x_StdPeriph_Driver/src/stm32f10x_can.c ****     { 
1118:STM32F10x_StdPeriph_Driver/src/stm32f10x_can.c ****       /* CAN_FLAG is reset */
1119:STM32F10x_StdPeriph_Driver/src/stm32f10x_can.c ****       bitstatus = RESET;
1120:STM32F10x_StdPeriph_Driver/src/stm32f10x_can.c ****     }
1121:STM32F10x_StdPeriph_Driver/src/stm32f10x_can.c ****   }
1122:STM32F10x_StdPeriph_Driver/src/stm32f10x_can.c ****   /* Return the CAN_FLAG status */
1123:STM32F10x_StdPeriph_Driver/src/stm32f10x_can.c ****   return  bitstatus;
1124:STM32F10x_StdPeriph_Driver/src/stm32f10x_can.c **** }
1125:STM32F10x_StdPeriph_Driver/src/stm32f10x_can.c **** 
1126:STM32F10x_StdPeriph_Driver/src/stm32f10x_can.c **** /**
1127:STM32F10x_StdPeriph_Driver/src/stm32f10x_can.c ****   * @brief  Clears the CAN's pending flags.
1128:STM32F10x_StdPeriph_Driver/src/stm32f10x_can.c ****   * @param  CANx:     where x can be 1 or 2 to to select the CAN peripheral.
1129:STM32F10x_StdPeriph_Driver/src/stm32f10x_can.c ****   * @param  CAN_FLAG: specifies the flag to clear.
1130:STM32F10x_StdPeriph_Driver/src/stm32f10x_can.c ****   *                   This parameter can be one of the following flags: 
1131:STM32F10x_StdPeriph_Driver/src/stm32f10x_can.c ****   *                    - CAN_FLAG_RQCP0
1132:STM32F10x_StdPeriph_Driver/src/stm32f10x_can.c ****   *                    - CAN_FLAG_RQCP1
1133:STM32F10x_StdPeriph_Driver/src/stm32f10x_can.c ****   *                    - CAN_FLAG_RQCP2
1134:STM32F10x_StdPeriph_Driver/src/stm32f10x_can.c ****   *                    - CAN_FLAG_FF1       
1135:STM32F10x_StdPeriph_Driver/src/stm32f10x_can.c ****   *                    - CAN_FLAG_FOV1   
1136:STM32F10x_StdPeriph_Driver/src/stm32f10x_can.c ****   *                    - CAN_FLAG_FF0       
1137:STM32F10x_StdPeriph_Driver/src/stm32f10x_can.c ****   *                    - CAN_FLAG_FOV0   
1138:STM32F10x_StdPeriph_Driver/src/stm32f10x_can.c ****   *                    - CAN_FLAG_WKU   
1139:STM32F10x_StdPeriph_Driver/src/stm32f10x_can.c ****   *                    - CAN_FLAG_SLAK    
1140:STM32F10x_StdPeriph_Driver/src/stm32f10x_can.c ****   *                    - CAN_FLAG_LEC       
1141:STM32F10x_StdPeriph_Driver/src/stm32f10x_can.c ****   * @retval None.
1142:STM32F10x_StdPeriph_Driver/src/stm32f10x_can.c ****   */
1143:STM32F10x_StdPeriph_Driver/src/stm32f10x_can.c **** void CAN_ClearFlag(CAN_TypeDef* CANx, uint32_t CAN_FLAG)
1144:STM32F10x_StdPeriph_Driver/src/stm32f10x_can.c **** {
1145:STM32F10x_StdPeriph_Driver/src/stm32f10x_can.c ****   uint32_t flagtmp=0;
1146:STM32F10x_StdPeriph_Driver/src/stm32f10x_can.c ****   /* Check the parameters */
1147:STM32F10x_StdPeriph_Driver/src/stm32f10x_can.c ****   assert_param(IS_CAN_ALL_PERIPH(CANx));
1148:STM32F10x_StdPeriph_Driver/src/stm32f10x_can.c ****   assert_param(IS_CAN_CLEAR_FLAG(CAN_FLAG));
1149:STM32F10x_StdPeriph_Driver/src/stm32f10x_can.c ****   
1150:STM32F10x_StdPeriph_Driver/src/stm32f10x_can.c ****   if (CAN_FLAG == CAN_FLAG_LEC) /* ESR register */
1151:STM32F10x_StdPeriph_Driver/src/stm32f10x_can.c ****   {
1152:STM32F10x_StdPeriph_Driver/src/stm32f10x_can.c ****     /* Clear the selected CAN flags */
1153:STM32F10x_StdPeriph_Driver/src/stm32f10x_can.c ****     CANx->ESR = (uint32_t)RESET;
1154:STM32F10x_StdPeriph_Driver/src/stm32f10x_can.c ****   }
1155:STM32F10x_StdPeriph_Driver/src/stm32f10x_can.c ****   else /* MSR or TSR or RF0R or RF1R */
1156:STM32F10x_StdPeriph_Driver/src/stm32f10x_can.c ****   {
1157:STM32F10x_StdPeriph_Driver/src/stm32f10x_can.c ****     flagtmp = CAN_FLAG & 0x000FFFFF;
1158:STM32F10x_StdPeriph_Driver/src/stm32f10x_can.c **** 
1159:STM32F10x_StdPeriph_Driver/src/stm32f10x_can.c ****     if ((CAN_FLAG & CAN_FLAGS_RF0R)!=(uint32_t)RESET)
1160:STM32F10x_StdPeriph_Driver/src/stm32f10x_can.c ****     {
1161:STM32F10x_StdPeriph_Driver/src/stm32f10x_can.c ****       /* Receive Flags */
1162:STM32F10x_StdPeriph_Driver/src/stm32f10x_can.c ****       CANx->RF0R = (uint32_t)(flagtmp);
1163:STM32F10x_StdPeriph_Driver/src/stm32f10x_can.c ****     }
1164:STM32F10x_StdPeriph_Driver/src/stm32f10x_can.c ****     else if ((CAN_FLAG & CAN_FLAGS_RF1R)!=(uint32_t)RESET)
1165:STM32F10x_StdPeriph_Driver/src/stm32f10x_can.c ****     {
1166:STM32F10x_StdPeriph_Driver/src/stm32f10x_can.c ****       /* Receive Flags */
1167:STM32F10x_StdPeriph_Driver/src/stm32f10x_can.c ****       CANx->RF1R = (uint32_t)(flagtmp);
1168:STM32F10x_StdPeriph_Driver/src/stm32f10x_can.c ****     }
1169:STM32F10x_StdPeriph_Driver/src/stm32f10x_can.c ****     else if ((CAN_FLAG & CAN_FLAGS_TSR)!=(uint32_t)RESET)
1170:STM32F10x_StdPeriph_Driver/src/stm32f10x_can.c ****     {
1171:STM32F10x_StdPeriph_Driver/src/stm32f10x_can.c ****       /* Transmit Flags */
1172:STM32F10x_StdPeriph_Driver/src/stm32f10x_can.c ****       CANx->TSR = (uint32_t)(flagtmp);
ARM GAS  C:\Users\kevin\AppData\Local\Temp\ccRSUIFU.s 			page 22


1173:STM32F10x_StdPeriph_Driver/src/stm32f10x_can.c ****     }
1174:STM32F10x_StdPeriph_Driver/src/stm32f10x_can.c ****     else /* If((CAN_FLAG & CAN_FLAGS_MSR)!=(uint32_t)RESET) */
1175:STM32F10x_StdPeriph_Driver/src/stm32f10x_can.c ****     {
1176:STM32F10x_StdPeriph_Driver/src/stm32f10x_can.c ****       /* Operating mode Flags */
1177:STM32F10x_StdPeriph_Driver/src/stm32f10x_can.c ****       CANx->MSR = (uint32_t)(flagtmp);
1178:STM32F10x_StdPeriph_Driver/src/stm32f10x_can.c ****     }
1179:STM32F10x_StdPeriph_Driver/src/stm32f10x_can.c ****   }
1180:STM32F10x_StdPeriph_Driver/src/stm32f10x_can.c **** }
1181:STM32F10x_StdPeriph_Driver/src/stm32f10x_can.c **** 
1182:STM32F10x_StdPeriph_Driver/src/stm32f10x_can.c **** /**
1183:STM32F10x_StdPeriph_Driver/src/stm32f10x_can.c ****   * @brief  Checks whether the specified CANx interrupt has occurred or not.
1184:STM32F10x_StdPeriph_Driver/src/stm32f10x_can.c ****   * @param  CANx:    where x can be 1 or 2 to to select the CAN peripheral.
1185:STM32F10x_StdPeriph_Driver/src/stm32f10x_can.c ****   * @param  CAN_IT:  specifies the CAN interrupt source to check.
1186:STM32F10x_StdPeriph_Driver/src/stm32f10x_can.c ****   *                  This parameter can be one of the following flags: 
1187:STM32F10x_StdPeriph_Driver/src/stm32f10x_can.c ****   *                 -  CAN_IT_TME               
1188:STM32F10x_StdPeriph_Driver/src/stm32f10x_can.c ****   *                 -  CAN_IT_FMP0              
1189:STM32F10x_StdPeriph_Driver/src/stm32f10x_can.c ****   *                 -  CAN_IT_FF0               
1190:STM32F10x_StdPeriph_Driver/src/stm32f10x_can.c ****   *                 -  CAN_IT_FOV0              
1191:STM32F10x_StdPeriph_Driver/src/stm32f10x_can.c ****   *                 -  CAN_IT_FMP1              
1192:STM32F10x_StdPeriph_Driver/src/stm32f10x_can.c ****   *                 -  CAN_IT_FF1               
1193:STM32F10x_StdPeriph_Driver/src/stm32f10x_can.c ****   *                 -  CAN_IT_FOV1              
1194:STM32F10x_StdPeriph_Driver/src/stm32f10x_can.c ****   *                 -  CAN_IT_WKU  
1195:STM32F10x_StdPeriph_Driver/src/stm32f10x_can.c ****   *                 -  CAN_IT_SLK  
1196:STM32F10x_StdPeriph_Driver/src/stm32f10x_can.c ****   *                 -  CAN_IT_EWG    
1197:STM32F10x_StdPeriph_Driver/src/stm32f10x_can.c ****   *                 -  CAN_IT_EPV    
1198:STM32F10x_StdPeriph_Driver/src/stm32f10x_can.c ****   *                 -  CAN_IT_BOF    
1199:STM32F10x_StdPeriph_Driver/src/stm32f10x_can.c ****   *                 -  CAN_IT_LEC    
1200:STM32F10x_StdPeriph_Driver/src/stm32f10x_can.c ****   *                 -  CAN_IT_ERR 
1201:STM32F10x_StdPeriph_Driver/src/stm32f10x_can.c ****   * @retval The current state of CAN_IT (SET or RESET).
1202:STM32F10x_StdPeriph_Driver/src/stm32f10x_can.c ****   */
1203:STM32F10x_StdPeriph_Driver/src/stm32f10x_can.c **** ITStatus CAN_GetITStatus(CAN_TypeDef* CANx, uint32_t CAN_IT)
1204:STM32F10x_StdPeriph_Driver/src/stm32f10x_can.c **** {
1205:STM32F10x_StdPeriph_Driver/src/stm32f10x_can.c ****   ITStatus itstatus = RESET;
1206:STM32F10x_StdPeriph_Driver/src/stm32f10x_can.c ****   /* Check the parameters */
1207:STM32F10x_StdPeriph_Driver/src/stm32f10x_can.c ****   assert_param(IS_CAN_ALL_PERIPH(CANx));
1208:STM32F10x_StdPeriph_Driver/src/stm32f10x_can.c ****   assert_param(IS_CAN_IT(CAN_IT));
1209:STM32F10x_StdPeriph_Driver/src/stm32f10x_can.c ****   
1210:STM32F10x_StdPeriph_Driver/src/stm32f10x_can.c ****   /* check the enable interrupt bit */
1211:STM32F10x_StdPeriph_Driver/src/stm32f10x_can.c ****  if((CANx->IER & CAN_IT) != RESET)
1212:STM32F10x_StdPeriph_Driver/src/stm32f10x_can.c ****  {
1213:STM32F10x_StdPeriph_Driver/src/stm32f10x_can.c ****    /* in case the Interrupt is enabled, .... */
1214:STM32F10x_StdPeriph_Driver/src/stm32f10x_can.c ****     switch (CAN_IT)
1215:STM32F10x_StdPeriph_Driver/src/stm32f10x_can.c ****     {
1216:STM32F10x_StdPeriph_Driver/src/stm32f10x_can.c ****       case CAN_IT_TME:
1217:STM32F10x_StdPeriph_Driver/src/stm32f10x_can.c ****                /* Check CAN_TSR_RQCPx bits */
1218:STM32F10x_StdPeriph_Driver/src/stm32f10x_can.c **** 	             itstatus = CheckITStatus(CANx->TSR, CAN_TSR_RQCP0|CAN_TSR_RQCP1|CAN_TSR_RQCP2);  
1219:STM32F10x_StdPeriph_Driver/src/stm32f10x_can.c **** 	      break;
1220:STM32F10x_StdPeriph_Driver/src/stm32f10x_can.c ****       case CAN_IT_FMP0:
1221:STM32F10x_StdPeriph_Driver/src/stm32f10x_can.c ****                /* Check CAN_RF0R_FMP0 bit */
1222:STM32F10x_StdPeriph_Driver/src/stm32f10x_can.c **** 	             itstatus = CheckITStatus(CANx->RF0R, CAN_RF0R_FMP0);  
1223:STM32F10x_StdPeriph_Driver/src/stm32f10x_can.c **** 	      break;
1224:STM32F10x_StdPeriph_Driver/src/stm32f10x_can.c ****       case CAN_IT_FF0:
1225:STM32F10x_StdPeriph_Driver/src/stm32f10x_can.c ****                /* Check CAN_RF0R_FULL0 bit */
1226:STM32F10x_StdPeriph_Driver/src/stm32f10x_can.c ****                itstatus = CheckITStatus(CANx->RF0R, CAN_RF0R_FULL0);  
1227:STM32F10x_StdPeriph_Driver/src/stm32f10x_can.c **** 	      break;
1228:STM32F10x_StdPeriph_Driver/src/stm32f10x_can.c ****       case CAN_IT_FOV0:
1229:STM32F10x_StdPeriph_Driver/src/stm32f10x_can.c ****                /* Check CAN_RF0R_FOVR0 bit */
ARM GAS  C:\Users\kevin\AppData\Local\Temp\ccRSUIFU.s 			page 23


1230:STM32F10x_StdPeriph_Driver/src/stm32f10x_can.c ****                itstatus = CheckITStatus(CANx->RF0R, CAN_RF0R_FOVR0);  
1231:STM32F10x_StdPeriph_Driver/src/stm32f10x_can.c **** 	      break;
1232:STM32F10x_StdPeriph_Driver/src/stm32f10x_can.c ****       case CAN_IT_FMP1:
1233:STM32F10x_StdPeriph_Driver/src/stm32f10x_can.c ****                /* Check CAN_RF1R_FMP1 bit */
1234:STM32F10x_StdPeriph_Driver/src/stm32f10x_can.c ****                itstatus = CheckITStatus(CANx->RF1R, CAN_RF1R_FMP1);  
1235:STM32F10x_StdPeriph_Driver/src/stm32f10x_can.c **** 	      break;
1236:STM32F10x_StdPeriph_Driver/src/stm32f10x_can.c ****       case CAN_IT_FF1:
1237:STM32F10x_StdPeriph_Driver/src/stm32f10x_can.c ****                /* Check CAN_RF1R_FULL1 bit */
1238:STM32F10x_StdPeriph_Driver/src/stm32f10x_can.c **** 	             itstatus = CheckITStatus(CANx->RF1R, CAN_RF1R_FULL1);  
1239:STM32F10x_StdPeriph_Driver/src/stm32f10x_can.c **** 	      break;
1240:STM32F10x_StdPeriph_Driver/src/stm32f10x_can.c ****       case CAN_IT_FOV1:
1241:STM32F10x_StdPeriph_Driver/src/stm32f10x_can.c ****                /* Check CAN_RF1R_FOVR1 bit */
1242:STM32F10x_StdPeriph_Driver/src/stm32f10x_can.c **** 	             itstatus = CheckITStatus(CANx->RF1R, CAN_RF1R_FOVR1);  
1243:STM32F10x_StdPeriph_Driver/src/stm32f10x_can.c **** 	      break;
1244:STM32F10x_StdPeriph_Driver/src/stm32f10x_can.c ****       case CAN_IT_WKU:
1245:STM32F10x_StdPeriph_Driver/src/stm32f10x_can.c ****                /* Check CAN_MSR_WKUI bit */
1246:STM32F10x_StdPeriph_Driver/src/stm32f10x_can.c ****                itstatus = CheckITStatus(CANx->MSR, CAN_MSR_WKUI);  
1247:STM32F10x_StdPeriph_Driver/src/stm32f10x_can.c **** 	      break;
1248:STM32F10x_StdPeriph_Driver/src/stm32f10x_can.c ****       case CAN_IT_SLK:
1249:STM32F10x_StdPeriph_Driver/src/stm32f10x_can.c ****                /* Check CAN_MSR_SLAKI bit */
1250:STM32F10x_StdPeriph_Driver/src/stm32f10x_can.c **** 	             itstatus = CheckITStatus(CANx->MSR, CAN_MSR_SLAKI);  
1251:STM32F10x_StdPeriph_Driver/src/stm32f10x_can.c **** 	      break;
1252:STM32F10x_StdPeriph_Driver/src/stm32f10x_can.c ****       case CAN_IT_EWG:
1253:STM32F10x_StdPeriph_Driver/src/stm32f10x_can.c ****                /* Check CAN_ESR_EWGF bit */
1254:STM32F10x_StdPeriph_Driver/src/stm32f10x_can.c **** 	             itstatus = CheckITStatus(CANx->ESR, CAN_ESR_EWGF);  
1255:STM32F10x_StdPeriph_Driver/src/stm32f10x_can.c **** 	      break;
1256:STM32F10x_StdPeriph_Driver/src/stm32f10x_can.c ****       case CAN_IT_EPV:
1257:STM32F10x_StdPeriph_Driver/src/stm32f10x_can.c ****                /* Check CAN_ESR_EPVF bit */
1258:STM32F10x_StdPeriph_Driver/src/stm32f10x_can.c **** 	             itstatus = CheckITStatus(CANx->ESR, CAN_ESR_EPVF);  
1259:STM32F10x_StdPeriph_Driver/src/stm32f10x_can.c **** 	      break;
1260:STM32F10x_StdPeriph_Driver/src/stm32f10x_can.c ****       case CAN_IT_BOF:
1261:STM32F10x_StdPeriph_Driver/src/stm32f10x_can.c ****                /* Check CAN_ESR_BOFF bit */
1262:STM32F10x_StdPeriph_Driver/src/stm32f10x_can.c **** 	             itstatus = CheckITStatus(CANx->ESR, CAN_ESR_BOFF);  
1263:STM32F10x_StdPeriph_Driver/src/stm32f10x_can.c **** 	      break;
1264:STM32F10x_StdPeriph_Driver/src/stm32f10x_can.c ****       case CAN_IT_LEC:
1265:STM32F10x_StdPeriph_Driver/src/stm32f10x_can.c ****                /* Check CAN_ESR_LEC bit */
1266:STM32F10x_StdPeriph_Driver/src/stm32f10x_can.c **** 	             itstatus = CheckITStatus(CANx->ESR, CAN_ESR_LEC);  
1267:STM32F10x_StdPeriph_Driver/src/stm32f10x_can.c **** 	      break;
1268:STM32F10x_StdPeriph_Driver/src/stm32f10x_can.c ****       case CAN_IT_ERR:
1269:STM32F10x_StdPeriph_Driver/src/stm32f10x_can.c ****                /* Check CAN_MSR_ERRI bit */ 
1270:STM32F10x_StdPeriph_Driver/src/stm32f10x_can.c ****                itstatus = CheckITStatus(CANx->MSR, CAN_MSR_ERRI); 
1271:STM32F10x_StdPeriph_Driver/src/stm32f10x_can.c **** 	      break;
1272:STM32F10x_StdPeriph_Driver/src/stm32f10x_can.c ****       default :
1273:STM32F10x_StdPeriph_Driver/src/stm32f10x_can.c ****                /* in case of error, return RESET */
1274:STM32F10x_StdPeriph_Driver/src/stm32f10x_can.c ****               itstatus = RESET;
1275:STM32F10x_StdPeriph_Driver/src/stm32f10x_can.c ****               break;
1276:STM32F10x_StdPeriph_Driver/src/stm32f10x_can.c ****     }
1277:STM32F10x_StdPeriph_Driver/src/stm32f10x_can.c ****   }
1278:STM32F10x_StdPeriph_Driver/src/stm32f10x_can.c ****   else
1279:STM32F10x_StdPeriph_Driver/src/stm32f10x_can.c ****   {
1280:STM32F10x_StdPeriph_Driver/src/stm32f10x_can.c ****    /* in case the Interrupt is not enabled, return RESET */
1281:STM32F10x_StdPeriph_Driver/src/stm32f10x_can.c ****     itstatus  = RESET;
1282:STM32F10x_StdPeriph_Driver/src/stm32f10x_can.c ****   }
1283:STM32F10x_StdPeriph_Driver/src/stm32f10x_can.c ****   
1284:STM32F10x_StdPeriph_Driver/src/stm32f10x_can.c ****   /* Return the CAN_IT status */
1285:STM32F10x_StdPeriph_Driver/src/stm32f10x_can.c ****   return  itstatus;
1286:STM32F10x_StdPeriph_Driver/src/stm32f10x_can.c **** }
ARM GAS  C:\Users\kevin\AppData\Local\Temp\ccRSUIFU.s 			page 24


1287:STM32F10x_StdPeriph_Driver/src/stm32f10x_can.c **** 
1288:STM32F10x_StdPeriph_Driver/src/stm32f10x_can.c **** /**
1289:STM32F10x_StdPeriph_Driver/src/stm32f10x_can.c ****   * @brief  Clears the CANx's interrupt pending bits.
1290:STM32F10x_StdPeriph_Driver/src/stm32f10x_can.c ****   * @param  CANx:    where x can be 1 or 2 to to select the CAN peripheral.
1291:STM32F10x_StdPeriph_Driver/src/stm32f10x_can.c ****   * @param  CAN_IT: specifies the interrupt pending bit to clear.
1292:STM32F10x_StdPeriph_Driver/src/stm32f10x_can.c ****   *                  -  CAN_IT_TME                     
1293:STM32F10x_StdPeriph_Driver/src/stm32f10x_can.c ****   *                  -  CAN_IT_FF0               
1294:STM32F10x_StdPeriph_Driver/src/stm32f10x_can.c ****   *                  -  CAN_IT_FOV0                     
1295:STM32F10x_StdPeriph_Driver/src/stm32f10x_can.c ****   *                  -  CAN_IT_FF1               
1296:STM32F10x_StdPeriph_Driver/src/stm32f10x_can.c ****   *                  -  CAN_IT_FOV1              
1297:STM32F10x_StdPeriph_Driver/src/stm32f10x_can.c ****   *                  -  CAN_IT_WKU  
1298:STM32F10x_StdPeriph_Driver/src/stm32f10x_can.c ****   *                  -  CAN_IT_SLK  
1299:STM32F10x_StdPeriph_Driver/src/stm32f10x_can.c ****   *                  -  CAN_IT_EWG    
1300:STM32F10x_StdPeriph_Driver/src/stm32f10x_can.c ****   *                  -  CAN_IT_EPV    
1301:STM32F10x_StdPeriph_Driver/src/stm32f10x_can.c ****   *                  -  CAN_IT_BOF    
1302:STM32F10x_StdPeriph_Driver/src/stm32f10x_can.c ****   *                  -  CAN_IT_LEC    
1303:STM32F10x_StdPeriph_Driver/src/stm32f10x_can.c ****   *                  -  CAN_IT_ERR 
1304:STM32F10x_StdPeriph_Driver/src/stm32f10x_can.c ****   * @retval None.
1305:STM32F10x_StdPeriph_Driver/src/stm32f10x_can.c ****   */
1306:STM32F10x_StdPeriph_Driver/src/stm32f10x_can.c **** void CAN_ClearITPendingBit(CAN_TypeDef* CANx, uint32_t CAN_IT)
1307:STM32F10x_StdPeriph_Driver/src/stm32f10x_can.c **** {
1308:STM32F10x_StdPeriph_Driver/src/stm32f10x_can.c ****   /* Check the parameters */
1309:STM32F10x_StdPeriph_Driver/src/stm32f10x_can.c ****   assert_param(IS_CAN_ALL_PERIPH(CANx));
1310:STM32F10x_StdPeriph_Driver/src/stm32f10x_can.c ****   assert_param(IS_CAN_CLEAR_IT(CAN_IT));
1311:STM32F10x_StdPeriph_Driver/src/stm32f10x_can.c **** 
1312:STM32F10x_StdPeriph_Driver/src/stm32f10x_can.c ****   switch (CAN_IT)
1313:STM32F10x_StdPeriph_Driver/src/stm32f10x_can.c ****   {
1314:STM32F10x_StdPeriph_Driver/src/stm32f10x_can.c ****       case CAN_IT_TME:
1315:STM32F10x_StdPeriph_Driver/src/stm32f10x_can.c ****               /* Clear CAN_TSR_RQCPx (rc_w1)*/
1316:STM32F10x_StdPeriph_Driver/src/stm32f10x_can.c **** 	      CANx->TSR = CAN_TSR_RQCP0|CAN_TSR_RQCP1|CAN_TSR_RQCP2;  
1317:STM32F10x_StdPeriph_Driver/src/stm32f10x_can.c **** 	      break;
1318:STM32F10x_StdPeriph_Driver/src/stm32f10x_can.c ****       case CAN_IT_FF0:
1319:STM32F10x_StdPeriph_Driver/src/stm32f10x_can.c ****               /* Clear CAN_RF0R_FULL0 (rc_w1)*/
1320:STM32F10x_StdPeriph_Driver/src/stm32f10x_can.c **** 	      CANx->RF0R = CAN_RF0R_FULL0; 
1321:STM32F10x_StdPeriph_Driver/src/stm32f10x_can.c **** 	      break;
1322:STM32F10x_StdPeriph_Driver/src/stm32f10x_can.c ****       case CAN_IT_FOV0:
1323:STM32F10x_StdPeriph_Driver/src/stm32f10x_can.c ****               /* Clear CAN_RF0R_FOVR0 (rc_w1)*/
1324:STM32F10x_StdPeriph_Driver/src/stm32f10x_can.c **** 	      CANx->RF0R = CAN_RF0R_FOVR0; 
1325:STM32F10x_StdPeriph_Driver/src/stm32f10x_can.c **** 	      break;
1326:STM32F10x_StdPeriph_Driver/src/stm32f10x_can.c ****       case CAN_IT_FF1:
1327:STM32F10x_StdPeriph_Driver/src/stm32f10x_can.c ****               /* Clear CAN_RF1R_FULL1 (rc_w1)*/
1328:STM32F10x_StdPeriph_Driver/src/stm32f10x_can.c **** 	      CANx->RF1R = CAN_RF1R_FULL1;  
1329:STM32F10x_StdPeriph_Driver/src/stm32f10x_can.c **** 	      break;
1330:STM32F10x_StdPeriph_Driver/src/stm32f10x_can.c ****       case CAN_IT_FOV1:
1331:STM32F10x_StdPeriph_Driver/src/stm32f10x_can.c ****               /* Clear CAN_RF1R_FOVR1 (rc_w1)*/
1332:STM32F10x_StdPeriph_Driver/src/stm32f10x_can.c **** 	      CANx->RF1R = CAN_RF1R_FOVR1; 
1333:STM32F10x_StdPeriph_Driver/src/stm32f10x_can.c **** 	      break;
1334:STM32F10x_StdPeriph_Driver/src/stm32f10x_can.c ****       case CAN_IT_WKU:
1335:STM32F10x_StdPeriph_Driver/src/stm32f10x_can.c ****               /* Clear CAN_MSR_WKUI (rc_w1)*/
1336:STM32F10x_StdPeriph_Driver/src/stm32f10x_can.c **** 	      CANx->MSR = CAN_MSR_WKUI;  
1337:STM32F10x_StdPeriph_Driver/src/stm32f10x_can.c **** 	      break;
1338:STM32F10x_StdPeriph_Driver/src/stm32f10x_can.c ****       case CAN_IT_SLK:
1339:STM32F10x_StdPeriph_Driver/src/stm32f10x_can.c ****               /* Clear CAN_MSR_SLAKI (rc_w1)*/ 
1340:STM32F10x_StdPeriph_Driver/src/stm32f10x_can.c **** 	      CANx->MSR = CAN_MSR_SLAKI;   
1341:STM32F10x_StdPeriph_Driver/src/stm32f10x_can.c **** 	      break;
1342:STM32F10x_StdPeriph_Driver/src/stm32f10x_can.c ****       case CAN_IT_EWG:
1343:STM32F10x_StdPeriph_Driver/src/stm32f10x_can.c ****               /* Clear CAN_MSR_ERRI (rc_w1) */
ARM GAS  C:\Users\kevin\AppData\Local\Temp\ccRSUIFU.s 			page 25


1344:STM32F10x_StdPeriph_Driver/src/stm32f10x_can.c **** 	      CANx->MSR = CAN_MSR_ERRI;
1345:STM32F10x_StdPeriph_Driver/src/stm32f10x_can.c ****               /* Note : the corresponding Flag is cleared by hardware depending 
1346:STM32F10x_StdPeriph_Driver/src/stm32f10x_can.c ****                         of the CAN Bus status*/ 
1347:STM32F10x_StdPeriph_Driver/src/stm32f10x_can.c **** 	      break;
1348:STM32F10x_StdPeriph_Driver/src/stm32f10x_can.c ****       case CAN_IT_EPV:
1349:STM32F10x_StdPeriph_Driver/src/stm32f10x_can.c ****               /* Clear CAN_MSR_ERRI (rc_w1) */
1350:STM32F10x_StdPeriph_Driver/src/stm32f10x_can.c **** 	      CANx->MSR = CAN_MSR_ERRI; 
1351:STM32F10x_StdPeriph_Driver/src/stm32f10x_can.c ****               /* Note : the corresponding Flag is cleared by hardware depending 
1352:STM32F10x_StdPeriph_Driver/src/stm32f10x_can.c ****                         of the CAN Bus status*/
1353:STM32F10x_StdPeriph_Driver/src/stm32f10x_can.c **** 	      break;
1354:STM32F10x_StdPeriph_Driver/src/stm32f10x_can.c ****       case CAN_IT_BOF:
1355:STM32F10x_StdPeriph_Driver/src/stm32f10x_can.c ****               /* Clear CAN_MSR_ERRI (rc_w1) */ 
1356:STM32F10x_StdPeriph_Driver/src/stm32f10x_can.c **** 	      CANx->MSR = CAN_MSR_ERRI; 
1357:STM32F10x_StdPeriph_Driver/src/stm32f10x_can.c ****               /* Note : the corresponding Flag is cleared by hardware depending 
1358:STM32F10x_StdPeriph_Driver/src/stm32f10x_can.c ****                         of the CAN Bus status*/
1359:STM32F10x_StdPeriph_Driver/src/stm32f10x_can.c **** 	      break;
1360:STM32F10x_StdPeriph_Driver/src/stm32f10x_can.c ****       case CAN_IT_LEC:
1361:STM32F10x_StdPeriph_Driver/src/stm32f10x_can.c ****               /*  Clear LEC bits */
1362:STM32F10x_StdPeriph_Driver/src/stm32f10x_can.c **** 	      CANx->ESR = RESET; 
1363:STM32F10x_StdPeriph_Driver/src/stm32f10x_can.c ****               /* Clear CAN_MSR_ERRI (rc_w1) */
1364:STM32F10x_StdPeriph_Driver/src/stm32f10x_can.c **** 	      CANx->MSR = CAN_MSR_ERRI; 
1365:STM32F10x_StdPeriph_Driver/src/stm32f10x_can.c **** 	      break;
1366:STM32F10x_StdPeriph_Driver/src/stm32f10x_can.c ****       case CAN_IT_ERR:
1367:STM32F10x_StdPeriph_Driver/src/stm32f10x_can.c ****               /*Clear LEC bits */
1368:STM32F10x_StdPeriph_Driver/src/stm32f10x_can.c **** 	      CANx->ESR = RESET; 
1369:STM32F10x_StdPeriph_Driver/src/stm32f10x_can.c ****               /* Clear CAN_MSR_ERRI (rc_w1) */
1370:STM32F10x_StdPeriph_Driver/src/stm32f10x_can.c **** 	      CANx->MSR = CAN_MSR_ERRI; 
1371:STM32F10x_StdPeriph_Driver/src/stm32f10x_can.c **** 	      /* Note : BOFF, EPVF and EWGF Flags are cleared by hardware depending 
1372:STM32F10x_StdPeriph_Driver/src/stm32f10x_can.c ****                   of the CAN Bus status*/
1373:STM32F10x_StdPeriph_Driver/src/stm32f10x_can.c **** 	      break;
1374:STM32F10x_StdPeriph_Driver/src/stm32f10x_can.c ****       default :
1375:STM32F10x_StdPeriph_Driver/src/stm32f10x_can.c **** 	      break;
1376:STM32F10x_StdPeriph_Driver/src/stm32f10x_can.c ****    }
1377:STM32F10x_StdPeriph_Driver/src/stm32f10x_can.c **** }
1378:STM32F10x_StdPeriph_Driver/src/stm32f10x_can.c **** 
1379:STM32F10x_StdPeriph_Driver/src/stm32f10x_can.c **** /**
1380:STM32F10x_StdPeriph_Driver/src/stm32f10x_can.c ****   * @brief  Checks whether the CAN interrupt has occurred or not.
1381:STM32F10x_StdPeriph_Driver/src/stm32f10x_can.c ****   * @param  CAN_Reg: specifies the CAN interrupt register to check.
1382:STM32F10x_StdPeriph_Driver/src/stm32f10x_can.c ****   * @param  It_Bit:  specifies the interrupt source bit to check.
1383:STM32F10x_StdPeriph_Driver/src/stm32f10x_can.c ****   * @retval The new state of the CAN Interrupt (SET or RESET).
1384:STM32F10x_StdPeriph_Driver/src/stm32f10x_can.c ****   */
1385:STM32F10x_StdPeriph_Driver/src/stm32f10x_can.c **** static ITStatus CheckITStatus(uint32_t CAN_Reg, uint32_t It_Bit)
1386:STM32F10x_StdPeriph_Driver/src/stm32f10x_can.c **** {
  27              		.loc 1 1386 1 view -0
  28              		.cfi_startproc
  29              		@ args = 0, pretend = 0, frame = 0
  30              		@ frame_needed = 0, uses_anonymous_args = 0
  31              		@ link register save eliminated.
1387:STM32F10x_StdPeriph_Driver/src/stm32f10x_can.c ****   ITStatus pendingbitstatus = RESET;
  32              		.loc 1 1387 3 view .LVU1
1388:STM32F10x_StdPeriph_Driver/src/stm32f10x_can.c ****   
1389:STM32F10x_StdPeriph_Driver/src/stm32f10x_can.c ****   if ((CAN_Reg & It_Bit) != (uint32_t)RESET)
  33              		.loc 1 1389 3 view .LVU2
  34              		.loc 1 1389 6 is_stmt 0 view .LVU3
  35 0000 0842     		tst	r0, r1
  36 0002 01D0     		beq	.L3
1390:STM32F10x_StdPeriph_Driver/src/stm32f10x_can.c ****   {
ARM GAS  C:\Users\kevin\AppData\Local\Temp\ccRSUIFU.s 			page 26


1391:STM32F10x_StdPeriph_Driver/src/stm32f10x_can.c ****     /* CAN_IT is set */
1392:STM32F10x_StdPeriph_Driver/src/stm32f10x_can.c ****     pendingbitstatus = SET;
  37              		.loc 1 1392 22 view .LVU4
  38 0004 0120     		movs	r0, #1
  39              	.LVL1:
  40              		.loc 1 1392 22 view .LVU5
  41 0006 7047     		bx	lr
  42              	.LVL2:
  43              	.L3:
1393:STM32F10x_StdPeriph_Driver/src/stm32f10x_can.c ****   }
1394:STM32F10x_StdPeriph_Driver/src/stm32f10x_can.c ****   else
1395:STM32F10x_StdPeriph_Driver/src/stm32f10x_can.c ****   {
1396:STM32F10x_StdPeriph_Driver/src/stm32f10x_can.c ****     /* CAN_IT is reset */
1397:STM32F10x_StdPeriph_Driver/src/stm32f10x_can.c ****     pendingbitstatus = RESET;
  44              		.loc 1 1397 22 view .LVU6
  45 0008 0020     		movs	r0, #0
  46              	.LVL3:
1398:STM32F10x_StdPeriph_Driver/src/stm32f10x_can.c ****   }
1399:STM32F10x_StdPeriph_Driver/src/stm32f10x_can.c ****   return pendingbitstatus;
  47              		.loc 1 1399 3 is_stmt 1 view .LVU7
1400:STM32F10x_StdPeriph_Driver/src/stm32f10x_can.c **** }
  48              		.loc 1 1400 1 is_stmt 0 view .LVU8
  49 000a 7047     		bx	lr
  50              		.cfi_endproc
  51              	.LFE53:
  53              		.section	.text.CAN_DeInit,"ax",%progbits
  54              		.align	1
  55              		.global	CAN_DeInit
  56              		.syntax unified
  57              		.thumb
  58              		.thumb_func
  60              	CAN_DeInit:
  61              	.LVL4:
  62              	.LFB29:
 123:STM32F10x_StdPeriph_Driver/src/stm32f10x_can.c ****   /* Check the parameters */
  63              		.loc 1 123 1 is_stmt 1 view -0
  64              		.cfi_startproc
  65              		@ args = 0, pretend = 0, frame = 0
  66              		@ frame_needed = 0, uses_anonymous_args = 0
 123:STM32F10x_StdPeriph_Driver/src/stm32f10x_can.c ****   /* Check the parameters */
  67              		.loc 1 123 1 is_stmt 0 view .LVU10
  68 0000 08B5     		push	{r3, lr}
  69              	.LCFI0:
  70              		.cfi_def_cfa_offset 8
  71              		.cfi_offset 3, -8
  72              		.cfi_offset 14, -4
 125:STM32F10x_StdPeriph_Driver/src/stm32f10x_can.c ****  
  73              		.loc 1 125 3 is_stmt 1 view .LVU11
 127:STM32F10x_StdPeriph_Driver/src/stm32f10x_can.c ****   {
  74              		.loc 1 127 3 view .LVU12
 127:STM32F10x_StdPeriph_Driver/src/stm32f10x_can.c ****   {
  75              		.loc 1 127 6 is_stmt 0 view .LVU13
  76 0002 0C4B     		ldr	r3, .L9
  77 0004 9842     		cmp	r0, r3
  78 0006 0AD0     		beq	.L8
 137:STM32F10x_StdPeriph_Driver/src/stm32f10x_can.c ****     /* Release CAN2 from reset state */
  79              		.loc 1 137 5 is_stmt 1 view .LVU14
ARM GAS  C:\Users\kevin\AppData\Local\Temp\ccRSUIFU.s 			page 27


  80 0008 0121     		movs	r1, #1
  81 000a 4FF08060 		mov	r0, #67108864
  82              	.LVL5:
 137:STM32F10x_StdPeriph_Driver/src/stm32f10x_can.c ****     /* Release CAN2 from reset state */
  83              		.loc 1 137 5 is_stmt 0 view .LVU15
  84 000e FFF7FEFF 		bl	RCC_APB1PeriphResetCmd
  85              	.LVL6:
 139:STM32F10x_StdPeriph_Driver/src/stm32f10x_can.c ****   }
  86              		.loc 1 139 5 is_stmt 1 view .LVU16
  87 0012 0021     		movs	r1, #0
  88 0014 4FF08060 		mov	r0, #67108864
  89 0018 FFF7FEFF 		bl	RCC_APB1PeriphResetCmd
  90              	.LVL7:
  91              	.L4:
 141:STM32F10x_StdPeriph_Driver/src/stm32f10x_can.c **** 
  92              		.loc 1 141 1 is_stmt 0 view .LVU17
  93 001c 08BD     		pop	{r3, pc}
  94              	.LVL8:
  95              	.L8:
 130:STM32F10x_StdPeriph_Driver/src/stm32f10x_can.c ****     /* Release CAN1 from reset state */
  96              		.loc 1 130 5 is_stmt 1 view .LVU18
  97 001e 0121     		movs	r1, #1
  98 0020 4FF00070 		mov	r0, #33554432
  99              	.LVL9:
 130:STM32F10x_StdPeriph_Driver/src/stm32f10x_can.c ****     /* Release CAN1 from reset state */
 100              		.loc 1 130 5 is_stmt 0 view .LVU19
 101 0024 FFF7FEFF 		bl	RCC_APB1PeriphResetCmd
 102              	.LVL10:
 132:STM32F10x_StdPeriph_Driver/src/stm32f10x_can.c ****   }
 103              		.loc 1 132 5 is_stmt 1 view .LVU20
 104 0028 0021     		movs	r1, #0
 105 002a 4FF00070 		mov	r0, #33554432
 106 002e FFF7FEFF 		bl	RCC_APB1PeriphResetCmd
 107              	.LVL11:
 108 0032 F3E7     		b	.L4
 109              	.L10:
 110              		.align	2
 111              	.L9:
 112 0034 00640040 		.word	1073767424
 113              		.cfi_endproc
 114              	.LFE29:
 116              		.section	.text.CAN_Init,"ax",%progbits
 117              		.align	1
 118              		.global	CAN_Init
 119              		.syntax unified
 120              		.thumb
 121              		.thumb_func
 123              	CAN_Init:
 124              	.LVL12:
 125              	.LFB30:
 155:STM32F10x_StdPeriph_Driver/src/stm32f10x_can.c ****   uint8_t InitStatus = CAN_InitStatus_Failed;
 126              		.loc 1 155 1 view -0
 127              		.cfi_startproc
 128              		@ args = 0, pretend = 0, frame = 0
 129              		@ frame_needed = 0, uses_anonymous_args = 0
 130              		@ link register save eliminated.
 156:STM32F10x_StdPeriph_Driver/src/stm32f10x_can.c ****   uint32_t wait_ack = 0x00000000;
ARM GAS  C:\Users\kevin\AppData\Local\Temp\ccRSUIFU.s 			page 28


 131              		.loc 1 156 3 view .LVU22
 157:STM32F10x_StdPeriph_Driver/src/stm32f10x_can.c ****   /* Check the parameters */
 132              		.loc 1 157 3 view .LVU23
 159:STM32F10x_StdPeriph_Driver/src/stm32f10x_can.c ****   assert_param(IS_FUNCTIONAL_STATE(CAN_InitStruct->CAN_TTCM));
 133              		.loc 1 159 3 view .LVU24
 160:STM32F10x_StdPeriph_Driver/src/stm32f10x_can.c ****   assert_param(IS_FUNCTIONAL_STATE(CAN_InitStruct->CAN_ABOM));
 134              		.loc 1 160 3 view .LVU25
 161:STM32F10x_StdPeriph_Driver/src/stm32f10x_can.c ****   assert_param(IS_FUNCTIONAL_STATE(CAN_InitStruct->CAN_AWUM));
 135              		.loc 1 161 3 view .LVU26
 162:STM32F10x_StdPeriph_Driver/src/stm32f10x_can.c ****   assert_param(IS_FUNCTIONAL_STATE(CAN_InitStruct->CAN_NART));
 136              		.loc 1 162 3 view .LVU27
 163:STM32F10x_StdPeriph_Driver/src/stm32f10x_can.c ****   assert_param(IS_FUNCTIONAL_STATE(CAN_InitStruct->CAN_RFLM));
 137              		.loc 1 163 3 view .LVU28
 164:STM32F10x_StdPeriph_Driver/src/stm32f10x_can.c ****   assert_param(IS_FUNCTIONAL_STATE(CAN_InitStruct->CAN_TXFP));
 138              		.loc 1 164 3 view .LVU29
 165:STM32F10x_StdPeriph_Driver/src/stm32f10x_can.c ****   assert_param(IS_CAN_MODE(CAN_InitStruct->CAN_Mode));
 139              		.loc 1 165 3 view .LVU30
 166:STM32F10x_StdPeriph_Driver/src/stm32f10x_can.c ****   assert_param(IS_CAN_SJW(CAN_InitStruct->CAN_SJW));
 140              		.loc 1 166 3 view .LVU31
 167:STM32F10x_StdPeriph_Driver/src/stm32f10x_can.c ****   assert_param(IS_CAN_BS1(CAN_InitStruct->CAN_BS1));
 141              		.loc 1 167 3 view .LVU32
 168:STM32F10x_StdPeriph_Driver/src/stm32f10x_can.c ****   assert_param(IS_CAN_BS2(CAN_InitStruct->CAN_BS2));
 142              		.loc 1 168 3 view .LVU33
 169:STM32F10x_StdPeriph_Driver/src/stm32f10x_can.c ****   assert_param(IS_CAN_PRESCALER(CAN_InitStruct->CAN_Prescaler));
 143              		.loc 1 169 3 view .LVU34
 170:STM32F10x_StdPeriph_Driver/src/stm32f10x_can.c **** 
 144              		.loc 1 170 3 view .LVU35
 173:STM32F10x_StdPeriph_Driver/src/stm32f10x_can.c **** 
 145              		.loc 1 173 3 view .LVU36
 173:STM32F10x_StdPeriph_Driver/src/stm32f10x_can.c **** 
 146              		.loc 1 173 7 is_stmt 0 view .LVU37
 147 0000 0368     		ldr	r3, [r0]
 173:STM32F10x_StdPeriph_Driver/src/stm32f10x_can.c **** 
 148              		.loc 1 173 13 view .LVU38
 149 0002 23F00203 		bic	r3, r3, #2
 150 0006 0360     		str	r3, [r0]
 176:STM32F10x_StdPeriph_Driver/src/stm32f10x_can.c **** 
 151              		.loc 1 176 3 is_stmt 1 view .LVU39
 176:STM32F10x_StdPeriph_Driver/src/stm32f10x_can.c **** 
 152              		.loc 1 176 7 is_stmt 0 view .LVU40
 153 0008 0368     		ldr	r3, [r0]
 176:STM32F10x_StdPeriph_Driver/src/stm32f10x_can.c **** 
 154              		.loc 1 176 13 view .LVU41
 155 000a 43F00103 		orr	r3, r3, #1
 156 000e 0360     		str	r3, [r0]
 179:STM32F10x_StdPeriph_Driver/src/stm32f10x_can.c ****   {
 157              		.loc 1 179 3 is_stmt 1 view .LVU42
 157:STM32F10x_StdPeriph_Driver/src/stm32f10x_can.c ****   /* Check the parameters */
 158              		.loc 1 157 12 is_stmt 0 view .LVU43
 159 0010 0023     		movs	r3, #0
 160              	.LVL13:
 161              	.L12:
 179:STM32F10x_StdPeriph_Driver/src/stm32f10x_can.c ****   {
 162              		.loc 1 179 55 is_stmt 1 view .LVU44
 179:STM32F10x_StdPeriph_Driver/src/stm32f10x_can.c ****   {
 163              		.loc 1 179 16 is_stmt 0 view .LVU45
 164 0012 4268     		ldr	r2, [r0, #4]
ARM GAS  C:\Users\kevin\AppData\Local\Temp\ccRSUIFU.s 			page 29


 179:STM32F10x_StdPeriph_Driver/src/stm32f10x_can.c ****   {
 165              		.loc 1 179 55 view .LVU46
 166 0014 12F0010F 		tst	r2, #1
 167 0018 05D1     		bne	.L13
 179:STM32F10x_StdPeriph_Driver/src/stm32f10x_can.c ****   {
 168              		.loc 1 179 55 discriminator 1 view .LVU47
 169 001a 4FF6FF72 		movw	r2, #65535
 170 001e 9342     		cmp	r3, r2
 171 0020 01D0     		beq	.L13
 181:STM32F10x_StdPeriph_Driver/src/stm32f10x_can.c ****   }
 172              		.loc 1 181 5 is_stmt 1 view .LVU48
 181:STM32F10x_StdPeriph_Driver/src/stm32f10x_can.c ****   }
 173              		.loc 1 181 13 is_stmt 0 view .LVU49
 174 0022 0133     		adds	r3, r3, #1
 175              	.LVL14:
 181:STM32F10x_StdPeriph_Driver/src/stm32f10x_can.c ****   }
 176              		.loc 1 181 13 view .LVU50
 177 0024 F5E7     		b	.L12
 178              	.LVL15:
 179              	.L13:
 185:STM32F10x_StdPeriph_Driver/src/stm32f10x_can.c ****   {
 180              		.loc 1 185 3 is_stmt 1 view .LVU51
 185:STM32F10x_StdPeriph_Driver/src/stm32f10x_can.c ****   {
 181              		.loc 1 185 12 is_stmt 0 view .LVU52
 182 0026 4368     		ldr	r3, [r0, #4]
 183              	.LVL16:
 185:STM32F10x_StdPeriph_Driver/src/stm32f10x_can.c ****   {
 184              		.loc 1 185 6 view .LVU53
 185 0028 13F0010F 		tst	r3, #1
 186 002c 6BD0     		beq	.L31
 192:STM32F10x_StdPeriph_Driver/src/stm32f10x_can.c ****     {
 187              		.loc 1 192 5 is_stmt 1 view .LVU54
 192:STM32F10x_StdPeriph_Driver/src/stm32f10x_can.c ****     {
 188              		.loc 1 192 23 is_stmt 0 view .LVU55
 189 002e 8B79     		ldrb	r3, [r1, #6]	@ zero_extendqisi2
 192:STM32F10x_StdPeriph_Driver/src/stm32f10x_can.c ****     {
 190              		.loc 1 192 8 view .LVU56
 191 0030 012B     		cmp	r3, #1
 192 0032 3BD0     		beq	.L33
 198:STM32F10x_StdPeriph_Driver/src/stm32f10x_can.c ****     }
 193              		.loc 1 198 7 is_stmt 1 view .LVU57
 198:STM32F10x_StdPeriph_Driver/src/stm32f10x_can.c ****     }
 194              		.loc 1 198 11 is_stmt 0 view .LVU58
 195 0034 0368     		ldr	r3, [r0]
 198:STM32F10x_StdPeriph_Driver/src/stm32f10x_can.c ****     }
 196              		.loc 1 198 17 view .LVU59
 197 0036 23F08003 		bic	r3, r3, #128
 198 003a 0360     		str	r3, [r0]
 199              	.L17:
 202:STM32F10x_StdPeriph_Driver/src/stm32f10x_can.c ****     {
 200              		.loc 1 202 5 is_stmt 1 view .LVU60
 202:STM32F10x_StdPeriph_Driver/src/stm32f10x_can.c ****     {
 201              		.loc 1 202 23 is_stmt 0 view .LVU61
 202 003c CB79     		ldrb	r3, [r1, #7]	@ zero_extendqisi2
 202:STM32F10x_StdPeriph_Driver/src/stm32f10x_can.c ****     {
 203              		.loc 1 202 8 view .LVU62
 204 003e 012B     		cmp	r3, #1
ARM GAS  C:\Users\kevin\AppData\Local\Temp\ccRSUIFU.s 			page 30


 205 0040 39D0     		beq	.L34
 208:STM32F10x_StdPeriph_Driver/src/stm32f10x_can.c ****     }
 206              		.loc 1 208 7 is_stmt 1 view .LVU63
 208:STM32F10x_StdPeriph_Driver/src/stm32f10x_can.c ****     }
 207              		.loc 1 208 11 is_stmt 0 view .LVU64
 208 0042 0368     		ldr	r3, [r0]
 208:STM32F10x_StdPeriph_Driver/src/stm32f10x_can.c ****     }
 209              		.loc 1 208 17 view .LVU65
 210 0044 23F04003 		bic	r3, r3, #64
 211 0048 0360     		str	r3, [r0]
 212              	.L19:
 212:STM32F10x_StdPeriph_Driver/src/stm32f10x_can.c ****     {
 213              		.loc 1 212 5 is_stmt 1 view .LVU66
 212:STM32F10x_StdPeriph_Driver/src/stm32f10x_can.c ****     {
 214              		.loc 1 212 23 is_stmt 0 view .LVU67
 215 004a 0B7A     		ldrb	r3, [r1, #8]	@ zero_extendqisi2
 212:STM32F10x_StdPeriph_Driver/src/stm32f10x_can.c ****     {
 216              		.loc 1 212 8 view .LVU68
 217 004c 012B     		cmp	r3, #1
 218 004e 37D0     		beq	.L35
 218:STM32F10x_StdPeriph_Driver/src/stm32f10x_can.c ****     }
 219              		.loc 1 218 7 is_stmt 1 view .LVU69
 218:STM32F10x_StdPeriph_Driver/src/stm32f10x_can.c ****     }
 220              		.loc 1 218 11 is_stmt 0 view .LVU70
 221 0050 0368     		ldr	r3, [r0]
 218:STM32F10x_StdPeriph_Driver/src/stm32f10x_can.c ****     }
 222              		.loc 1 218 17 view .LVU71
 223 0052 23F02003 		bic	r3, r3, #32
 224 0056 0360     		str	r3, [r0]
 225              	.L21:
 222:STM32F10x_StdPeriph_Driver/src/stm32f10x_can.c ****     {
 226              		.loc 1 222 5 is_stmt 1 view .LVU72
 222:STM32F10x_StdPeriph_Driver/src/stm32f10x_can.c ****     {
 227              		.loc 1 222 23 is_stmt 0 view .LVU73
 228 0058 4B7A     		ldrb	r3, [r1, #9]	@ zero_extendqisi2
 222:STM32F10x_StdPeriph_Driver/src/stm32f10x_can.c ****     {
 229              		.loc 1 222 8 view .LVU74
 230 005a 012B     		cmp	r3, #1
 231 005c 35D0     		beq	.L36
 228:STM32F10x_StdPeriph_Driver/src/stm32f10x_can.c ****     }
 232              		.loc 1 228 7 is_stmt 1 view .LVU75
 228:STM32F10x_StdPeriph_Driver/src/stm32f10x_can.c ****     }
 233              		.loc 1 228 11 is_stmt 0 view .LVU76
 234 005e 0368     		ldr	r3, [r0]
 228:STM32F10x_StdPeriph_Driver/src/stm32f10x_can.c ****     }
 235              		.loc 1 228 17 view .LVU77
 236 0060 23F01003 		bic	r3, r3, #16
 237 0064 0360     		str	r3, [r0]
 238              	.L23:
 232:STM32F10x_StdPeriph_Driver/src/stm32f10x_can.c ****     {
 239              		.loc 1 232 5 is_stmt 1 view .LVU78
 232:STM32F10x_StdPeriph_Driver/src/stm32f10x_can.c ****     {
 240              		.loc 1 232 23 is_stmt 0 view .LVU79
 241 0066 8B7A     		ldrb	r3, [r1, #10]	@ zero_extendqisi2
 232:STM32F10x_StdPeriph_Driver/src/stm32f10x_can.c ****     {
 242              		.loc 1 232 8 view .LVU80
 243 0068 012B     		cmp	r3, #1
ARM GAS  C:\Users\kevin\AppData\Local\Temp\ccRSUIFU.s 			page 31


 244 006a 33D0     		beq	.L37
 238:STM32F10x_StdPeriph_Driver/src/stm32f10x_can.c ****     }
 245              		.loc 1 238 7 is_stmt 1 view .LVU81
 238:STM32F10x_StdPeriph_Driver/src/stm32f10x_can.c ****     }
 246              		.loc 1 238 11 is_stmt 0 view .LVU82
 247 006c 0368     		ldr	r3, [r0]
 238:STM32F10x_StdPeriph_Driver/src/stm32f10x_can.c ****     }
 248              		.loc 1 238 17 view .LVU83
 249 006e 23F00803 		bic	r3, r3, #8
 250 0072 0360     		str	r3, [r0]
 251              	.L25:
 242:STM32F10x_StdPeriph_Driver/src/stm32f10x_can.c ****     {
 252              		.loc 1 242 5 is_stmt 1 view .LVU84
 242:STM32F10x_StdPeriph_Driver/src/stm32f10x_can.c ****     {
 253              		.loc 1 242 23 is_stmt 0 view .LVU85
 254 0074 CB7A     		ldrb	r3, [r1, #11]	@ zero_extendqisi2
 242:STM32F10x_StdPeriph_Driver/src/stm32f10x_can.c ****     {
 255              		.loc 1 242 8 view .LVU86
 256 0076 012B     		cmp	r3, #1
 257 0078 31D0     		beq	.L38
 248:STM32F10x_StdPeriph_Driver/src/stm32f10x_can.c ****     }
 258              		.loc 1 248 7 is_stmt 1 view .LVU87
 248:STM32F10x_StdPeriph_Driver/src/stm32f10x_can.c ****     }
 259              		.loc 1 248 11 is_stmt 0 view .LVU88
 260 007a 0368     		ldr	r3, [r0]
 248:STM32F10x_StdPeriph_Driver/src/stm32f10x_can.c ****     }
 261              		.loc 1 248 17 view .LVU89
 262 007c 23F00403 		bic	r3, r3, #4
 263 0080 0360     		str	r3, [r0]
 264              	.L27:
 252:STM32F10x_StdPeriph_Driver/src/stm32f10x_can.c ****                 ((uint32_t)CAN_InitStruct->CAN_SJW << 24) | \
 265              		.loc 1 252 5 is_stmt 1 view .LVU90
 252:STM32F10x_StdPeriph_Driver/src/stm32f10x_can.c ****                 ((uint32_t)CAN_InitStruct->CAN_SJW << 24) | \
 266              		.loc 1 252 52 is_stmt 0 view .LVU91
 267 0082 8A78     		ldrb	r2, [r1, #2]	@ zero_extendqisi2
 253:STM32F10x_StdPeriph_Driver/src/stm32f10x_can.c ****                 ((uint32_t)CAN_InitStruct->CAN_BS1 << 16) | \
 268              		.loc 1 253 42 view .LVU92
 269 0084 CB78     		ldrb	r3, [r1, #3]	@ zero_extendqisi2
 253:STM32F10x_StdPeriph_Driver/src/stm32f10x_can.c ****                 ((uint32_t)CAN_InitStruct->CAN_BS1 << 16) | \
 270              		.loc 1 253 52 view .LVU93
 271 0086 1B06     		lsls	r3, r3, #24
 252:STM32F10x_StdPeriph_Driver/src/stm32f10x_can.c ****                 ((uint32_t)CAN_InitStruct->CAN_SJW << 24) | \
 272              		.loc 1 252 70 view .LVU94
 273 0088 43EA8273 		orr	r3, r3, r2, lsl #30
 254:STM32F10x_StdPeriph_Driver/src/stm32f10x_can.c ****                 ((uint32_t)CAN_InitStruct->CAN_BS2 << 20) | \
 274              		.loc 1 254 42 view .LVU95
 275 008c 0A79     		ldrb	r2, [r1, #4]	@ zero_extendqisi2
 253:STM32F10x_StdPeriph_Driver/src/stm32f10x_can.c ****                 ((uint32_t)CAN_InitStruct->CAN_BS1 << 16) | \
 276              		.loc 1 253 59 view .LVU96
 277 008e 43EA0243 		orr	r3, r3, r2, lsl #16
 255:STM32F10x_StdPeriph_Driver/src/stm32f10x_can.c ****                ((uint32_t)CAN_InitStruct->CAN_Prescaler - 1);
 278              		.loc 1 255 42 view .LVU97
 279 0092 4A79     		ldrb	r2, [r1, #5]	@ zero_extendqisi2
 254:STM32F10x_StdPeriph_Driver/src/stm32f10x_can.c ****                 ((uint32_t)CAN_InitStruct->CAN_BS2 << 20) | \
 280              		.loc 1 254 59 view .LVU98
 281 0094 43EA0253 		orr	r3, r3, r2, lsl #20
 256:STM32F10x_StdPeriph_Driver/src/stm32f10x_can.c **** 
ARM GAS  C:\Users\kevin\AppData\Local\Temp\ccRSUIFU.s 			page 32


 282              		.loc 1 256 41 view .LVU99
 283 0098 0A88     		ldrh	r2, [r1]
 256:STM32F10x_StdPeriph_Driver/src/stm32f10x_can.c **** 
 284              		.loc 1 256 57 view .LVU100
 285 009a 013A     		subs	r2, r2, #1
 255:STM32F10x_StdPeriph_Driver/src/stm32f10x_can.c ****                ((uint32_t)CAN_InitStruct->CAN_Prescaler - 1);
 286              		.loc 1 255 59 view .LVU101
 287 009c 1343     		orrs	r3, r3, r2
 252:STM32F10x_StdPeriph_Driver/src/stm32f10x_can.c ****                 ((uint32_t)CAN_InitStruct->CAN_SJW << 24) | \
 288              		.loc 1 252 15 view .LVU102
 289 009e C361     		str	r3, [r0, #28]
 259:STM32F10x_StdPeriph_Driver/src/stm32f10x_can.c **** 
 290              		.loc 1 259 5 is_stmt 1 view .LVU103
 259:STM32F10x_StdPeriph_Driver/src/stm32f10x_can.c **** 
 291              		.loc 1 259 9 is_stmt 0 view .LVU104
 292 00a0 0368     		ldr	r3, [r0]
 259:STM32F10x_StdPeriph_Driver/src/stm32f10x_can.c **** 
 293              		.loc 1 259 15 view .LVU105
 294 00a2 23F00103 		bic	r3, r3, #1
 295 00a6 0360     		str	r3, [r0]
 262:STM32F10x_StdPeriph_Driver/src/stm32f10x_can.c **** 
 296              		.loc 1 262 4 is_stmt 1 view .LVU106
 297              	.LVL17:
 264:STM32F10x_StdPeriph_Driver/src/stm32f10x_can.c ****    {
 298              		.loc 1 264 4 view .LVU107
 262:STM32F10x_StdPeriph_Driver/src/stm32f10x_can.c **** 
 299              		.loc 1 262 13 is_stmt 0 view .LVU108
 300 00a8 0023     		movs	r3, #0
 264:STM32F10x_StdPeriph_Driver/src/stm32f10x_can.c ****    {
 301              		.loc 1 264 10 view .LVU109
 302 00aa 1EE0     		b	.L28
 303              	.LVL18:
 304              	.L33:
 194:STM32F10x_StdPeriph_Driver/src/stm32f10x_can.c ****     }
 305              		.loc 1 194 7 is_stmt 1 view .LVU110
 194:STM32F10x_StdPeriph_Driver/src/stm32f10x_can.c ****     }
 306              		.loc 1 194 11 is_stmt 0 view .LVU111
 307 00ac 0368     		ldr	r3, [r0]
 194:STM32F10x_StdPeriph_Driver/src/stm32f10x_can.c ****     }
 308              		.loc 1 194 17 view .LVU112
 309 00ae 43F08003 		orr	r3, r3, #128
 310 00b2 0360     		str	r3, [r0]
 311 00b4 C2E7     		b	.L17
 312              	.L34:
 204:STM32F10x_StdPeriph_Driver/src/stm32f10x_can.c ****     }
 313              		.loc 1 204 7 is_stmt 1 view .LVU113
 204:STM32F10x_StdPeriph_Driver/src/stm32f10x_can.c ****     }
 314              		.loc 1 204 11 is_stmt 0 view .LVU114
 315 00b6 0368     		ldr	r3, [r0]
 204:STM32F10x_StdPeriph_Driver/src/stm32f10x_can.c ****     }
 316              		.loc 1 204 17 view .LVU115
 317 00b8 43F04003 		orr	r3, r3, #64
 318 00bc 0360     		str	r3, [r0]
 319 00be C4E7     		b	.L19
 320              	.L35:
 214:STM32F10x_StdPeriph_Driver/src/stm32f10x_can.c ****     }
 321              		.loc 1 214 7 is_stmt 1 view .LVU116
ARM GAS  C:\Users\kevin\AppData\Local\Temp\ccRSUIFU.s 			page 33


 214:STM32F10x_StdPeriph_Driver/src/stm32f10x_can.c ****     }
 322              		.loc 1 214 11 is_stmt 0 view .LVU117
 323 00c0 0368     		ldr	r3, [r0]
 214:STM32F10x_StdPeriph_Driver/src/stm32f10x_can.c ****     }
 324              		.loc 1 214 17 view .LVU118
 325 00c2 43F02003 		orr	r3, r3, #32
 326 00c6 0360     		str	r3, [r0]
 327 00c8 C6E7     		b	.L21
 328              	.L36:
 224:STM32F10x_StdPeriph_Driver/src/stm32f10x_can.c ****     }
 329              		.loc 1 224 7 is_stmt 1 view .LVU119
 224:STM32F10x_StdPeriph_Driver/src/stm32f10x_can.c ****     }
 330              		.loc 1 224 11 is_stmt 0 view .LVU120
 331 00ca 0368     		ldr	r3, [r0]
 224:STM32F10x_StdPeriph_Driver/src/stm32f10x_can.c ****     }
 332              		.loc 1 224 17 view .LVU121
 333 00cc 43F01003 		orr	r3, r3, #16
 334 00d0 0360     		str	r3, [r0]
 335 00d2 C8E7     		b	.L23
 336              	.L37:
 234:STM32F10x_StdPeriph_Driver/src/stm32f10x_can.c ****     }
 337              		.loc 1 234 7 is_stmt 1 view .LVU122
 234:STM32F10x_StdPeriph_Driver/src/stm32f10x_can.c ****     }
 338              		.loc 1 234 11 is_stmt 0 view .LVU123
 339 00d4 0368     		ldr	r3, [r0]
 234:STM32F10x_StdPeriph_Driver/src/stm32f10x_can.c ****     }
 340              		.loc 1 234 17 view .LVU124
 341 00d6 43F00803 		orr	r3, r3, #8
 342 00da 0360     		str	r3, [r0]
 343 00dc CAE7     		b	.L25
 344              	.L38:
 244:STM32F10x_StdPeriph_Driver/src/stm32f10x_can.c ****     }
 345              		.loc 1 244 7 is_stmt 1 view .LVU125
 244:STM32F10x_StdPeriph_Driver/src/stm32f10x_can.c ****     }
 346              		.loc 1 244 11 is_stmt 0 view .LVU126
 347 00de 0368     		ldr	r3, [r0]
 244:STM32F10x_StdPeriph_Driver/src/stm32f10x_can.c ****     }
 348              		.loc 1 244 17 view .LVU127
 349 00e0 43F00403 		orr	r3, r3, #4
 350 00e4 0360     		str	r3, [r0]
 351 00e6 CCE7     		b	.L27
 352              	.LVL19:
 353              	.L30:
 266:STM32F10x_StdPeriph_Driver/src/stm32f10x_can.c ****    }
 354              		.loc 1 266 6 is_stmt 1 view .LVU128
 266:STM32F10x_StdPeriph_Driver/src/stm32f10x_can.c ****    }
 355              		.loc 1 266 14 is_stmt 0 view .LVU129
 356 00e8 0133     		adds	r3, r3, #1
 357              	.LVL20:
 358              	.L28:
 264:STM32F10x_StdPeriph_Driver/src/stm32f10x_can.c ****    {
 359              		.loc 1 264 56 is_stmt 1 view .LVU130
 264:STM32F10x_StdPeriph_Driver/src/stm32f10x_can.c ****    {
 360              		.loc 1 264 17 is_stmt 0 view .LVU131
 361 00ea 4268     		ldr	r2, [r0, #4]
 264:STM32F10x_StdPeriph_Driver/src/stm32f10x_can.c ****    {
 362              		.loc 1 264 56 view .LVU132
ARM GAS  C:\Users\kevin\AppData\Local\Temp\ccRSUIFU.s 			page 34


 363 00ec 12F0010F 		tst	r2, #1
 364 00f0 03D0     		beq	.L29
 264:STM32F10x_StdPeriph_Driver/src/stm32f10x_can.c ****    {
 365              		.loc 1 264 56 discriminator 1 view .LVU133
 366 00f2 4FF6FF72 		movw	r2, #65535
 367 00f6 9342     		cmp	r3, r2
 368 00f8 F6D1     		bne	.L30
 369              	.L29:
 270:STM32F10x_StdPeriph_Driver/src/stm32f10x_can.c ****     {
 370              		.loc 1 270 5 is_stmt 1 view .LVU134
 270:STM32F10x_StdPeriph_Driver/src/stm32f10x_can.c ****     {
 371              		.loc 1 270 14 is_stmt 0 view .LVU135
 372 00fa 4368     		ldr	r3, [r0, #4]
 373              	.LVL21:
 270:STM32F10x_StdPeriph_Driver/src/stm32f10x_can.c ****     {
 374              		.loc 1 270 8 view .LVU136
 375 00fc 13F0010F 		tst	r3, #1
 376 0100 03D0     		beq	.L32
 272:STM32F10x_StdPeriph_Driver/src/stm32f10x_can.c ****     }
 377              		.loc 1 272 18 view .LVU137
 378 0102 0020     		movs	r0, #0
 379              	.LVL22:
 272:STM32F10x_StdPeriph_Driver/src/stm32f10x_can.c ****     }
 380              		.loc 1 272 18 view .LVU138
 381 0104 7047     		bx	lr
 382              	.LVL23:
 383              	.L31:
 187:STM32F10x_StdPeriph_Driver/src/stm32f10x_can.c ****   }
 384              		.loc 1 187 16 view .LVU139
 385 0106 0020     		movs	r0, #0
 386              	.LVL24:
 187:STM32F10x_StdPeriph_Driver/src/stm32f10x_can.c ****   }
 387              		.loc 1 187 16 view .LVU140
 388 0108 7047     		bx	lr
 389              	.LVL25:
 390              	.L32:
 276:STM32F10x_StdPeriph_Driver/src/stm32f10x_can.c ****     }
 391              		.loc 1 276 18 view .LVU141
 392 010a 0120     		movs	r0, #1
 393              	.LVL26:
 281:STM32F10x_StdPeriph_Driver/src/stm32f10x_can.c **** }
 394              		.loc 1 281 3 is_stmt 1 view .LVU142
 282:STM32F10x_StdPeriph_Driver/src/stm32f10x_can.c **** 
 395              		.loc 1 282 1 is_stmt 0 view .LVU143
 396 010c 7047     		bx	lr
 397              		.cfi_endproc
 398              	.LFE30:
 400              		.section	.text.CAN_FilterInit,"ax",%progbits
 401              		.align	1
 402              		.global	CAN_FilterInit
 403              		.syntax unified
 404              		.thumb
 405              		.thumb_func
 407              	CAN_FilterInit:
 408              	.LVL27:
 409              	.LFB31:
 293:STM32F10x_StdPeriph_Driver/src/stm32f10x_can.c ****   uint32_t filter_number_bit_pos = 0;
ARM GAS  C:\Users\kevin\AppData\Local\Temp\ccRSUIFU.s 			page 35


 410              		.loc 1 293 1 is_stmt 1 view -0
 411              		.cfi_startproc
 412              		@ args = 0, pretend = 0, frame = 0
 413              		@ frame_needed = 0, uses_anonymous_args = 0
 293:STM32F10x_StdPeriph_Driver/src/stm32f10x_can.c ****   uint32_t filter_number_bit_pos = 0;
 414              		.loc 1 293 1 is_stmt 0 view .LVU145
 415 0000 10B5     		push	{r4, lr}
 416              	.LCFI1:
 417              		.cfi_def_cfa_offset 8
 418              		.cfi_offset 4, -8
 419              		.cfi_offset 14, -4
 294:STM32F10x_StdPeriph_Driver/src/stm32f10x_can.c ****   /* Check the parameters */
 420              		.loc 1 294 3 is_stmt 1 view .LVU146
 421              	.LVL28:
 296:STM32F10x_StdPeriph_Driver/src/stm32f10x_can.c ****   assert_param(IS_CAN_FILTER_MODE(CAN_FilterInitStruct->CAN_FilterMode));
 422              		.loc 1 296 3 view .LVU147
 297:STM32F10x_StdPeriph_Driver/src/stm32f10x_can.c ****   assert_param(IS_CAN_FILTER_SCALE(CAN_FilterInitStruct->CAN_FilterScale));
 423              		.loc 1 297 3 view .LVU148
 298:STM32F10x_StdPeriph_Driver/src/stm32f10x_can.c ****   assert_param(IS_CAN_FILTER_FIFO(CAN_FilterInitStruct->CAN_FilterFIFOAssignment));
 424              		.loc 1 298 3 view .LVU149
 299:STM32F10x_StdPeriph_Driver/src/stm32f10x_can.c ****   assert_param(IS_FUNCTIONAL_STATE(CAN_FilterInitStruct->CAN_FilterActivation));
 425              		.loc 1 299 3 view .LVU150
 300:STM32F10x_StdPeriph_Driver/src/stm32f10x_can.c **** 
 426              		.loc 1 300 3 view .LVU151
 302:STM32F10x_StdPeriph_Driver/src/stm32f10x_can.c **** 
 427              		.loc 1 302 3 view .LVU152
 302:STM32F10x_StdPeriph_Driver/src/stm32f10x_can.c **** 
 428              		.loc 1 302 64 is_stmt 0 view .LVU153
 429 0002 827A     		ldrb	r2, [r0, #10]	@ zero_extendqisi2
 302:STM32F10x_StdPeriph_Driver/src/stm32f10x_can.c **** 
 430              		.loc 1 302 25 view .LVU154
 431 0004 0123     		movs	r3, #1
 432 0006 9340     		lsls	r3, r3, r2
 433              	.LVL29:
 305:STM32F10x_StdPeriph_Driver/src/stm32f10x_can.c **** 
 434              		.loc 1 305 3 is_stmt 1 view .LVU155
 305:STM32F10x_StdPeriph_Driver/src/stm32f10x_can.c **** 
 435              		.loc 1 305 7 is_stmt 0 view .LVU156
 436 0008 3F4A     		ldr	r2, .L51
 437 000a D2F80012 		ldr	r1, [r2, #512]
 305:STM32F10x_StdPeriph_Driver/src/stm32f10x_can.c **** 
 438              		.loc 1 305 13 view .LVU157
 439 000e 41F00101 		orr	r1, r1, #1
 440 0012 C2F80012 		str	r1, [r2, #512]
 308:STM32F10x_StdPeriph_Driver/src/stm32f10x_can.c **** 
 441              		.loc 1 308 3 is_stmt 1 view .LVU158
 308:STM32F10x_StdPeriph_Driver/src/stm32f10x_can.c **** 
 442              		.loc 1 308 7 is_stmt 0 view .LVU159
 443 0016 D2F81C12 		ldr	r1, [r2, #540]
 308:STM32F10x_StdPeriph_Driver/src/stm32f10x_can.c **** 
 444              		.loc 1 308 17 view .LVU160
 445 001a 6FEA030C 		mvn	ip, r3
 308:STM32F10x_StdPeriph_Driver/src/stm32f10x_can.c **** 
 446              		.loc 1 308 14 view .LVU161
 447 001e 21EA0301 		bic	r1, r1, r3
 448 0022 C2F81C12 		str	r1, [r2, #540]
 311:STM32F10x_StdPeriph_Driver/src/stm32f10x_can.c ****   {
ARM GAS  C:\Users\kevin\AppData\Local\Temp\ccRSUIFU.s 			page 36


 449              		.loc 1 311 3 is_stmt 1 view .LVU162
 311:STM32F10x_StdPeriph_Driver/src/stm32f10x_can.c ****   {
 450              		.loc 1 311 27 is_stmt 0 view .LVU163
 451 0026 027B     		ldrb	r2, [r0, #12]	@ zero_extendqisi2
 311:STM32F10x_StdPeriph_Driver/src/stm32f10x_can.c ****   {
 452              		.loc 1 311 6 view .LVU164
 453 0028 D2B9     		cbnz	r2, .L40
 314:STM32F10x_StdPeriph_Driver/src/stm32f10x_can.c **** 
 454              		.loc 1 314 5 is_stmt 1 view .LVU165
 314:STM32F10x_StdPeriph_Driver/src/stm32f10x_can.c **** 
 455              		.loc 1 314 9 is_stmt 0 view .LVU166
 456 002a 374A     		ldr	r2, .L51
 457 002c D2F80C12 		ldr	r1, [r2, #524]
 314:STM32F10x_StdPeriph_Driver/src/stm32f10x_can.c **** 
 458              		.loc 1 314 16 view .LVU167
 459 0030 0CEA0101 		and	r1, ip, r1
 460 0034 C2F80C12 		str	r1, [r2, #524]
 318:STM32F10x_StdPeriph_Driver/src/stm32f10x_can.c ****     ((0x0000FFFF & (uint32_t)CAN_FilterInitStruct->CAN_FilterMaskIdLow) << 16) |
 461              		.loc 1 318 5 is_stmt 1 view .LVU168
 319:STM32F10x_StdPeriph_Driver/src/stm32f10x_can.c ****         (0x0000FFFF & (uint32_t)CAN_FilterInitStruct->CAN_FilterIdLow);
 462              		.loc 1 319 50 is_stmt 0 view .LVU169
 463 0038 B0F806E0 		ldrh	lr, [r0, #6]
 320:STM32F10x_StdPeriph_Driver/src/stm32f10x_can.c **** 
 464              		.loc 1 320 53 view .LVU170
 465 003c 4488     		ldrh	r4, [r0, #2]
 318:STM32F10x_StdPeriph_Driver/src/stm32f10x_can.c ****     ((0x0000FFFF & (uint32_t)CAN_FilterInitStruct->CAN_FilterMaskIdLow) << 16) |
 466              		.loc 1 318 47 view .LVU171
 467 003e 817A     		ldrb	r1, [r0, #10]	@ zero_extendqisi2
 319:STM32F10x_StdPeriph_Driver/src/stm32f10x_can.c ****         (0x0000FFFF & (uint32_t)CAN_FilterInitStruct->CAN_FilterIdLow);
 468              		.loc 1 319 80 view .LVU172
 469 0040 44EA0E44 		orr	r4, r4, lr, lsl #16
 318:STM32F10x_StdPeriph_Driver/src/stm32f10x_can.c ****     ((0x0000FFFF & (uint32_t)CAN_FilterInitStruct->CAN_FilterMaskIdLow) << 16) |
 470              		.loc 1 318 71 view .LVU173
 471 0044 4831     		adds	r1, r1, #72
 472 0046 42F83140 		str	r4, [r2, r1, lsl #3]
 324:STM32F10x_StdPeriph_Driver/src/stm32f10x_can.c ****     ((0x0000FFFF & (uint32_t)CAN_FilterInitStruct->CAN_FilterMaskIdHigh) << 16) |
 473              		.loc 1 324 5 is_stmt 1 view .LVU174
 325:STM32F10x_StdPeriph_Driver/src/stm32f10x_can.c ****         (0x0000FFFF & (uint32_t)CAN_FilterInitStruct->CAN_FilterIdHigh);
 474              		.loc 1 325 50 is_stmt 0 view .LVU175
 475 004a 8488     		ldrh	r4, [r0, #4]
 326:STM32F10x_StdPeriph_Driver/src/stm32f10x_can.c ****   }
 476              		.loc 1 326 53 view .LVU176
 477 004c 0188     		ldrh	r1, [r0]
 324:STM32F10x_StdPeriph_Driver/src/stm32f10x_can.c ****     ((0x0000FFFF & (uint32_t)CAN_FilterInitStruct->CAN_FilterMaskIdHigh) << 16) |
 478              		.loc 1 324 47 view .LVU177
 479 004e 90F80AE0 		ldrb	lr, [r0, #10]	@ zero_extendqisi2
 325:STM32F10x_StdPeriph_Driver/src/stm32f10x_can.c ****         (0x0000FFFF & (uint32_t)CAN_FilterInitStruct->CAN_FilterIdHigh);
 480              		.loc 1 325 81 view .LVU178
 481 0052 41EA0441 		orr	r1, r1, r4, lsl #16
 324:STM32F10x_StdPeriph_Driver/src/stm32f10x_can.c ****     ((0x0000FFFF & (uint32_t)CAN_FilterInitStruct->CAN_FilterMaskIdHigh) << 16) |
 482              		.loc 1 324 71 view .LVU179
 483 0056 0EF1480E 		add	lr, lr, #72
 484 005a 02EBCE02 		add	r2, r2, lr, lsl #3
 485 005e 5160     		str	r1, [r2, #4]
 486              	.L40:
 329:STM32F10x_StdPeriph_Driver/src/stm32f10x_can.c ****   {
 487              		.loc 1 329 3 is_stmt 1 view .LVU180
ARM GAS  C:\Users\kevin\AppData\Local\Temp\ccRSUIFU.s 			page 37


 329:STM32F10x_StdPeriph_Driver/src/stm32f10x_can.c ****   {
 488              		.loc 1 329 27 is_stmt 0 view .LVU181
 489 0060 027B     		ldrb	r2, [r0, #12]	@ zero_extendqisi2
 329:STM32F10x_StdPeriph_Driver/src/stm32f10x_can.c ****   {
 490              		.loc 1 329 6 view .LVU182
 491 0062 012A     		cmp	r2, #1
 492 0064 20D0     		beq	.L48
 493              	.L41:
 344:STM32F10x_StdPeriph_Driver/src/stm32f10x_can.c ****   {
 494              		.loc 1 344 3 is_stmt 1 view .LVU183
 344:STM32F10x_StdPeriph_Driver/src/stm32f10x_can.c ****   {
 495              		.loc 1 344 27 is_stmt 0 view .LVU184
 496 0066 C27A     		ldrb	r2, [r0, #11]	@ zero_extendqisi2
 344:STM32F10x_StdPeriph_Driver/src/stm32f10x_can.c ****   {
 497              		.loc 1 344 6 view .LVU185
 498 0068 002A     		cmp	r2, #0
 499 006a 37D1     		bne	.L42
 347:STM32F10x_StdPeriph_Driver/src/stm32f10x_can.c ****   }
 500              		.loc 1 347 5 is_stmt 1 view .LVU186
 347:STM32F10x_StdPeriph_Driver/src/stm32f10x_can.c ****   }
 501              		.loc 1 347 9 is_stmt 0 view .LVU187
 502 006c 2649     		ldr	r1, .L51
 503 006e D1F80422 		ldr	r2, [r1, #516]
 347:STM32F10x_StdPeriph_Driver/src/stm32f10x_can.c ****   }
 504              		.loc 1 347 16 view .LVU188
 505 0072 0CEA0202 		and	r2, ip, r2
 506 0076 C1F80422 		str	r2, [r1, #516]
 507              	.L43:
 356:STM32F10x_StdPeriph_Driver/src/stm32f10x_can.c ****   {
 508              		.loc 1 356 3 is_stmt 1 view .LVU189
 356:STM32F10x_StdPeriph_Driver/src/stm32f10x_can.c ****   {
 509              		.loc 1 356 27 is_stmt 0 view .LVU190
 510 007a 0289     		ldrh	r2, [r0, #8]
 356:STM32F10x_StdPeriph_Driver/src/stm32f10x_can.c ****   {
 511              		.loc 1 356 6 view .LVU191
 512 007c 32B9     		cbnz	r2, .L44
 359:STM32F10x_StdPeriph_Driver/src/stm32f10x_can.c ****   }
 513              		.loc 1 359 5 is_stmt 1 view .LVU192
 359:STM32F10x_StdPeriph_Driver/src/stm32f10x_can.c ****   }
 514              		.loc 1 359 9 is_stmt 0 view .LVU193
 515 007e 2249     		ldr	r1, .L51
 516 0080 D1F81422 		ldr	r2, [r1, #532]
 359:STM32F10x_StdPeriph_Driver/src/stm32f10x_can.c ****   }
 517              		.loc 1 359 17 view .LVU194
 518 0084 0CEA0202 		and	r2, ip, r2
 519 0088 C1F81422 		str	r2, [r1, #532]
 520              	.L44:
 362:STM32F10x_StdPeriph_Driver/src/stm32f10x_can.c ****   {
 521              		.loc 1 362 3 is_stmt 1 view .LVU195
 362:STM32F10x_StdPeriph_Driver/src/stm32f10x_can.c ****   {
 522              		.loc 1 362 27 is_stmt 0 view .LVU196
 523 008c 0289     		ldrh	r2, [r0, #8]
 362:STM32F10x_StdPeriph_Driver/src/stm32f10x_can.c ****   {
 524              		.loc 1 362 6 view .LVU197
 525 008e 012A     		cmp	r2, #1
 526 0090 2BD0     		beq	.L49
 527              	.L45:
ARM GAS  C:\Users\kevin\AppData\Local\Temp\ccRSUIFU.s 			page 38


 369:STM32F10x_StdPeriph_Driver/src/stm32f10x_can.c ****   {
 528              		.loc 1 369 3 is_stmt 1 view .LVU198
 369:STM32F10x_StdPeriph_Driver/src/stm32f10x_can.c ****   {
 529              		.loc 1 369 27 is_stmt 0 view .LVU199
 530 0092 427B     		ldrb	r2, [r0, #13]	@ zero_extendqisi2
 369:STM32F10x_StdPeriph_Driver/src/stm32f10x_can.c ****   {
 531              		.loc 1 369 6 view .LVU200
 532 0094 012A     		cmp	r2, #1
 533 0096 2FD0     		beq	.L50
 534              	.LVL30:
 535              	.L46:
 375:STM32F10x_StdPeriph_Driver/src/stm32f10x_can.c **** }
 536              		.loc 1 375 3 is_stmt 1 view .LVU201
 375:STM32F10x_StdPeriph_Driver/src/stm32f10x_can.c **** }
 537              		.loc 1 375 7 is_stmt 0 view .LVU202
 538 0098 1B4A     		ldr	r2, .L51
 539 009a D2F80032 		ldr	r3, [r2, #512]
 375:STM32F10x_StdPeriph_Driver/src/stm32f10x_can.c **** }
 540              		.loc 1 375 13 view .LVU203
 541 009e 23F00103 		bic	r3, r3, #1
 542 00a2 C2F80032 		str	r3, [r2, #512]
 376:STM32F10x_StdPeriph_Driver/src/stm32f10x_can.c **** 
 543              		.loc 1 376 1 view .LVU204
 544 00a6 10BD     		pop	{r4, pc}
 545              	.LVL31:
 546              	.L48:
 332:STM32F10x_StdPeriph_Driver/src/stm32f10x_can.c ****     /* 32-bit identifier or First 32-bit identifier */
 547              		.loc 1 332 5 is_stmt 1 view .LVU205
 332:STM32F10x_StdPeriph_Driver/src/stm32f10x_can.c ****     /* 32-bit identifier or First 32-bit identifier */
 548              		.loc 1 332 9 is_stmt 0 view .LVU206
 549 00a8 174A     		ldr	r2, .L51
 550 00aa D2F80C12 		ldr	r1, [r2, #524]
 332:STM32F10x_StdPeriph_Driver/src/stm32f10x_can.c ****     /* 32-bit identifier or First 32-bit identifier */
 551              		.loc 1 332 16 view .LVU207
 552 00ae 1943     		orrs	r1, r1, r3
 553 00b0 C2F80C12 		str	r1, [r2, #524]
 334:STM32F10x_StdPeriph_Driver/src/stm32f10x_can.c ****     ((0x0000FFFF & (uint32_t)CAN_FilterInitStruct->CAN_FilterIdHigh) << 16) |
 554              		.loc 1 334 5 is_stmt 1 view .LVU208
 335:STM32F10x_StdPeriph_Driver/src/stm32f10x_can.c ****         (0x0000FFFF & (uint32_t)CAN_FilterInitStruct->CAN_FilterIdLow);
 555              		.loc 1 335 50 is_stmt 0 view .LVU209
 556 00b4 B0F800E0 		ldrh	lr, [r0]
 336:STM32F10x_StdPeriph_Driver/src/stm32f10x_can.c ****     /* 32-bit mask or Second 32-bit identifier */
 557              		.loc 1 336 53 view .LVU210
 558 00b8 4488     		ldrh	r4, [r0, #2]
 334:STM32F10x_StdPeriph_Driver/src/stm32f10x_can.c ****     ((0x0000FFFF & (uint32_t)CAN_FilterInitStruct->CAN_FilterIdHigh) << 16) |
 559              		.loc 1 334 47 view .LVU211
 560 00ba 817A     		ldrb	r1, [r0, #10]	@ zero_extendqisi2
 335:STM32F10x_StdPeriph_Driver/src/stm32f10x_can.c ****         (0x0000FFFF & (uint32_t)CAN_FilterInitStruct->CAN_FilterIdLow);
 561              		.loc 1 335 77 view .LVU212
 562 00bc 44EA0E44 		orr	r4, r4, lr, lsl #16
 334:STM32F10x_StdPeriph_Driver/src/stm32f10x_can.c ****     ((0x0000FFFF & (uint32_t)CAN_FilterInitStruct->CAN_FilterIdHigh) << 16) |
 563              		.loc 1 334 71 view .LVU213
 564 00c0 4831     		adds	r1, r1, #72
 565 00c2 42F83140 		str	r4, [r2, r1, lsl #3]
 338:STM32F10x_StdPeriph_Driver/src/stm32f10x_can.c ****     ((0x0000FFFF & (uint32_t)CAN_FilterInitStruct->CAN_FilterMaskIdHigh) << 16) |
 566              		.loc 1 338 5 is_stmt 1 view .LVU214
 339:STM32F10x_StdPeriph_Driver/src/stm32f10x_can.c ****         (0x0000FFFF & (uint32_t)CAN_FilterInitStruct->CAN_FilterMaskIdLow);
ARM GAS  C:\Users\kevin\AppData\Local\Temp\ccRSUIFU.s 			page 39


 567              		.loc 1 339 50 is_stmt 0 view .LVU215
 568 00c6 B0F804E0 		ldrh	lr, [r0, #4]
 340:STM32F10x_StdPeriph_Driver/src/stm32f10x_can.c ****   }
 569              		.loc 1 340 53 view .LVU216
 570 00ca C188     		ldrh	r1, [r0, #6]
 338:STM32F10x_StdPeriph_Driver/src/stm32f10x_can.c ****     ((0x0000FFFF & (uint32_t)CAN_FilterInitStruct->CAN_FilterMaskIdHigh) << 16) |
 571              		.loc 1 338 47 view .LVU217
 572 00cc 847A     		ldrb	r4, [r0, #10]	@ zero_extendqisi2
 339:STM32F10x_StdPeriph_Driver/src/stm32f10x_can.c ****         (0x0000FFFF & (uint32_t)CAN_FilterInitStruct->CAN_FilterMaskIdLow);
 573              		.loc 1 339 81 view .LVU218
 574 00ce 41EA0E41 		orr	r1, r1, lr, lsl #16
 338:STM32F10x_StdPeriph_Driver/src/stm32f10x_can.c ****     ((0x0000FFFF & (uint32_t)CAN_FilterInitStruct->CAN_FilterMaskIdHigh) << 16) |
 575              		.loc 1 338 71 view .LVU219
 576 00d2 4834     		adds	r4, r4, #72
 577 00d4 02EBC402 		add	r2, r2, r4, lsl #3
 578 00d8 5160     		str	r1, [r2, #4]
 579 00da C4E7     		b	.L41
 580              	.L42:
 352:STM32F10x_StdPeriph_Driver/src/stm32f10x_can.c ****   }
 581              		.loc 1 352 5 is_stmt 1 view .LVU220
 352:STM32F10x_StdPeriph_Driver/src/stm32f10x_can.c ****   }
 582              		.loc 1 352 9 is_stmt 0 view .LVU221
 583 00dc 0A49     		ldr	r1, .L51
 584 00de D1F80422 		ldr	r2, [r1, #516]
 352:STM32F10x_StdPeriph_Driver/src/stm32f10x_can.c ****   }
 585              		.loc 1 352 16 view .LVU222
 586 00e2 1A43     		orrs	r2, r2, r3
 587 00e4 C1F80422 		str	r2, [r1, #516]
 588 00e8 C7E7     		b	.L43
 589              	.L49:
 365:STM32F10x_StdPeriph_Driver/src/stm32f10x_can.c ****   }
 590              		.loc 1 365 5 is_stmt 1 view .LVU223
 365:STM32F10x_StdPeriph_Driver/src/stm32f10x_can.c ****   }
 591              		.loc 1 365 9 is_stmt 0 view .LVU224
 592 00ea 0749     		ldr	r1, .L51
 593 00ec D1F81422 		ldr	r2, [r1, #532]
 365:STM32F10x_StdPeriph_Driver/src/stm32f10x_can.c ****   }
 594              		.loc 1 365 17 view .LVU225
 595 00f0 1A43     		orrs	r2, r2, r3
 596 00f2 C1F81422 		str	r2, [r1, #532]
 597 00f6 CCE7     		b	.L45
 598              	.L50:
 371:STM32F10x_StdPeriph_Driver/src/stm32f10x_can.c ****   }
 599              		.loc 1 371 5 is_stmt 1 view .LVU226
 371:STM32F10x_StdPeriph_Driver/src/stm32f10x_can.c ****   }
 600              		.loc 1 371 9 is_stmt 0 view .LVU227
 601 00f8 0349     		ldr	r1, .L51
 602 00fa D1F81C22 		ldr	r2, [r1, #540]
 371:STM32F10x_StdPeriph_Driver/src/stm32f10x_can.c ****   }
 603              		.loc 1 371 16 view .LVU228
 604 00fe 1343     		orrs	r3, r3, r2
 605              	.LVL32:
 371:STM32F10x_StdPeriph_Driver/src/stm32f10x_can.c ****   }
 606              		.loc 1 371 16 view .LVU229
 607 0100 C1F81C32 		str	r3, [r1, #540]
 608 0104 C8E7     		b	.L46
 609              	.L52:
ARM GAS  C:\Users\kevin\AppData\Local\Temp\ccRSUIFU.s 			page 40


 610 0106 00BF     		.align	2
 611              	.L51:
 612 0108 00640040 		.word	1073767424
 613              		.cfi_endproc
 614              	.LFE31:
 616              		.section	.text.CAN_StructInit,"ax",%progbits
 617              		.align	1
 618              		.global	CAN_StructInit
 619              		.syntax unified
 620              		.thumb
 621              		.thumb_func
 623              	CAN_StructInit:
 624              	.LVL33:
 625              	.LFB32:
 385:STM32F10x_StdPeriph_Driver/src/stm32f10x_can.c ****   /* Reset CAN init structure parameters values */
 626              		.loc 1 385 1 is_stmt 1 view -0
 627              		.cfi_startproc
 628              		@ args = 0, pretend = 0, frame = 0
 629              		@ frame_needed = 0, uses_anonymous_args = 0
 630              		@ link register save eliminated.
 389:STM32F10x_StdPeriph_Driver/src/stm32f10x_can.c ****   
 631              		.loc 1 389 3 view .LVU231
 389:STM32F10x_StdPeriph_Driver/src/stm32f10x_can.c ****   
 632              		.loc 1 389 28 is_stmt 0 view .LVU232
 633 0000 0023     		movs	r3, #0
 634 0002 8371     		strb	r3, [r0, #6]
 392:STM32F10x_StdPeriph_Driver/src/stm32f10x_can.c ****   
 635              		.loc 1 392 3 is_stmt 1 view .LVU233
 392:STM32F10x_StdPeriph_Driver/src/stm32f10x_can.c ****   
 636              		.loc 1 392 28 is_stmt 0 view .LVU234
 637 0004 C371     		strb	r3, [r0, #7]
 395:STM32F10x_StdPeriph_Driver/src/stm32f10x_can.c ****   
 638              		.loc 1 395 3 is_stmt 1 view .LVU235
 395:STM32F10x_StdPeriph_Driver/src/stm32f10x_can.c ****   
 639              		.loc 1 395 28 is_stmt 0 view .LVU236
 640 0006 0372     		strb	r3, [r0, #8]
 398:STM32F10x_StdPeriph_Driver/src/stm32f10x_can.c ****   
 641              		.loc 1 398 3 is_stmt 1 view .LVU237
 398:STM32F10x_StdPeriph_Driver/src/stm32f10x_can.c ****   
 642              		.loc 1 398 28 is_stmt 0 view .LVU238
 643 0008 4372     		strb	r3, [r0, #9]
 401:STM32F10x_StdPeriph_Driver/src/stm32f10x_can.c ****   
 644              		.loc 1 401 3 is_stmt 1 view .LVU239
 401:STM32F10x_StdPeriph_Driver/src/stm32f10x_can.c ****   
 645              		.loc 1 401 28 is_stmt 0 view .LVU240
 646 000a 8372     		strb	r3, [r0, #10]
 404:STM32F10x_StdPeriph_Driver/src/stm32f10x_can.c ****   
 647              		.loc 1 404 3 is_stmt 1 view .LVU241
 404:STM32F10x_StdPeriph_Driver/src/stm32f10x_can.c ****   
 648              		.loc 1 404 28 is_stmt 0 view .LVU242
 649 000c C372     		strb	r3, [r0, #11]
 407:STM32F10x_StdPeriph_Driver/src/stm32f10x_can.c ****   
 650              		.loc 1 407 3 is_stmt 1 view .LVU243
 407:STM32F10x_StdPeriph_Driver/src/stm32f10x_can.c ****   
 651              		.loc 1 407 28 is_stmt 0 view .LVU244
 652 000e 8370     		strb	r3, [r0, #2]
 410:STM32F10x_StdPeriph_Driver/src/stm32f10x_can.c ****   
ARM GAS  C:\Users\kevin\AppData\Local\Temp\ccRSUIFU.s 			page 41


 653              		.loc 1 410 3 is_stmt 1 view .LVU245
 410:STM32F10x_StdPeriph_Driver/src/stm32f10x_can.c ****   
 654              		.loc 1 410 27 is_stmt 0 view .LVU246
 655 0010 C370     		strb	r3, [r0, #3]
 413:STM32F10x_StdPeriph_Driver/src/stm32f10x_can.c ****   
 656              		.loc 1 413 3 is_stmt 1 view .LVU247
 413:STM32F10x_StdPeriph_Driver/src/stm32f10x_can.c ****   
 657              		.loc 1 413 27 is_stmt 0 view .LVU248
 658 0012 0323     		movs	r3, #3
 659 0014 0371     		strb	r3, [r0, #4]
 416:STM32F10x_StdPeriph_Driver/src/stm32f10x_can.c ****   
 660              		.loc 1 416 3 is_stmt 1 view .LVU249
 416:STM32F10x_StdPeriph_Driver/src/stm32f10x_can.c ****   
 661              		.loc 1 416 27 is_stmt 0 view .LVU250
 662 0016 0223     		movs	r3, #2
 663 0018 4371     		strb	r3, [r0, #5]
 419:STM32F10x_StdPeriph_Driver/src/stm32f10x_can.c **** }
 664              		.loc 1 419 3 is_stmt 1 view .LVU251
 419:STM32F10x_StdPeriph_Driver/src/stm32f10x_can.c **** }
 665              		.loc 1 419 33 is_stmt 0 view .LVU252
 666 001a 0123     		movs	r3, #1
 667 001c 0380     		strh	r3, [r0]	@ movhi
 420:STM32F10x_StdPeriph_Driver/src/stm32f10x_can.c **** 
 668              		.loc 1 420 1 view .LVU253
 669 001e 7047     		bx	lr
 670              		.cfi_endproc
 671              	.LFE32:
 673              		.section	.text.CAN_SlaveStartBank,"ax",%progbits
 674              		.align	1
 675              		.global	CAN_SlaveStartBank
 676              		.syntax unified
 677              		.thumb
 678              		.thumb_func
 680              	CAN_SlaveStartBank:
 681              	.LVL34:
 682              	.LFB33:
 429:STM32F10x_StdPeriph_Driver/src/stm32f10x_can.c ****   /* Check the parameters */
 683              		.loc 1 429 1 is_stmt 1 view -0
 684              		.cfi_startproc
 685              		@ args = 0, pretend = 0, frame = 0
 686              		@ frame_needed = 0, uses_anonymous_args = 0
 687              		@ link register save eliminated.
 431:STM32F10x_StdPeriph_Driver/src/stm32f10x_can.c ****   
 688              		.loc 1 431 3 view .LVU255
 434:STM32F10x_StdPeriph_Driver/src/stm32f10x_can.c ****   
 689              		.loc 1 434 3 view .LVU256
 434:STM32F10x_StdPeriph_Driver/src/stm32f10x_can.c ****   
 690              		.loc 1 434 7 is_stmt 0 view .LVU257
 691 0000 0D4B     		ldr	r3, .L55
 692 0002 D3F80022 		ldr	r2, [r3, #512]
 434:STM32F10x_StdPeriph_Driver/src/stm32f10x_can.c ****   
 693              		.loc 1 434 13 view .LVU258
 694 0006 42F00102 		orr	r2, r2, #1
 695 000a C3F80022 		str	r2, [r3, #512]
 437:STM32F10x_StdPeriph_Driver/src/stm32f10x_can.c ****   CAN1->FMR |= (uint32_t)(CAN_BankNumber)<<8;
 696              		.loc 1 437 3 is_stmt 1 view .LVU259
 437:STM32F10x_StdPeriph_Driver/src/stm32f10x_can.c ****   CAN1->FMR |= (uint32_t)(CAN_BankNumber)<<8;
ARM GAS  C:\Users\kevin\AppData\Local\Temp\ccRSUIFU.s 			page 42


 697              		.loc 1 437 7 is_stmt 0 view .LVU260
 698 000e D3F80022 		ldr	r2, [r3, #512]
 437:STM32F10x_StdPeriph_Driver/src/stm32f10x_can.c ****   CAN1->FMR |= (uint32_t)(CAN_BankNumber)<<8;
 699              		.loc 1 437 13 view .LVU261
 700 0012 22F47C52 		bic	r2, r2, #16128
 701 0016 22F00E02 		bic	r2, r2, #14
 702 001a C3F80022 		str	r2, [r3, #512]
 438:STM32F10x_StdPeriph_Driver/src/stm32f10x_can.c ****   
 703              		.loc 1 438 3 is_stmt 1 view .LVU262
 438:STM32F10x_StdPeriph_Driver/src/stm32f10x_can.c ****   
 704              		.loc 1 438 7 is_stmt 0 view .LVU263
 705 001e D3F80022 		ldr	r2, [r3, #512]
 438:STM32F10x_StdPeriph_Driver/src/stm32f10x_can.c ****   
 706              		.loc 1 438 13 view .LVU264
 707 0022 42EA0022 		orr	r2, r2, r0, lsl #8
 708 0026 C3F80022 		str	r2, [r3, #512]
 441:STM32F10x_StdPeriph_Driver/src/stm32f10x_can.c **** }
 709              		.loc 1 441 3 is_stmt 1 view .LVU265
 441:STM32F10x_StdPeriph_Driver/src/stm32f10x_can.c **** }
 710              		.loc 1 441 7 is_stmt 0 view .LVU266
 711 002a D3F80022 		ldr	r2, [r3, #512]
 441:STM32F10x_StdPeriph_Driver/src/stm32f10x_can.c **** }
 712              		.loc 1 441 13 view .LVU267
 713 002e 22F00102 		bic	r2, r2, #1
 714 0032 C3F80022 		str	r2, [r3, #512]
 442:STM32F10x_StdPeriph_Driver/src/stm32f10x_can.c **** 
 715              		.loc 1 442 1 view .LVU268
 716 0036 7047     		bx	lr
 717              	.L56:
 718              		.align	2
 719              	.L55:
 720 0038 00640040 		.word	1073767424
 721              		.cfi_endproc
 722              	.LFE33:
 724              		.section	.text.CAN_DBGFreeze,"ax",%progbits
 725              		.align	1
 726              		.global	CAN_DBGFreeze
 727              		.syntax unified
 728              		.thumb
 729              		.thumb_func
 731              	CAN_DBGFreeze:
 732              	.LVL35:
 733              	.LFB34:
 452:STM32F10x_StdPeriph_Driver/src/stm32f10x_can.c ****   /* Check the parameters */
 734              		.loc 1 452 1 is_stmt 1 view -0
 735              		.cfi_startproc
 736              		@ args = 0, pretend = 0, frame = 0
 737              		@ frame_needed = 0, uses_anonymous_args = 0
 738              		@ link register save eliminated.
 454:STM32F10x_StdPeriph_Driver/src/stm32f10x_can.c ****   assert_param(IS_FUNCTIONAL_STATE(NewState));
 739              		.loc 1 454 3 view .LVU270
 455:STM32F10x_StdPeriph_Driver/src/stm32f10x_can.c ****   
 740              		.loc 1 455 3 view .LVU271
 457:STM32F10x_StdPeriph_Driver/src/stm32f10x_can.c ****   {
 741              		.loc 1 457 3 view .LVU272
 457:STM32F10x_StdPeriph_Driver/src/stm32f10x_can.c ****   {
 742              		.loc 1 457 6 is_stmt 0 view .LVU273
ARM GAS  C:\Users\kevin\AppData\Local\Temp\ccRSUIFU.s 			page 43


 743 0000 21B1     		cbz	r1, .L58
 460:STM32F10x_StdPeriph_Driver/src/stm32f10x_can.c ****   }
 744              		.loc 1 460 5 is_stmt 1 view .LVU274
 460:STM32F10x_StdPeriph_Driver/src/stm32f10x_can.c ****   }
 745              		.loc 1 460 9 is_stmt 0 view .LVU275
 746 0002 0368     		ldr	r3, [r0]
 460:STM32F10x_StdPeriph_Driver/src/stm32f10x_can.c ****   }
 747              		.loc 1 460 15 view .LVU276
 748 0004 43F48033 		orr	r3, r3, #65536
 749 0008 0360     		str	r3, [r0]
 750 000a 7047     		bx	lr
 751              	.L58:
 465:STM32F10x_StdPeriph_Driver/src/stm32f10x_can.c ****   }
 752              		.loc 1 465 5 is_stmt 1 view .LVU277
 465:STM32F10x_StdPeriph_Driver/src/stm32f10x_can.c ****   }
 753              		.loc 1 465 9 is_stmt 0 view .LVU278
 754 000c 0368     		ldr	r3, [r0]
 465:STM32F10x_StdPeriph_Driver/src/stm32f10x_can.c ****   }
 755              		.loc 1 465 15 view .LVU279
 756 000e 23F48033 		bic	r3, r3, #65536
 757 0012 0360     		str	r3, [r0]
 467:STM32F10x_StdPeriph_Driver/src/stm32f10x_can.c **** 
 758              		.loc 1 467 1 view .LVU280
 759 0014 7047     		bx	lr
 760              		.cfi_endproc
 761              	.LFE34:
 763              		.section	.text.CAN_TTComModeCmd,"ax",%progbits
 764              		.align	1
 765              		.global	CAN_TTComModeCmd
 766              		.syntax unified
 767              		.thumb
 768              		.thumb_func
 770              	CAN_TTComModeCmd:
 771              	.LVL36:
 772              	.LFB35:
 482:STM32F10x_StdPeriph_Driver/src/stm32f10x_can.c ****   /* Check the parameters */
 773              		.loc 1 482 1 is_stmt 1 view -0
 774              		.cfi_startproc
 775              		@ args = 0, pretend = 0, frame = 0
 776              		@ frame_needed = 0, uses_anonymous_args = 0
 777              		@ link register save eliminated.
 484:STM32F10x_StdPeriph_Driver/src/stm32f10x_can.c ****   assert_param(IS_FUNCTIONAL_STATE(NewState));
 778              		.loc 1 484 3 view .LVU282
 485:STM32F10x_StdPeriph_Driver/src/stm32f10x_can.c ****   if (NewState != DISABLE)
 779              		.loc 1 485 3 view .LVU283
 486:STM32F10x_StdPeriph_Driver/src/stm32f10x_can.c ****   {
 780              		.loc 1 486 3 view .LVU284
 486:STM32F10x_StdPeriph_Driver/src/stm32f10x_can.c ****   {
 781              		.loc 1 486 6 is_stmt 0 view .LVU285
 782 0000 B1B1     		cbz	r1, .L61
 489:STM32F10x_StdPeriph_Driver/src/stm32f10x_can.c **** 
 783              		.loc 1 489 5 is_stmt 1 view .LVU286
 489:STM32F10x_StdPeriph_Driver/src/stm32f10x_can.c **** 
 784              		.loc 1 489 9 is_stmt 0 view .LVU287
 785 0002 0368     		ldr	r3, [r0]
 489:STM32F10x_StdPeriph_Driver/src/stm32f10x_can.c **** 
 786              		.loc 1 489 15 view .LVU288
ARM GAS  C:\Users\kevin\AppData\Local\Temp\ccRSUIFU.s 			page 44


 787 0004 43F08003 		orr	r3, r3, #128
 788 0008 0360     		str	r3, [r0]
 492:STM32F10x_StdPeriph_Driver/src/stm32f10x_can.c ****     CANx->sTxMailBox[1].TDTR |= ((uint32_t)CAN_TDT1R_TGT);
 789              		.loc 1 492 5 is_stmt 1 view .LVU289
 492:STM32F10x_StdPeriph_Driver/src/stm32f10x_can.c ****     CANx->sTxMailBox[1].TDTR |= ((uint32_t)CAN_TDT1R_TGT);
 790              		.loc 1 492 24 is_stmt 0 view .LVU290
 791 000a D0F88431 		ldr	r3, [r0, #388]
 492:STM32F10x_StdPeriph_Driver/src/stm32f10x_can.c ****     CANx->sTxMailBox[1].TDTR |= ((uint32_t)CAN_TDT1R_TGT);
 792              		.loc 1 492 30 view .LVU291
 793 000e 43F48073 		orr	r3, r3, #256
 794 0012 C0F88431 		str	r3, [r0, #388]
 493:STM32F10x_StdPeriph_Driver/src/stm32f10x_can.c ****     CANx->sTxMailBox[2].TDTR |= ((uint32_t)CAN_TDT2R_TGT);
 795              		.loc 1 493 5 is_stmt 1 view .LVU292
 493:STM32F10x_StdPeriph_Driver/src/stm32f10x_can.c ****     CANx->sTxMailBox[2].TDTR |= ((uint32_t)CAN_TDT2R_TGT);
 796              		.loc 1 493 24 is_stmt 0 view .LVU293
 797 0016 D0F89431 		ldr	r3, [r0, #404]
 493:STM32F10x_StdPeriph_Driver/src/stm32f10x_can.c ****     CANx->sTxMailBox[2].TDTR |= ((uint32_t)CAN_TDT2R_TGT);
 798              		.loc 1 493 30 view .LVU294
 799 001a 43F48073 		orr	r3, r3, #256
 800 001e C0F89431 		str	r3, [r0, #404]
 494:STM32F10x_StdPeriph_Driver/src/stm32f10x_can.c ****   }
 801              		.loc 1 494 5 is_stmt 1 view .LVU295
 494:STM32F10x_StdPeriph_Driver/src/stm32f10x_can.c ****   }
 802              		.loc 1 494 24 is_stmt 0 view .LVU296
 803 0022 D0F8A431 		ldr	r3, [r0, #420]
 494:STM32F10x_StdPeriph_Driver/src/stm32f10x_can.c ****   }
 804              		.loc 1 494 30 view .LVU297
 805 0026 43F48073 		orr	r3, r3, #256
 806 002a C0F8A431 		str	r3, [r0, #420]
 807 002e 7047     		bx	lr
 808              	.L61:
 499:STM32F10x_StdPeriph_Driver/src/stm32f10x_can.c **** 
 809              		.loc 1 499 5 is_stmt 1 view .LVU298
 499:STM32F10x_StdPeriph_Driver/src/stm32f10x_can.c **** 
 810              		.loc 1 499 9 is_stmt 0 view .LVU299
 811 0030 0368     		ldr	r3, [r0]
 499:STM32F10x_StdPeriph_Driver/src/stm32f10x_can.c **** 
 812              		.loc 1 499 15 view .LVU300
 813 0032 23F08003 		bic	r3, r3, #128
 814 0036 0360     		str	r3, [r0]
 502:STM32F10x_StdPeriph_Driver/src/stm32f10x_can.c ****     CANx->sTxMailBox[1].TDTR &= ((uint32_t)~CAN_TDT1R_TGT);
 815              		.loc 1 502 5 is_stmt 1 view .LVU301
 502:STM32F10x_StdPeriph_Driver/src/stm32f10x_can.c ****     CANx->sTxMailBox[1].TDTR &= ((uint32_t)~CAN_TDT1R_TGT);
 816              		.loc 1 502 24 is_stmt 0 view .LVU302
 817 0038 D0F88431 		ldr	r3, [r0, #388]
 502:STM32F10x_StdPeriph_Driver/src/stm32f10x_can.c ****     CANx->sTxMailBox[1].TDTR &= ((uint32_t)~CAN_TDT1R_TGT);
 818              		.loc 1 502 30 view .LVU303
 819 003c 23F48073 		bic	r3, r3, #256
 820 0040 C0F88431 		str	r3, [r0, #388]
 503:STM32F10x_StdPeriph_Driver/src/stm32f10x_can.c ****     CANx->sTxMailBox[2].TDTR &= ((uint32_t)~CAN_TDT2R_TGT);
 821              		.loc 1 503 5 is_stmt 1 view .LVU304
 503:STM32F10x_StdPeriph_Driver/src/stm32f10x_can.c ****     CANx->sTxMailBox[2].TDTR &= ((uint32_t)~CAN_TDT2R_TGT);
 822              		.loc 1 503 24 is_stmt 0 view .LVU305
 823 0044 D0F89431 		ldr	r3, [r0, #404]
 503:STM32F10x_StdPeriph_Driver/src/stm32f10x_can.c ****     CANx->sTxMailBox[2].TDTR &= ((uint32_t)~CAN_TDT2R_TGT);
 824              		.loc 1 503 30 view .LVU306
 825 0048 23F48073 		bic	r3, r3, #256
ARM GAS  C:\Users\kevin\AppData\Local\Temp\ccRSUIFU.s 			page 45


 826 004c C0F89431 		str	r3, [r0, #404]
 504:STM32F10x_StdPeriph_Driver/src/stm32f10x_can.c ****   }
 827              		.loc 1 504 5 is_stmt 1 view .LVU307
 504:STM32F10x_StdPeriph_Driver/src/stm32f10x_can.c ****   }
 828              		.loc 1 504 24 is_stmt 0 view .LVU308
 829 0050 D0F8A431 		ldr	r3, [r0, #420]
 504:STM32F10x_StdPeriph_Driver/src/stm32f10x_can.c ****   }
 830              		.loc 1 504 30 view .LVU309
 831 0054 23F48073 		bic	r3, r3, #256
 832 0058 C0F8A431 		str	r3, [r0, #420]
 506:STM32F10x_StdPeriph_Driver/src/stm32f10x_can.c **** /**
 833              		.loc 1 506 1 view .LVU310
 834 005c 7047     		bx	lr
 835              		.cfi_endproc
 836              	.LFE35:
 838              		.section	.text.CAN_Transmit,"ax",%progbits
 839              		.align	1
 840              		.global	CAN_Transmit
 841              		.syntax unified
 842              		.thumb
 843              		.thumb_func
 845              	CAN_Transmit:
 846              	.LVL37:
 847              	.LFB36:
 516:STM32F10x_StdPeriph_Driver/src/stm32f10x_can.c ****   uint8_t transmit_mailbox = 0;
 848              		.loc 1 516 1 is_stmt 1 view -0
 849              		.cfi_startproc
 850              		@ args = 0, pretend = 0, frame = 0
 851              		@ frame_needed = 0, uses_anonymous_args = 0
 516:STM32F10x_StdPeriph_Driver/src/stm32f10x_can.c ****   uint8_t transmit_mailbox = 0;
 852              		.loc 1 516 1 is_stmt 0 view .LVU312
 853 0000 0346     		mov	r3, r0
 517:STM32F10x_StdPeriph_Driver/src/stm32f10x_can.c ****   /* Check the parameters */
 854              		.loc 1 517 3 is_stmt 1 view .LVU313
 855              	.LVL38:
 519:STM32F10x_StdPeriph_Driver/src/stm32f10x_can.c ****   assert_param(IS_CAN_IDTYPE(TxMessage->IDE));
 856              		.loc 1 519 3 view .LVU314
 520:STM32F10x_StdPeriph_Driver/src/stm32f10x_can.c ****   assert_param(IS_CAN_RTR(TxMessage->RTR));
 857              		.loc 1 520 3 view .LVU315
 521:STM32F10x_StdPeriph_Driver/src/stm32f10x_can.c ****   assert_param(IS_CAN_DLC(TxMessage->DLC));
 858              		.loc 1 521 3 view .LVU316
 522:STM32F10x_StdPeriph_Driver/src/stm32f10x_can.c **** 
 859              		.loc 1 522 3 view .LVU317
 525:STM32F10x_StdPeriph_Driver/src/stm32f10x_can.c ****   {
 860              		.loc 1 525 3 view .LVU318
 525:STM32F10x_StdPeriph_Driver/src/stm32f10x_can.c ****   {
 861              		.loc 1 525 12 is_stmt 0 view .LVU319
 862 0002 8268     		ldr	r2, [r0, #8]
 525:STM32F10x_StdPeriph_Driver/src/stm32f10x_can.c ****   {
 863              		.loc 1 525 6 view .LVU320
 864 0004 12F0806F 		tst	r2, #67108864
 865 0008 09D1     		bne	.L68
 529:STM32F10x_StdPeriph_Driver/src/stm32f10x_can.c ****   {
 866              		.loc 1 529 8 is_stmt 1 view .LVU321
 529:STM32F10x_StdPeriph_Driver/src/stm32f10x_can.c ****   {
 867              		.loc 1 529 17 is_stmt 0 view .LVU322
 868 000a 8268     		ldr	r2, [r0, #8]
ARM GAS  C:\Users\kevin\AppData\Local\Temp\ccRSUIFU.s 			page 46


 529:STM32F10x_StdPeriph_Driver/src/stm32f10x_can.c ****   {
 869              		.loc 1 529 11 view .LVU323
 870 000c 12F0006F 		tst	r2, #134217728
 871 0010 50D1     		bne	.L69
 533:STM32F10x_StdPeriph_Driver/src/stm32f10x_can.c ****   {
 872              		.loc 1 533 8 is_stmt 1 view .LVU324
 533:STM32F10x_StdPeriph_Driver/src/stm32f10x_can.c ****   {
 873              		.loc 1 533 17 is_stmt 0 view .LVU325
 874 0012 8268     		ldr	r2, [r0, #8]
 533:STM32F10x_StdPeriph_Driver/src/stm32f10x_can.c ****   {
 875              		.loc 1 533 11 view .LVU326
 876 0014 12F0805F 		tst	r2, #268435456
 877 0018 5DD0     		beq	.L70
 535:STM32F10x_StdPeriph_Driver/src/stm32f10x_can.c ****   }
 878              		.loc 1 535 22 view .LVU327
 879 001a 0220     		movs	r0, #2
 880              	.LVL39:
 535:STM32F10x_StdPeriph_Driver/src/stm32f10x_can.c ****   }
 881              		.loc 1 535 22 view .LVU328
 882 001c 00E0     		b	.L64
 883              	.LVL40:
 884              	.L68:
 527:STM32F10x_StdPeriph_Driver/src/stm32f10x_can.c ****   }
 885              		.loc 1 527 22 view .LVU329
 886 001e 0020     		movs	r0, #0
 887              	.LVL41:
 888              	.L64:
 516:STM32F10x_StdPeriph_Driver/src/stm32f10x_can.c ****   uint8_t transmit_mailbox = 0;
 889              		.loc 1 516 1 view .LVU330
 890 0020 30B5     		push	{r4, r5, lr}
 891              	.LCFI2:
 892              		.cfi_def_cfa_offset 12
 893              		.cfi_offset 4, -12
 894              		.cfi_offset 5, -8
 895              		.cfi_offset 14, -4
 896              	.LVL42:
 545:STM32F10x_StdPeriph_Driver/src/stm32f10x_can.c ****     if (TxMessage->IDE == CAN_Id_Standard)
 897              		.loc 1 545 5 is_stmt 1 view .LVU331
 545:STM32F10x_StdPeriph_Driver/src/stm32f10x_can.c ****     if (TxMessage->IDE == CAN_Id_Standard)
 898              		.loc 1 545 39 is_stmt 0 view .LVU332
 899 0022 8646     		mov	lr, r0
 900 0024 00F11802 		add	r2, r0, #24
 901 0028 1201     		lsls	r2, r2, #4
 902 002a 9C58     		ldr	r4, [r3, r2]
 545:STM32F10x_StdPeriph_Driver/src/stm32f10x_can.c ****     if (TxMessage->IDE == CAN_Id_Standard)
 903              		.loc 1 545 44 view .LVU333
 904 002c 04F00104 		and	r4, r4, #1
 905 0030 9C50     		str	r4, [r3, r2]
 546:STM32F10x_StdPeriph_Driver/src/stm32f10x_can.c ****     {
 906              		.loc 1 546 5 is_stmt 1 view .LVU334
 546:STM32F10x_StdPeriph_Driver/src/stm32f10x_can.c ****     {
 907              		.loc 1 546 18 is_stmt 0 view .LVU335
 908 0032 0A7A     		ldrb	r2, [r1, #8]	@ zero_extendqisi2
 546:STM32F10x_StdPeriph_Driver/src/stm32f10x_can.c ****     {
 909              		.loc 1 546 8 view .LVU336
 910 0034 002A     		cmp	r2, #0
 911 0036 3FD1     		bne	.L66
ARM GAS  C:\Users\kevin\AppData\Local\Temp\ccRSUIFU.s 			page 47


 548:STM32F10x_StdPeriph_Driver/src/stm32f10x_can.c ****       CANx->sTxMailBox[transmit_mailbox].TIR |= ((TxMessage->StdId << 21) | \
 912              		.loc 1 548 7 is_stmt 1 view .LVU337
 549:STM32F10x_StdPeriph_Driver/src/stm32f10x_can.c ****                                                   TxMessage->RTR);
 913              		.loc 1 549 7 view .LVU338
 549:STM32F10x_StdPeriph_Driver/src/stm32f10x_can.c ****                                                   TxMessage->RTR);
 914              		.loc 1 549 41 is_stmt 0 view .LVU339
 915 0038 00F11802 		add	r2, r0, #24
 916 003c 1201     		lsls	r2, r2, #4
 917 003e 9C58     		ldr	r4, [r3, r2]
 550:STM32F10x_StdPeriph_Driver/src/stm32f10x_can.c ****     }
 918              		.loc 1 550 60 view .LVU340
 919 0040 4D7A     		ldrb	r5, [r1, #9]	@ zero_extendqisi2
 549:STM32F10x_StdPeriph_Driver/src/stm32f10x_can.c ****                                                   TxMessage->RTR);
 920              		.loc 1 549 75 view .LVU341
 921 0042 D1F800C0 		ldr	ip, [r1]
 922 0046 45EA4C55 		orr	r5, r5, ip, lsl #21
 549:STM32F10x_StdPeriph_Driver/src/stm32f10x_can.c ****                                                   TxMessage->RTR);
 923              		.loc 1 549 46 view .LVU342
 924 004a 2C43     		orrs	r4, r4, r5
 925 004c 9C50     		str	r4, [r3, r2]
 926              	.L67:
 561:STM32F10x_StdPeriph_Driver/src/stm32f10x_can.c ****     CANx->sTxMailBox[transmit_mailbox].TDTR &= (uint32_t)0xFFFFFFF0;
 927              		.loc 1 561 5 is_stmt 1 view .LVU343
 561:STM32F10x_StdPeriph_Driver/src/stm32f10x_can.c ****     CANx->sTxMailBox[transmit_mailbox].TDTR &= (uint32_t)0xFFFFFFF0;
 928              		.loc 1 561 14 is_stmt 0 view .LVU344
 929 004e 8A7A     		ldrb	r2, [r1, #10]	@ zero_extendqisi2
 561:STM32F10x_StdPeriph_Driver/src/stm32f10x_can.c ****     CANx->sTxMailBox[transmit_mailbox].TDTR &= (uint32_t)0xFFFFFFF0;
 930              		.loc 1 561 20 view .LVU345
 931 0050 02F00F02 		and	r2, r2, #15
 932 0054 8A72     		strb	r2, [r1, #10]
 562:STM32F10x_StdPeriph_Driver/src/stm32f10x_can.c ****     CANx->sTxMailBox[transmit_mailbox].TDTR |= TxMessage->DLC;
 933              		.loc 1 562 5 is_stmt 1 view .LVU346
 562:STM32F10x_StdPeriph_Driver/src/stm32f10x_can.c ****     CANx->sTxMailBox[transmit_mailbox].TDTR |= TxMessage->DLC;
 934              		.loc 1 562 39 is_stmt 0 view .LVU347
 935 0056 0EF11802 		add	r2, lr, #24
 936 005a 4FEA021C 		lsl	ip, r2, #4
 937 005e 03EB0212 		add	r2, r3, r2, lsl #4
 938 0062 5468     		ldr	r4, [r2, #4]
 562:STM32F10x_StdPeriph_Driver/src/stm32f10x_can.c ****     CANx->sTxMailBox[transmit_mailbox].TDTR |= TxMessage->DLC;
 939              		.loc 1 562 45 view .LVU348
 940 0064 24F00F04 		bic	r4, r4, #15
 941 0068 5460     		str	r4, [r2, #4]
 563:STM32F10x_StdPeriph_Driver/src/stm32f10x_can.c **** 
 942              		.loc 1 563 5 is_stmt 1 view .LVU349
 563:STM32F10x_StdPeriph_Driver/src/stm32f10x_can.c **** 
 943              		.loc 1 563 39 is_stmt 0 view .LVU350
 944 006a 5468     		ldr	r4, [r2, #4]
 563:STM32F10x_StdPeriph_Driver/src/stm32f10x_can.c **** 
 945              		.loc 1 563 57 view .LVU351
 946 006c 8D7A     		ldrb	r5, [r1, #10]	@ zero_extendqisi2
 563:STM32F10x_StdPeriph_Driver/src/stm32f10x_can.c **** 
 947              		.loc 1 563 45 view .LVU352
 948 006e 2C43     		orrs	r4, r4, r5
 949 0070 5460     		str	r4, [r2, #4]
 566:STM32F10x_StdPeriph_Driver/src/stm32f10x_can.c ****                                              ((uint32_t)TxMessage->Data[2] << 16) |
 950              		.loc 1 566 5 is_stmt 1 view .LVU353
 566:STM32F10x_StdPeriph_Driver/src/stm32f10x_can.c ****                                              ((uint32_t)TxMessage->Data[2] << 16) |
ARM GAS  C:\Users\kevin\AppData\Local\Temp\ccRSUIFU.s 			page 48


 951              		.loc 1 566 74 is_stmt 0 view .LVU354
 952 0072 8C7B     		ldrb	r4, [r1, #14]	@ zero_extendqisi2
 567:STM32F10x_StdPeriph_Driver/src/stm32f10x_can.c ****                                              ((uint32_t)TxMessage->Data[1] << 8) | 
 953              		.loc 1 567 72 view .LVU355
 954 0074 4A7B     		ldrb	r2, [r1, #13]	@ zero_extendqisi2
 567:STM32F10x_StdPeriph_Driver/src/stm32f10x_can.c ****                                              ((uint32_t)TxMessage->Data[1] << 8) | 
 955              		.loc 1 567 76 view .LVU356
 956 0076 1204     		lsls	r2, r2, #16
 566:STM32F10x_StdPeriph_Driver/src/stm32f10x_can.c ****                                              ((uint32_t)TxMessage->Data[2] << 16) |
 957              		.loc 1 566 85 view .LVU357
 958 0078 42EA0462 		orr	r2, r2, r4, lsl #24
 568:STM32F10x_StdPeriph_Driver/src/stm32f10x_can.c ****                                              ((uint32_t)TxMessage->Data[0]));
 959              		.loc 1 568 72 view .LVU358
 960 007c 0C7B     		ldrb	r4, [r1, #12]	@ zero_extendqisi2
 567:STM32F10x_StdPeriph_Driver/src/stm32f10x_can.c ****                                              ((uint32_t)TxMessage->Data[1] << 8) | 
 961              		.loc 1 567 83 view .LVU359
 962 007e 42EA0422 		orr	r2, r2, r4, lsl #8
 569:STM32F10x_StdPeriph_Driver/src/stm32f10x_can.c ****     CANx->sTxMailBox[transmit_mailbox].TDHR = (((uint32_t)TxMessage->Data[7] << 24) | 
 963              		.loc 1 569 72 view .LVU360
 964 0082 CC7A     		ldrb	r4, [r1, #11]	@ zero_extendqisi2
 568:STM32F10x_StdPeriph_Driver/src/stm32f10x_can.c ****                                              ((uint32_t)TxMessage->Data[0]));
 965              		.loc 1 568 82 view .LVU361
 966 0084 2243     		orrs	r2, r2, r4
 566:STM32F10x_StdPeriph_Driver/src/stm32f10x_can.c ****                                              ((uint32_t)TxMessage->Data[2] << 16) |
 967              		.loc 1 566 45 view .LVU362
 968 0086 03EB0E1E 		add	lr, r3, lr, lsl #4
 969 008a CEF88821 		str	r2, [lr, #392]
 570:STM32F10x_StdPeriph_Driver/src/stm32f10x_can.c ****                                              ((uint32_t)TxMessage->Data[6] << 16) |
 970              		.loc 1 570 5 is_stmt 1 view .LVU363
 570:STM32F10x_StdPeriph_Driver/src/stm32f10x_can.c ****                                              ((uint32_t)TxMessage->Data[6] << 16) |
 971              		.loc 1 570 74 is_stmt 0 view .LVU364
 972 008e 8C7C     		ldrb	r4, [r1, #18]	@ zero_extendqisi2
 571:STM32F10x_StdPeriph_Driver/src/stm32f10x_can.c ****                                              ((uint32_t)TxMessage->Data[5] << 8) |
 973              		.loc 1 571 72 view .LVU365
 974 0090 4A7C     		ldrb	r2, [r1, #17]	@ zero_extendqisi2
 571:STM32F10x_StdPeriph_Driver/src/stm32f10x_can.c ****                                              ((uint32_t)TxMessage->Data[5] << 8) |
 975              		.loc 1 571 76 view .LVU366
 976 0092 1204     		lsls	r2, r2, #16
 570:STM32F10x_StdPeriph_Driver/src/stm32f10x_can.c ****                                              ((uint32_t)TxMessage->Data[6] << 16) |
 977              		.loc 1 570 85 view .LVU367
 978 0094 42EA0462 		orr	r2, r2, r4, lsl #24
 572:STM32F10x_StdPeriph_Driver/src/stm32f10x_can.c ****                                              ((uint32_t)TxMessage->Data[4]));
 979              		.loc 1 572 72 view .LVU368
 980 0098 0C7C     		ldrb	r4, [r1, #16]	@ zero_extendqisi2
 571:STM32F10x_StdPeriph_Driver/src/stm32f10x_can.c ****                                              ((uint32_t)TxMessage->Data[5] << 8) |
 981              		.loc 1 571 83 view .LVU369
 982 009a 42EA0422 		orr	r2, r2, r4, lsl #8
 573:STM32F10x_StdPeriph_Driver/src/stm32f10x_can.c ****     /* Request transmission */
 983              		.loc 1 573 72 view .LVU370
 984 009e C97B     		ldrb	r1, [r1, #15]	@ zero_extendqisi2
 985              	.LVL43:
 572:STM32F10x_StdPeriph_Driver/src/stm32f10x_can.c ****                                              ((uint32_t)TxMessage->Data[4]));
 986              		.loc 1 572 82 view .LVU371
 987 00a0 0A43     		orrs	r2, r2, r1
 570:STM32F10x_StdPeriph_Driver/src/stm32f10x_can.c ****                                              ((uint32_t)TxMessage->Data[6] << 16) |
 988              		.loc 1 570 45 view .LVU372
 989 00a2 CEF88C21 		str	r2, [lr, #396]
ARM GAS  C:\Users\kevin\AppData\Local\Temp\ccRSUIFU.s 			page 49


 575:STM32F10x_StdPeriph_Driver/src/stm32f10x_can.c ****   }
 990              		.loc 1 575 5 is_stmt 1 view .LVU373
 575:STM32F10x_StdPeriph_Driver/src/stm32f10x_can.c ****   }
 991              		.loc 1 575 39 is_stmt 0 view .LVU374
 992 00a6 53F80C20 		ldr	r2, [r3, ip]
 575:STM32F10x_StdPeriph_Driver/src/stm32f10x_can.c ****   }
 993              		.loc 1 575 44 view .LVU375
 994 00aa 42F00102 		orr	r2, r2, #1
 995 00ae 43F80C20 		str	r2, [r3, ip]
 577:STM32F10x_StdPeriph_Driver/src/stm32f10x_can.c **** }
 996              		.loc 1 577 3 is_stmt 1 view .LVU376
 578:STM32F10x_StdPeriph_Driver/src/stm32f10x_can.c **** 
 997              		.loc 1 578 1 is_stmt 0 view .LVU377
 998 00b2 30BD     		pop	{r4, r5, pc}
 999              	.LVL44:
 1000              	.L69:
 1001              	.LCFI3:
 1002              		.cfi_def_cfa_offset 0
 1003              		.cfi_restore 4
 1004              		.cfi_restore 5
 1005              		.cfi_restore 14
 531:STM32F10x_StdPeriph_Driver/src/stm32f10x_can.c ****   }
 1006              		.loc 1 531 22 view .LVU378
 1007 00b4 0120     		movs	r0, #1
 1008              	.LVL45:
 531:STM32F10x_StdPeriph_Driver/src/stm32f10x_can.c ****   }
 1009              		.loc 1 531 22 view .LVU379
 1010 00b6 B3E7     		b	.L64
 1011              	.LVL46:
 1012              	.L66:
 1013              	.LCFI4:
 1014              		.cfi_def_cfa_offset 12
 1015              		.cfi_offset 4, -12
 1016              		.cfi_offset 5, -8
 1017              		.cfi_offset 14, -4
 554:STM32F10x_StdPeriph_Driver/src/stm32f10x_can.c ****       CANx->sTxMailBox[transmit_mailbox].TIR |= ((TxMessage->ExtId << 3) | \
 1018              		.loc 1 554 7 is_stmt 1 view .LVU380
 555:STM32F10x_StdPeriph_Driver/src/stm32f10x_can.c ****                                                   TxMessage->IDE | \
 1019              		.loc 1 555 7 view .LVU381
 555:STM32F10x_StdPeriph_Driver/src/stm32f10x_can.c ****                                                   TxMessage->IDE | \
 1020              		.loc 1 555 41 is_stmt 0 view .LVU382
 1021 00b8 00F11804 		add	r4, r0, #24
 1022 00bc 2401     		lsls	r4, r4, #4
 1023 00be 1D59     		ldr	r5, [r3, r4]
 555:STM32F10x_StdPeriph_Driver/src/stm32f10x_can.c ****                                                   TxMessage->IDE | \
 1024              		.loc 1 555 74 view .LVU383
 1025 00c0 D1F804C0 		ldr	ip, [r1, #4]
 1026 00c4 42EACC02 		orr	r2, r2, ip, lsl #3
 557:STM32F10x_StdPeriph_Driver/src/stm32f10x_can.c ****     }
 1027              		.loc 1 557 60 view .LVU384
 1028 00c8 91F809C0 		ldrb	ip, [r1, #9]	@ zero_extendqisi2
 556:STM32F10x_StdPeriph_Driver/src/stm32f10x_can.c ****                                                   TxMessage->RTR);
 1029              		.loc 1 556 66 view .LVU385
 1030 00cc 42EA0C02 		orr	r2, r2, ip
 555:STM32F10x_StdPeriph_Driver/src/stm32f10x_can.c ****                                                   TxMessage->IDE | \
 1031              		.loc 1 555 46 view .LVU386
 1032 00d0 2A43     		orrs	r2, r2, r5
ARM GAS  C:\Users\kevin\AppData\Local\Temp\ccRSUIFU.s 			page 50


 1033 00d2 1A51     		str	r2, [r3, r4]
 1034 00d4 BBE7     		b	.L67
 1035              	.LVL47:
 1036              	.L70:
 1037              	.LCFI5:
 1038              		.cfi_def_cfa_offset 0
 1039              		.cfi_restore 4
 1040              		.cfi_restore 5
 1041              		.cfi_restore 14
 539:STM32F10x_StdPeriph_Driver/src/stm32f10x_can.c ****   }
 1042              		.loc 1 539 22 view .LVU387
 1043 00d6 0420     		movs	r0, #4
 1044              	.LVL48:
 577:STM32F10x_StdPeriph_Driver/src/stm32f10x_can.c **** }
 1045              		.loc 1 577 3 is_stmt 1 view .LVU388
 578:STM32F10x_StdPeriph_Driver/src/stm32f10x_can.c **** 
 1046              		.loc 1 578 1 is_stmt 0 view .LVU389
 1047 00d8 7047     		bx	lr
 1048              		.cfi_endproc
 1049              	.LFE36:
 1051              		.section	.text.CAN_TransmitStatus,"ax",%progbits
 1052              		.align	1
 1053              		.global	CAN_TransmitStatus
 1054              		.syntax unified
 1055              		.thumb
 1056              		.thumb_func
 1058              	CAN_TransmitStatus:
 1059              	.LVL49:
 1060              	.LFB37:
 590:STM32F10x_StdPeriph_Driver/src/stm32f10x_can.c ****   uint32_t state = 0;
 1061              		.loc 1 590 1 is_stmt 1 view -0
 1062              		.cfi_startproc
 1063              		@ args = 0, pretend = 0, frame = 0
 1064              		@ frame_needed = 0, uses_anonymous_args = 0
 1065              		@ link register save eliminated.
 591:STM32F10x_StdPeriph_Driver/src/stm32f10x_can.c **** 
 1066              		.loc 1 591 3 view .LVU391
 594:STM32F10x_StdPeriph_Driver/src/stm32f10x_can.c ****   assert_param(IS_CAN_TRANSMITMAILBOX(TransmitMailbox));
 1067              		.loc 1 594 3 view .LVU392
 595:STM32F10x_StdPeriph_Driver/src/stm32f10x_can.c ****  
 1068              		.loc 1 595 3 view .LVU393
 597:STM32F10x_StdPeriph_Driver/src/stm32f10x_can.c ****   {
 1069              		.loc 1 597 3 view .LVU394
 1070 0000 0129     		cmp	r1, #1
 1071 0002 18D0     		beq	.L75
 1072 0004 0229     		cmp	r1, #2
 1073 0006 1AD0     		beq	.L76
 1074 0008 69BB     		cbnz	r1, .L80
 600:STM32F10x_StdPeriph_Driver/src/stm32f10x_can.c ****       break;
 1075              		.loc 1 600 7 view .LVU395
 600:STM32F10x_StdPeriph_Driver/src/stm32f10x_can.c ****       break;
 1076              		.loc 1 600 21 is_stmt 0 view .LVU396
 1077 000a 8368     		ldr	r3, [r0, #8]
 600:STM32F10x_StdPeriph_Driver/src/stm32f10x_can.c ****       break;
 1078              		.loc 1 600 13 view .LVU397
 1079 000c 23F07B43 		bic	r3, r3, #-83886080
 1080 0010 23F47F03 		bic	r3, r3, #16711680
ARM GAS  C:\Users\kevin\AppData\Local\Temp\ccRSUIFU.s 			page 51


 1081 0014 23F47F43 		bic	r3, r3, #65280
 1082 0018 23F0FC03 		bic	r3, r3, #252
 1083              	.LVL50:
 601:STM32F10x_StdPeriph_Driver/src/stm32f10x_can.c ****     case (CAN_TXMAILBOX_1): 
 1084              		.loc 1 601 7 is_stmt 1 view .LVU398
 1085              	.L78:
 612:STM32F10x_StdPeriph_Driver/src/stm32f10x_can.c ****   {
 1086              		.loc 1 612 3 view .LVU399
 1087 001c 1A4A     		ldr	r2, .L88
 1088 001e 9342     		cmp	r3, r2
 1089 0020 23D0     		beq	.L81
 612:STM32F10x_StdPeriph_Driver/src/stm32f10x_can.c ****   {
 1090              		.loc 1 612 3 is_stmt 0 view .LVU400
 1091 0022 14D8     		bhi	.L79
 1092 0024 194A     		ldr	r2, .L88+4
 1093 0026 9342     		cmp	r3, r2
 1094 0028 21D0     		beq	.L82
 1095 002a 0232     		adds	r2, r2, #2
 1096 002c 9342     		cmp	r3, r2
 1097 002e 20D0     		beq	.L83
 1098 0030 0BBB     		cbnz	r3, .L84
 1099 0032 0220     		movs	r0, #2
 1100              	.LVL51:
 612:STM32F10x_StdPeriph_Driver/src/stm32f10x_can.c ****   {
 1101              		.loc 1 612 3 view .LVU401
 1102 0034 7047     		bx	lr
 1103              	.LVL52:
 1104              	.L75:
 603:STM32F10x_StdPeriph_Driver/src/stm32f10x_can.c ****       break;
 1105              		.loc 1 603 7 is_stmt 1 view .LVU402
 603:STM32F10x_StdPeriph_Driver/src/stm32f10x_can.c ****       break;
 1106              		.loc 1 603 21 is_stmt 0 view .LVU403
 1107 0036 8268     		ldr	r2, [r0, #8]
 603:STM32F10x_StdPeriph_Driver/src/stm32f10x_can.c ****       break;
 1108              		.loc 1 603 13 view .LVU404
 1109 0038 154B     		ldr	r3, .L88+8
 1110 003a 1340     		ands	r3, r3, r2
 1111              	.LVL53:
 604:STM32F10x_StdPeriph_Driver/src/stm32f10x_can.c ****     case (CAN_TXMAILBOX_2): 
 1112              		.loc 1 604 7 is_stmt 1 view .LVU405
 1113 003c EEE7     		b	.L78
 1114              	.LVL54:
 1115              	.L76:
 606:STM32F10x_StdPeriph_Driver/src/stm32f10x_can.c ****       break;
 1116              		.loc 1 606 7 view .LVU406
 606:STM32F10x_StdPeriph_Driver/src/stm32f10x_can.c ****       break;
 1117              		.loc 1 606 21 is_stmt 0 view .LVU407
 1118 003e 8368     		ldr	r3, [r0, #8]
 606:STM32F10x_StdPeriph_Driver/src/stm32f10x_can.c ****       break;
 1119              		.loc 1 606 13 view .LVU408
 1120 0040 23F06F43 		bic	r3, r3, #-285212672
 1121 0044 23F47C03 		bic	r3, r3, #16515072
 1122 0048 1B0C     		lsrs	r3, r3, #16
 1123 004a 1B04     		lsls	r3, r3, #16
 1124              	.LVL55:
 607:STM32F10x_StdPeriph_Driver/src/stm32f10x_can.c ****     default:
 1125              		.loc 1 607 7 is_stmt 1 view .LVU409
ARM GAS  C:\Users\kevin\AppData\Local\Temp\ccRSUIFU.s 			page 52


 1126 004c E6E7     		b	.L78
 1127              	.L79:
 612:STM32F10x_StdPeriph_Driver/src/stm32f10x_can.c ****   {
 1128              		.loc 1 612 3 is_stmt 0 view .LVU410
 1129 004e 114A     		ldr	r2, .L88+12
 1130 0050 9342     		cmp	r3, r2
 1131 0052 12D0     		beq	.L85
 1132 0054 02F50032 		add	r2, r2, #131072
 1133 0058 9342     		cmp	r3, r2
 1134 005a 10D0     		beq	.L86
 1135 005c 0C4A     		ldr	r2, .L88+8
 1136 005e 9342     		cmp	r3, r2
 1137 0060 0FD1     		bne	.L87
 627:STM32F10x_StdPeriph_Driver/src/stm32f10x_can.c ****       break;
 1138              		.loc 1 627 63 view .LVU411
 1139 0062 0120     		movs	r0, #1
 1140              	.LVL56:
 627:STM32F10x_StdPeriph_Driver/src/stm32f10x_can.c ****       break;
 1141              		.loc 1 627 63 view .LVU412
 1142 0064 7047     		bx	lr
 1143              	.LVL57:
 1144              	.L80:
 597:STM32F10x_StdPeriph_Driver/src/stm32f10x_can.c ****   {
 1145              		.loc 1 597 3 view .LVU413
 1146 0066 0220     		movs	r0, #2
 1147              	.LVL58:
 597:STM32F10x_StdPeriph_Driver/src/stm32f10x_can.c ****   {
 1148              		.loc 1 597 3 view .LVU414
 1149 0068 7047     		bx	lr
 1150              	.LVL59:
 1151              	.L81:
 620:STM32F10x_StdPeriph_Driver/src/stm32f10x_can.c ****       break;
 1152              		.loc 1 620 49 view .LVU415
 1153 006a 0020     		movs	r0, #0
 1154              	.LVL60:
 620:STM32F10x_StdPeriph_Driver/src/stm32f10x_can.c ****       break;
 1155              		.loc 1 620 49 view .LVU416
 1156 006c 7047     		bx	lr
 1157              	.LVL61:
 1158              	.L82:
 618:STM32F10x_StdPeriph_Driver/src/stm32f10x_can.c ****       break;
 1159              		.loc 1 618 49 view .LVU417
 1160 006e 0020     		movs	r0, #0
 1161              	.LVL62:
 618:STM32F10x_StdPeriph_Driver/src/stm32f10x_can.c ****       break;
 1162              		.loc 1 618 49 view .LVU418
 1163 0070 7047     		bx	lr
 1164              	.LVL63:
 1165              	.L83:
 625:STM32F10x_StdPeriph_Driver/src/stm32f10x_can.c ****       break;
 1166              		.loc 1 625 63 view .LVU419
 1167 0072 0120     		movs	r0, #1
 1168              	.LVL64:
 625:STM32F10x_StdPeriph_Driver/src/stm32f10x_can.c ****       break;
 1169              		.loc 1 625 63 view .LVU420
 1170 0074 7047     		bx	lr
 1171              	.LVL65:
ARM GAS  C:\Users\kevin\AppData\Local\Temp\ccRSUIFU.s 			page 53


 1172              	.L84:
 631:STM32F10x_StdPeriph_Driver/src/stm32f10x_can.c ****       break;
 1173              		.loc 1 631 20 view .LVU421
 1174 0076 0020     		movs	r0, #0
 1175              	.LVL66:
 631:STM32F10x_StdPeriph_Driver/src/stm32f10x_can.c ****       break;
 1176              		.loc 1 631 20 view .LVU422
 1177 0078 7047     		bx	lr
 1178              	.LVL67:
 1179              	.L85:
 622:STM32F10x_StdPeriph_Driver/src/stm32f10x_can.c ****       break;
 1180              		.loc 1 622 49 view .LVU423
 1181 007a 0020     		movs	r0, #0
 1182              	.LVL68:
 622:STM32F10x_StdPeriph_Driver/src/stm32f10x_can.c ****       break;
 1183              		.loc 1 622 49 view .LVU424
 1184 007c 7047     		bx	lr
 1185              	.LVL69:
 1186              	.L86:
 629:STM32F10x_StdPeriph_Driver/src/stm32f10x_can.c ****       break;
 1187              		.loc 1 629 63 view .LVU425
 1188 007e 0120     		movs	r0, #1
 1189              	.LVL70:
 629:STM32F10x_StdPeriph_Driver/src/stm32f10x_can.c ****       break;
 1190              		.loc 1 629 63 view .LVU426
 1191 0080 7047     		bx	lr
 1192              	.LVL71:
 1193              	.L87:
 631:STM32F10x_StdPeriph_Driver/src/stm32f10x_can.c ****       break;
 1194              		.loc 1 631 20 view .LVU427
 1195 0082 0020     		movs	r0, #0
 1196              	.LVL72:
 634:STM32F10x_StdPeriph_Driver/src/stm32f10x_can.c **** }
 1197              		.loc 1 634 3 is_stmt 1 view .LVU428
 635:STM32F10x_StdPeriph_Driver/src/stm32f10x_can.c **** 
 1198              		.loc 1 635 1 is_stmt 0 view .LVU429
 1199 0084 7047     		bx	lr
 1200              	.L89:
 1201 0086 00BF     		.align	2
 1202              	.L88:
 1203 0088 00010008 		.word	134217984
 1204 008c 01000004 		.word	67108865
 1205 0090 00030008 		.word	134218496
 1206 0094 00000110 		.word	268500992
 1207              		.cfi_endproc
 1208              	.LFE37:
 1210              		.section	.text.CAN_CancelTransmit,"ax",%progbits
 1211              		.align	1
 1212              		.global	CAN_CancelTransmit
 1213              		.syntax unified
 1214              		.thumb
 1215              		.thumb_func
 1217              	CAN_CancelTransmit:
 1218              	.LVL73:
 1219              	.LFB38:
 644:STM32F10x_StdPeriph_Driver/src/stm32f10x_can.c ****   /* Check the parameters */
 1220              		.loc 1 644 1 is_stmt 1 view -0
ARM GAS  C:\Users\kevin\AppData\Local\Temp\ccRSUIFU.s 			page 54


 1221              		.cfi_startproc
 1222              		@ args = 0, pretend = 0, frame = 0
 1223              		@ frame_needed = 0, uses_anonymous_args = 0
 1224              		@ link register save eliminated.
 646:STM32F10x_StdPeriph_Driver/src/stm32f10x_can.c ****   assert_param(IS_CAN_TRANSMITMAILBOX(Mailbox));
 1225              		.loc 1 646 3 view .LVU431
 647:STM32F10x_StdPeriph_Driver/src/stm32f10x_can.c ****   /* abort transmission */
 1226              		.loc 1 647 3 view .LVU432
 649:STM32F10x_StdPeriph_Driver/src/stm32f10x_can.c ****   {
 1227              		.loc 1 649 3 view .LVU433
 1228 0000 0129     		cmp	r1, #1
 1229 0002 07D0     		beq	.L91
 1230 0004 0229     		cmp	r1, #2
 1231 0006 0AD0     		beq	.L92
 1232 0008 69B9     		cbnz	r1, .L90
 651:STM32F10x_StdPeriph_Driver/src/stm32f10x_can.c ****       break;
 1233              		.loc 1 651 29 view .LVU434
 651:STM32F10x_StdPeriph_Driver/src/stm32f10x_can.c ****       break;
 1234              		.loc 1 651 33 is_stmt 0 view .LVU435
 1235 000a 8368     		ldr	r3, [r0, #8]
 651:STM32F10x_StdPeriph_Driver/src/stm32f10x_can.c ****       break;
 1236              		.loc 1 651 39 view .LVU436
 1237 000c 43F08003 		orr	r3, r3, #128
 1238 0010 8360     		str	r3, [r0, #8]
 652:STM32F10x_StdPeriph_Driver/src/stm32f10x_can.c ****     case (CAN_TXMAILBOX_1): CANx->TSR |= CAN_TSR_ABRQ1;
 1239              		.loc 1 652 7 is_stmt 1 view .LVU437
 1240 0012 7047     		bx	lr
 1241              	.L91:
 653:STM32F10x_StdPeriph_Driver/src/stm32f10x_can.c ****       break;
 1242              		.loc 1 653 29 view .LVU438
 653:STM32F10x_StdPeriph_Driver/src/stm32f10x_can.c ****       break;
 1243              		.loc 1 653 33 is_stmt 0 view .LVU439
 1244 0014 8368     		ldr	r3, [r0, #8]
 653:STM32F10x_StdPeriph_Driver/src/stm32f10x_can.c ****       break;
 1245              		.loc 1 653 39 view .LVU440
 1246 0016 43F40043 		orr	r3, r3, #32768
 1247 001a 8360     		str	r3, [r0, #8]
 654:STM32F10x_StdPeriph_Driver/src/stm32f10x_can.c ****     case (CAN_TXMAILBOX_2): CANx->TSR |= CAN_TSR_ABRQ2;
 1248              		.loc 1 654 7 is_stmt 1 view .LVU441
 1249 001c 7047     		bx	lr
 1250              	.L92:
 655:STM32F10x_StdPeriph_Driver/src/stm32f10x_can.c ****       break;
 1251              		.loc 1 655 29 view .LVU442
 655:STM32F10x_StdPeriph_Driver/src/stm32f10x_can.c ****       break;
 1252              		.loc 1 655 33 is_stmt 0 view .LVU443
 1253 001e 8368     		ldr	r3, [r0, #8]
 655:STM32F10x_StdPeriph_Driver/src/stm32f10x_can.c ****       break;
 1254              		.loc 1 655 39 view .LVU444
 1255 0020 43F40003 		orr	r3, r3, #8388608
 1256 0024 8360     		str	r3, [r0, #8]
 656:STM32F10x_StdPeriph_Driver/src/stm32f10x_can.c ****     default:
 1257              		.loc 1 656 7 is_stmt 1 view .LVU445
 1258              	.L90:
 660:STM32F10x_StdPeriph_Driver/src/stm32f10x_can.c **** 
 1259              		.loc 1 660 1 is_stmt 0 view .LVU446
 1260 0026 7047     		bx	lr
 1261              		.cfi_endproc
ARM GAS  C:\Users\kevin\AppData\Local\Temp\ccRSUIFU.s 			page 55


 1262              	.LFE38:
 1264              		.section	.text.CAN_Receive,"ax",%progbits
 1265              		.align	1
 1266              		.global	CAN_Receive
 1267              		.syntax unified
 1268              		.thumb
 1269              		.thumb_func
 1271              	CAN_Receive:
 1272              	.LVL74:
 1273              	.LFB39:
 672:STM32F10x_StdPeriph_Driver/src/stm32f10x_can.c ****   /* Check the parameters */
 1274              		.loc 1 672 1 is_stmt 1 view -0
 1275              		.cfi_startproc
 1276              		@ args = 0, pretend = 0, frame = 0
 1277              		@ frame_needed = 0, uses_anonymous_args = 0
 1278              		@ link register save eliminated.
 672:STM32F10x_StdPeriph_Driver/src/stm32f10x_can.c ****   /* Check the parameters */
 1279              		.loc 1 672 1 is_stmt 0 view .LVU448
 1280 0000 10B4     		push	{r4}
 1281              	.LCFI6:
 1282              		.cfi_def_cfa_offset 4
 1283              		.cfi_offset 4, -4
 674:STM32F10x_StdPeriph_Driver/src/stm32f10x_can.c ****   assert_param(IS_CAN_FIFO(FIFONumber));
 1284              		.loc 1 674 3 is_stmt 1 view .LVU449
 675:STM32F10x_StdPeriph_Driver/src/stm32f10x_can.c ****   /* Get the Id */
 1285              		.loc 1 675 3 view .LVU450
 677:STM32F10x_StdPeriph_Driver/src/stm32f10x_can.c ****   if (RxMessage->IDE == CAN_Id_Standard)
 1286              		.loc 1 677 3 view .LVU451
 677:STM32F10x_StdPeriph_Driver/src/stm32f10x_can.c ****   if (RxMessage->IDE == CAN_Id_Standard)
 1287              		.loc 1 677 66 is_stmt 0 view .LVU452
 1288 0002 01F11B03 		add	r3, r1, #27
 1289 0006 1B01     		lsls	r3, r3, #4
 1290 0008 C358     		ldr	r3, [r0, r3]
 677:STM32F10x_StdPeriph_Driver/src/stm32f10x_can.c ****   if (RxMessage->IDE == CAN_Id_Standard)
 1291              		.loc 1 677 34 view .LVU453
 1292 000a 03F00403 		and	r3, r3, #4
 677:STM32F10x_StdPeriph_Driver/src/stm32f10x_can.c ****   if (RxMessage->IDE == CAN_Id_Standard)
 1293              		.loc 1 677 18 view .LVU454
 1294 000e 1372     		strb	r3, [r2, #8]
 678:STM32F10x_StdPeriph_Driver/src/stm32f10x_can.c ****   {
 1295              		.loc 1 678 3 is_stmt 1 view .LVU455
 678:STM32F10x_StdPeriph_Driver/src/stm32f10x_can.c ****   {
 1296              		.loc 1 678 6 is_stmt 0 view .LVU456
 1297 0010 002B     		cmp	r3, #0
 1298 0012 3ED1     		bne	.L95
 680:STM32F10x_StdPeriph_Driver/src/stm32f10x_can.c ****   }
 1299              		.loc 1 680 5 is_stmt 1 view .LVU457
 680:STM32F10x_StdPeriph_Driver/src/stm32f10x_can.c ****   }
 1300              		.loc 1 680 78 is_stmt 0 view .LVU458
 1301 0014 01F11B03 		add	r3, r1, #27
 1302 0018 1B01     		lsls	r3, r3, #4
 1303 001a C358     		ldr	r3, [r0, r3]
 680:STM32F10x_StdPeriph_Driver/src/stm32f10x_can.c ****   }
 1304              		.loc 1 680 83 view .LVU459
 1305 001c 5B0D     		lsrs	r3, r3, #21
 680:STM32F10x_StdPeriph_Driver/src/stm32f10x_can.c ****   }
 1306              		.loc 1 680 22 view .LVU460
ARM GAS  C:\Users\kevin\AppData\Local\Temp\ccRSUIFU.s 			page 56


 1307 001e 1360     		str	r3, [r2]
 1308              	.L96:
 687:STM32F10x_StdPeriph_Driver/src/stm32f10x_can.c ****   /* Get the DLC */
 1309              		.loc 1 687 3 is_stmt 1 view .LVU461
 687:STM32F10x_StdPeriph_Driver/src/stm32f10x_can.c ****   /* Get the DLC */
 1310              		.loc 1 687 66 is_stmt 0 view .LVU462
 1311 0020 01F11B03 		add	r3, r1, #27
 1312 0024 1C01     		lsls	r4, r3, #4
 1313 0026 00EB0313 		add	r3, r0, r3, lsl #4
 1314 002a 0459     		ldr	r4, [r0, r4]
 687:STM32F10x_StdPeriph_Driver/src/stm32f10x_can.c ****   /* Get the DLC */
 1315              		.loc 1 687 34 view .LVU463
 1316 002c 04F00204 		and	r4, r4, #2
 687:STM32F10x_StdPeriph_Driver/src/stm32f10x_can.c ****   /* Get the DLC */
 1317              		.loc 1 687 18 view .LVU464
 1318 0030 5472     		strb	r4, [r2, #9]
 689:STM32F10x_StdPeriph_Driver/src/stm32f10x_can.c ****   /* Get the FMI */
 1319              		.loc 1 689 3 is_stmt 1 view .LVU465
 689:STM32F10x_StdPeriph_Driver/src/stm32f10x_can.c ****   /* Get the FMI */
 1320              		.loc 1 689 66 is_stmt 0 view .LVU466
 1321 0032 5C68     		ldr	r4, [r3, #4]
 689:STM32F10x_StdPeriph_Driver/src/stm32f10x_can.c ****   /* Get the FMI */
 1322              		.loc 1 689 34 view .LVU467
 1323 0034 04F00F04 		and	r4, r4, #15
 689:STM32F10x_StdPeriph_Driver/src/stm32f10x_can.c ****   /* Get the FMI */
 1324              		.loc 1 689 18 view .LVU468
 1325 0038 9472     		strb	r4, [r2, #10]
 691:STM32F10x_StdPeriph_Driver/src/stm32f10x_can.c ****   /* Get the data field */
 1326              		.loc 1 691 3 is_stmt 1 view .LVU469
 691:STM32F10x_StdPeriph_Driver/src/stm32f10x_can.c ****   /* Get the data field */
 1327              		.loc 1 691 67 is_stmt 0 view .LVU470
 1328 003a 5B68     		ldr	r3, [r3, #4]
 691:STM32F10x_StdPeriph_Driver/src/stm32f10x_can.c ****   /* Get the data field */
 1329              		.loc 1 691 73 view .LVU471
 1330 003c 1B0A     		lsrs	r3, r3, #8
 691:STM32F10x_StdPeriph_Driver/src/stm32f10x_can.c ****   /* Get the data field */
 1331              		.loc 1 691 18 view .LVU472
 1332 003e D374     		strb	r3, [r2, #19]
 693:STM32F10x_StdPeriph_Driver/src/stm32f10x_can.c ****   RxMessage->Data[1] = (uint8_t)0xFF & (CANx->sFIFOMailBox[FIFONumber].RDLR >> 8);
 1333              		.loc 1 693 3 is_stmt 1 view .LVU473
 693:STM32F10x_StdPeriph_Driver/src/stm32f10x_can.c ****   RxMessage->Data[1] = (uint8_t)0xFF & (CANx->sFIFOMailBox[FIFONumber].RDLR >> 8);
 1334              		.loc 1 693 70 is_stmt 0 view .LVU474
 1335 0040 00EB0113 		add	r3, r0, r1, lsl #4
 1336 0044 D3F8B841 		ldr	r4, [r3, #440]
 693:STM32F10x_StdPeriph_Driver/src/stm32f10x_can.c ****   RxMessage->Data[1] = (uint8_t)0xFF & (CANx->sFIFOMailBox[FIFONumber].RDLR >> 8);
 1337              		.loc 1 693 22 view .LVU475
 1338 0048 D472     		strb	r4, [r2, #11]
 694:STM32F10x_StdPeriph_Driver/src/stm32f10x_can.c ****   RxMessage->Data[2] = (uint8_t)0xFF & (CANx->sFIFOMailBox[FIFONumber].RDLR >> 16);
 1339              		.loc 1 694 3 is_stmt 1 view .LVU476
 694:STM32F10x_StdPeriph_Driver/src/stm32f10x_can.c ****   RxMessage->Data[2] = (uint8_t)0xFF & (CANx->sFIFOMailBox[FIFONumber].RDLR >> 16);
 1340              		.loc 1 694 71 is_stmt 0 view .LVU477
 1341 004a D3F8B841 		ldr	r4, [r3, #440]
 694:STM32F10x_StdPeriph_Driver/src/stm32f10x_can.c ****   RxMessage->Data[2] = (uint8_t)0xFF & (CANx->sFIFOMailBox[FIFONumber].RDLR >> 16);
 1342              		.loc 1 694 77 view .LVU478
 1343 004e 240A     		lsrs	r4, r4, #8
 694:STM32F10x_StdPeriph_Driver/src/stm32f10x_can.c ****   RxMessage->Data[2] = (uint8_t)0xFF & (CANx->sFIFOMailBox[FIFONumber].RDLR >> 16);
 1344              		.loc 1 694 22 view .LVU479
ARM GAS  C:\Users\kevin\AppData\Local\Temp\ccRSUIFU.s 			page 57


 1345 0050 1473     		strb	r4, [r2, #12]
 695:STM32F10x_StdPeriph_Driver/src/stm32f10x_can.c ****   RxMessage->Data[3] = (uint8_t)0xFF & (CANx->sFIFOMailBox[FIFONumber].RDLR >> 24);
 1346              		.loc 1 695 3 is_stmt 1 view .LVU480
 695:STM32F10x_StdPeriph_Driver/src/stm32f10x_can.c ****   RxMessage->Data[3] = (uint8_t)0xFF & (CANx->sFIFOMailBox[FIFONumber].RDLR >> 24);
 1347              		.loc 1 695 71 is_stmt 0 view .LVU481
 1348 0052 D3F8B841 		ldr	r4, [r3, #440]
 695:STM32F10x_StdPeriph_Driver/src/stm32f10x_can.c ****   RxMessage->Data[3] = (uint8_t)0xFF & (CANx->sFIFOMailBox[FIFONumber].RDLR >> 24);
 1349              		.loc 1 695 77 view .LVU482
 1350 0056 240C     		lsrs	r4, r4, #16
 695:STM32F10x_StdPeriph_Driver/src/stm32f10x_can.c ****   RxMessage->Data[3] = (uint8_t)0xFF & (CANx->sFIFOMailBox[FIFONumber].RDLR >> 24);
 1351              		.loc 1 695 22 view .LVU483
 1352 0058 5473     		strb	r4, [r2, #13]
 696:STM32F10x_StdPeriph_Driver/src/stm32f10x_can.c ****   RxMessage->Data[4] = (uint8_t)0xFF & CANx->sFIFOMailBox[FIFONumber].RDHR;
 1353              		.loc 1 696 3 is_stmt 1 view .LVU484
 696:STM32F10x_StdPeriph_Driver/src/stm32f10x_can.c ****   RxMessage->Data[4] = (uint8_t)0xFF & CANx->sFIFOMailBox[FIFONumber].RDHR;
 1354              		.loc 1 696 71 is_stmt 0 view .LVU485
 1355 005a D3F8B841 		ldr	r4, [r3, #440]
 696:STM32F10x_StdPeriph_Driver/src/stm32f10x_can.c ****   RxMessage->Data[4] = (uint8_t)0xFF & CANx->sFIFOMailBox[FIFONumber].RDHR;
 1356              		.loc 1 696 77 view .LVU486
 1357 005e 240E     		lsrs	r4, r4, #24
 696:STM32F10x_StdPeriph_Driver/src/stm32f10x_can.c ****   RxMessage->Data[4] = (uint8_t)0xFF & CANx->sFIFOMailBox[FIFONumber].RDHR;
 1358              		.loc 1 696 22 view .LVU487
 1359 0060 9473     		strb	r4, [r2, #14]
 697:STM32F10x_StdPeriph_Driver/src/stm32f10x_can.c ****   RxMessage->Data[5] = (uint8_t)0xFF & (CANx->sFIFOMailBox[FIFONumber].RDHR >> 8);
 1360              		.loc 1 697 3 is_stmt 1 view .LVU488
 697:STM32F10x_StdPeriph_Driver/src/stm32f10x_can.c ****   RxMessage->Data[5] = (uint8_t)0xFF & (CANx->sFIFOMailBox[FIFONumber].RDHR >> 8);
 1361              		.loc 1 697 70 is_stmt 0 view .LVU489
 1362 0062 D3F8BC41 		ldr	r4, [r3, #444]
 697:STM32F10x_StdPeriph_Driver/src/stm32f10x_can.c ****   RxMessage->Data[5] = (uint8_t)0xFF & (CANx->sFIFOMailBox[FIFONumber].RDHR >> 8);
 1363              		.loc 1 697 22 view .LVU490
 1364 0066 D473     		strb	r4, [r2, #15]
 698:STM32F10x_StdPeriph_Driver/src/stm32f10x_can.c ****   RxMessage->Data[6] = (uint8_t)0xFF & (CANx->sFIFOMailBox[FIFONumber].RDHR >> 16);
 1365              		.loc 1 698 3 is_stmt 1 view .LVU491
 698:STM32F10x_StdPeriph_Driver/src/stm32f10x_can.c ****   RxMessage->Data[6] = (uint8_t)0xFF & (CANx->sFIFOMailBox[FIFONumber].RDHR >> 16);
 1366              		.loc 1 698 71 is_stmt 0 view .LVU492
 1367 0068 D3F8BC41 		ldr	r4, [r3, #444]
 698:STM32F10x_StdPeriph_Driver/src/stm32f10x_can.c ****   RxMessage->Data[6] = (uint8_t)0xFF & (CANx->sFIFOMailBox[FIFONumber].RDHR >> 16);
 1368              		.loc 1 698 77 view .LVU493
 1369 006c 240A     		lsrs	r4, r4, #8
 698:STM32F10x_StdPeriph_Driver/src/stm32f10x_can.c ****   RxMessage->Data[6] = (uint8_t)0xFF & (CANx->sFIFOMailBox[FIFONumber].RDHR >> 16);
 1370              		.loc 1 698 22 view .LVU494
 1371 006e 1474     		strb	r4, [r2, #16]
 699:STM32F10x_StdPeriph_Driver/src/stm32f10x_can.c ****   RxMessage->Data[7] = (uint8_t)0xFF & (CANx->sFIFOMailBox[FIFONumber].RDHR >> 24);
 1372              		.loc 1 699 3 is_stmt 1 view .LVU495
 699:STM32F10x_StdPeriph_Driver/src/stm32f10x_can.c ****   RxMessage->Data[7] = (uint8_t)0xFF & (CANx->sFIFOMailBox[FIFONumber].RDHR >> 24);
 1373              		.loc 1 699 71 is_stmt 0 view .LVU496
 1374 0070 D3F8BC41 		ldr	r4, [r3, #444]
 699:STM32F10x_StdPeriph_Driver/src/stm32f10x_can.c ****   RxMessage->Data[7] = (uint8_t)0xFF & (CANx->sFIFOMailBox[FIFONumber].RDHR >> 24);
 1375              		.loc 1 699 77 view .LVU497
 1376 0074 4FEA144C 		lsr	ip, r4, #16
 699:STM32F10x_StdPeriph_Driver/src/stm32f10x_can.c ****   RxMessage->Data[7] = (uint8_t)0xFF & (CANx->sFIFOMailBox[FIFONumber].RDHR >> 24);
 1377              		.loc 1 699 22 view .LVU498
 1378 0078 82F811C0 		strb	ip, [r2, #17]
 700:STM32F10x_StdPeriph_Driver/src/stm32f10x_can.c ****   /* Release the FIFO */
 1379              		.loc 1 700 3 is_stmt 1 view .LVU499
 700:STM32F10x_StdPeriph_Driver/src/stm32f10x_can.c ****   /* Release the FIFO */
 1380              		.loc 1 700 71 is_stmt 0 view .LVU500
ARM GAS  C:\Users\kevin\AppData\Local\Temp\ccRSUIFU.s 			page 58


 1381 007c D3F8BC31 		ldr	r3, [r3, #444]
 700:STM32F10x_StdPeriph_Driver/src/stm32f10x_can.c ****   /* Release the FIFO */
 1382              		.loc 1 700 77 view .LVU501
 1383 0080 1B0E     		lsrs	r3, r3, #24
 700:STM32F10x_StdPeriph_Driver/src/stm32f10x_can.c ****   /* Release the FIFO */
 1384              		.loc 1 700 22 view .LVU502
 1385 0082 9374     		strb	r3, [r2, #18]
 703:STM32F10x_StdPeriph_Driver/src/stm32f10x_can.c ****   {
 1386              		.loc 1 703 3 is_stmt 1 view .LVU503
 703:STM32F10x_StdPeriph_Driver/src/stm32f10x_can.c ****   {
 1387              		.loc 1 703 6 is_stmt 0 view .LVU504
 1388 0084 61B9     		cbnz	r1, .L97
 705:STM32F10x_StdPeriph_Driver/src/stm32f10x_can.c ****   }
 1389              		.loc 1 705 5 is_stmt 1 view .LVU505
 705:STM32F10x_StdPeriph_Driver/src/stm32f10x_can.c ****   }
 1390              		.loc 1 705 9 is_stmt 0 view .LVU506
 1391 0086 C368     		ldr	r3, [r0, #12]
 705:STM32F10x_StdPeriph_Driver/src/stm32f10x_can.c ****   }
 1392              		.loc 1 705 16 view .LVU507
 1393 0088 43F02003 		orr	r3, r3, #32
 1394 008c C360     		str	r3, [r0, #12]
 1395              	.L94:
 712:STM32F10x_StdPeriph_Driver/src/stm32f10x_can.c **** 
 1396              		.loc 1 712 1 view .LVU508
 1397 008e 10BC     		pop	{r4}
 1398              	.LCFI7:
 1399              		.cfi_remember_state
 1400              		.cfi_restore 4
 1401              		.cfi_def_cfa_offset 0
 1402 0090 7047     		bx	lr
 1403              	.L95:
 1404              	.LCFI8:
 1405              		.cfi_restore_state
 684:STM32F10x_StdPeriph_Driver/src/stm32f10x_can.c ****   }
 1406              		.loc 1 684 5 is_stmt 1 view .LVU509
 684:STM32F10x_StdPeriph_Driver/src/stm32f10x_can.c ****   }
 1407              		.loc 1 684 78 is_stmt 0 view .LVU510
 1408 0092 01F11B03 		add	r3, r1, #27
 1409 0096 1B01     		lsls	r3, r3, #4
 1410 0098 C358     		ldr	r3, [r0, r3]
 684:STM32F10x_StdPeriph_Driver/src/stm32f10x_can.c ****   }
 1411              		.loc 1 684 83 view .LVU511
 1412 009a DB08     		lsrs	r3, r3, #3
 684:STM32F10x_StdPeriph_Driver/src/stm32f10x_can.c ****   }
 1413              		.loc 1 684 22 view .LVU512
 1414 009c 5360     		str	r3, [r2, #4]
 1415 009e BFE7     		b	.L96
 1416              	.L97:
 710:STM32F10x_StdPeriph_Driver/src/stm32f10x_can.c ****   }
 1417              		.loc 1 710 5 is_stmt 1 view .LVU513
 710:STM32F10x_StdPeriph_Driver/src/stm32f10x_can.c ****   }
 1418              		.loc 1 710 9 is_stmt 0 view .LVU514
 1419 00a0 0369     		ldr	r3, [r0, #16]
 710:STM32F10x_StdPeriph_Driver/src/stm32f10x_can.c ****   }
 1420              		.loc 1 710 16 view .LVU515
 1421 00a2 43F02003 		orr	r3, r3, #32
 1422 00a6 0361     		str	r3, [r0, #16]
ARM GAS  C:\Users\kevin\AppData\Local\Temp\ccRSUIFU.s 			page 59


 712:STM32F10x_StdPeriph_Driver/src/stm32f10x_can.c **** 
 1423              		.loc 1 712 1 view .LVU516
 1424 00a8 F1E7     		b	.L94
 1425              		.cfi_endproc
 1426              	.LFE39:
 1428              		.section	.text.CAN_FIFORelease,"ax",%progbits
 1429              		.align	1
 1430              		.global	CAN_FIFORelease
 1431              		.syntax unified
 1432              		.thumb
 1433              		.thumb_func
 1435              	CAN_FIFORelease:
 1436              	.LVL75:
 1437              	.LFB40:
 721:STM32F10x_StdPeriph_Driver/src/stm32f10x_can.c ****   /* Check the parameters */
 1438              		.loc 1 721 1 is_stmt 1 view -0
 1439              		.cfi_startproc
 1440              		@ args = 0, pretend = 0, frame = 0
 1441              		@ frame_needed = 0, uses_anonymous_args = 0
 1442              		@ link register save eliminated.
 723:STM32F10x_StdPeriph_Driver/src/stm32f10x_can.c ****   assert_param(IS_CAN_FIFO(FIFONumber));
 1443              		.loc 1 723 3 view .LVU518
 724:STM32F10x_StdPeriph_Driver/src/stm32f10x_can.c ****   /* Release FIFO0 */
 1444              		.loc 1 724 3 view .LVU519
 726:STM32F10x_StdPeriph_Driver/src/stm32f10x_can.c ****   {
 1445              		.loc 1 726 3 view .LVU520
 726:STM32F10x_StdPeriph_Driver/src/stm32f10x_can.c ****   {
 1446              		.loc 1 726 6 is_stmt 0 view .LVU521
 1447 0000 21B9     		cbnz	r1, .L101
 728:STM32F10x_StdPeriph_Driver/src/stm32f10x_can.c ****   }
 1448              		.loc 1 728 5 is_stmt 1 view .LVU522
 728:STM32F10x_StdPeriph_Driver/src/stm32f10x_can.c ****   }
 1449              		.loc 1 728 9 is_stmt 0 view .LVU523
 1450 0002 C368     		ldr	r3, [r0, #12]
 728:STM32F10x_StdPeriph_Driver/src/stm32f10x_can.c ****   }
 1451              		.loc 1 728 16 view .LVU524
 1452 0004 43F02003 		orr	r3, r3, #32
 1453 0008 C360     		str	r3, [r0, #12]
 1454 000a 7047     		bx	lr
 1455              	.L101:
 733:STM32F10x_StdPeriph_Driver/src/stm32f10x_can.c ****   }
 1456              		.loc 1 733 5 is_stmt 1 view .LVU525
 733:STM32F10x_StdPeriph_Driver/src/stm32f10x_can.c ****   }
 1457              		.loc 1 733 9 is_stmt 0 view .LVU526
 1458 000c 0369     		ldr	r3, [r0, #16]
 733:STM32F10x_StdPeriph_Driver/src/stm32f10x_can.c ****   }
 1459              		.loc 1 733 16 view .LVU527
 1460 000e 43F02003 		orr	r3, r3, #32
 1461 0012 0361     		str	r3, [r0, #16]
 735:STM32F10x_StdPeriph_Driver/src/stm32f10x_can.c **** 
 1462              		.loc 1 735 1 view .LVU528
 1463 0014 7047     		bx	lr
 1464              		.cfi_endproc
 1465              	.LFE40:
 1467              		.section	.text.CAN_MessagePending,"ax",%progbits
 1468              		.align	1
 1469              		.global	CAN_MessagePending
ARM GAS  C:\Users\kevin\AppData\Local\Temp\ccRSUIFU.s 			page 60


 1470              		.syntax unified
 1471              		.thumb
 1472              		.thumb_func
 1474              	CAN_MessagePending:
 1475              	.LVL76:
 1476              	.LFB41:
 744:STM32F10x_StdPeriph_Driver/src/stm32f10x_can.c ****   uint8_t message_pending=0;
 1477              		.loc 1 744 1 is_stmt 1 view -0
 1478              		.cfi_startproc
 1479              		@ args = 0, pretend = 0, frame = 0
 1480              		@ frame_needed = 0, uses_anonymous_args = 0
 1481              		@ link register save eliminated.
 745:STM32F10x_StdPeriph_Driver/src/stm32f10x_can.c ****   /* Check the parameters */
 1482              		.loc 1 745 3 view .LVU530
 747:STM32F10x_StdPeriph_Driver/src/stm32f10x_can.c ****   assert_param(IS_CAN_FIFO(FIFONumber));
 1483              		.loc 1 747 3 view .LVU531
 748:STM32F10x_StdPeriph_Driver/src/stm32f10x_can.c ****   if (FIFONumber == CAN_FIFO0)
 1484              		.loc 1 748 3 view .LVU532
 749:STM32F10x_StdPeriph_Driver/src/stm32f10x_can.c ****   {
 1485              		.loc 1 749 3 view .LVU533
 749:STM32F10x_StdPeriph_Driver/src/stm32f10x_can.c ****   {
 1486              		.loc 1 749 6 is_stmt 0 view .LVU534
 1487 0000 19B9     		cbnz	r1, .L104
 751:STM32F10x_StdPeriph_Driver/src/stm32f10x_can.c ****   }
 1488              		.loc 1 751 5 is_stmt 1 view .LVU535
 751:STM32F10x_StdPeriph_Driver/src/stm32f10x_can.c ****   }
 1489              		.loc 1 751 37 is_stmt 0 view .LVU536
 1490 0002 C068     		ldr	r0, [r0, #12]
 1491              	.LVL77:
 751:STM32F10x_StdPeriph_Driver/src/stm32f10x_can.c ****   }
 1492              		.loc 1 751 21 view .LVU537
 1493 0004 00F00300 		and	r0, r0, #3
 1494              	.LVL78:
 751:STM32F10x_StdPeriph_Driver/src/stm32f10x_can.c ****   }
 1495              		.loc 1 751 21 view .LVU538
 1496 0008 7047     		bx	lr
 1497              	.LVL79:
 1498              	.L104:
 753:STM32F10x_StdPeriph_Driver/src/stm32f10x_can.c ****   {
 1499              		.loc 1 753 8 is_stmt 1 view .LVU539
 753:STM32F10x_StdPeriph_Driver/src/stm32f10x_can.c ****   {
 1500              		.loc 1 753 11 is_stmt 0 view .LVU540
 1501 000a 0129     		cmp	r1, #1
 1502 000c 01D0     		beq	.L107
 759:STM32F10x_StdPeriph_Driver/src/stm32f10x_can.c ****   }
 1503              		.loc 1 759 21 view .LVU541
 1504 000e 0020     		movs	r0, #0
 1505              	.LVL80:
 761:STM32F10x_StdPeriph_Driver/src/stm32f10x_can.c **** }
 1506              		.loc 1 761 3 is_stmt 1 view .LVU542
 762:STM32F10x_StdPeriph_Driver/src/stm32f10x_can.c **** 
 1507              		.loc 1 762 1 is_stmt 0 view .LVU543
 1508 0010 7047     		bx	lr
 1509              	.LVL81:
 1510              	.L107:
 755:STM32F10x_StdPeriph_Driver/src/stm32f10x_can.c ****   }
 1511              		.loc 1 755 5 is_stmt 1 view .LVU544
ARM GAS  C:\Users\kevin\AppData\Local\Temp\ccRSUIFU.s 			page 61


 755:STM32F10x_StdPeriph_Driver/src/stm32f10x_can.c ****   }
 1512              		.loc 1 755 37 is_stmt 0 view .LVU545
 1513 0012 0069     		ldr	r0, [r0, #16]
 1514              	.LVL82:
 755:STM32F10x_StdPeriph_Driver/src/stm32f10x_can.c ****   }
 1515              		.loc 1 755 21 view .LVU546
 1516 0014 00F00300 		and	r0, r0, #3
 1517              	.LVL83:
 755:STM32F10x_StdPeriph_Driver/src/stm32f10x_can.c ****   }
 1518              		.loc 1 755 21 view .LVU547
 1519 0018 7047     		bx	lr
 1520              		.cfi_endproc
 1521              	.LFE41:
 1523              		.section	.text.CAN_OperatingModeRequest,"ax",%progbits
 1524              		.align	1
 1525              		.global	CAN_OperatingModeRequest
 1526              		.syntax unified
 1527              		.thumb
 1528              		.thumb_func
 1530              	CAN_OperatingModeRequest:
 1531              	.LVL84:
 1532              	.LFB42:
 775:STM32F10x_StdPeriph_Driver/src/stm32f10x_can.c ****   uint8_t status = CAN_ModeStatus_Failed;
 1533              		.loc 1 775 1 is_stmt 1 view -0
 1534              		.cfi_startproc
 1535              		@ args = 0, pretend = 0, frame = 0
 1536              		@ frame_needed = 0, uses_anonymous_args = 0
 1537              		@ link register save eliminated.
 776:STM32F10x_StdPeriph_Driver/src/stm32f10x_can.c ****   
 1538              		.loc 1 776 3 view .LVU549
 779:STM32F10x_StdPeriph_Driver/src/stm32f10x_can.c **** 
 1539              		.loc 1 779 3 view .LVU550
 782:STM32F10x_StdPeriph_Driver/src/stm32f10x_can.c ****   assert_param(IS_CAN_OPERATING_MODE(CAN_OperatingMode));
 1540              		.loc 1 782 3 view .LVU551
 783:STM32F10x_StdPeriph_Driver/src/stm32f10x_can.c **** 
 1541              		.loc 1 783 3 view .LVU552
 785:STM32F10x_StdPeriph_Driver/src/stm32f10x_can.c ****   {
 1542              		.loc 1 785 3 view .LVU553
 785:STM32F10x_StdPeriph_Driver/src/stm32f10x_can.c ****   {
 1543              		.loc 1 785 6 is_stmt 0 view .LVU554
 1544 0000 8C46     		mov	ip, r1
 1545 0002 B1B9     		cbnz	r1, .L109
 788:STM32F10x_StdPeriph_Driver/src/stm32f10x_can.c **** 
 1546              		.loc 1 788 5 is_stmt 1 view .LVU555
 788:STM32F10x_StdPeriph_Driver/src/stm32f10x_can.c **** 
 1547              		.loc 1 788 33 is_stmt 0 view .LVU556
 1548 0004 0368     		ldr	r3, [r0]
 788:STM32F10x_StdPeriph_Driver/src/stm32f10x_can.c **** 
 1549              		.loc 1 788 17 view .LVU557
 1550 0006 23F00303 		bic	r3, r3, #3
 1551 000a 43F00103 		orr	r3, r3, #1
 788:STM32F10x_StdPeriph_Driver/src/stm32f10x_can.c **** 
 1552              		.loc 1 788 15 view .LVU558
 1553 000e 0360     		str	r3, [r0]
 791:STM32F10x_StdPeriph_Driver/src/stm32f10x_can.c ****     {
 1554              		.loc 1 791 5 is_stmt 1 view .LVU559
 779:STM32F10x_StdPeriph_Driver/src/stm32f10x_can.c **** 
ARM GAS  C:\Users\kevin\AppData\Local\Temp\ccRSUIFU.s 			page 62


 1555              		.loc 1 779 12 is_stmt 0 view .LVU560
 1556 0010 4FF6FF72 		movw	r2, #65535
 1557              	.LVL85:
 1558              	.L110:
 791:STM32F10x_StdPeriph_Driver/src/stm32f10x_can.c ****     {
 1559              		.loc 1 791 58 is_stmt 1 view .LVU561
 791:STM32F10x_StdPeriph_Driver/src/stm32f10x_can.c ****     {
 1560              		.loc 1 791 18 is_stmt 0 view .LVU562
 1561 0014 4368     		ldr	r3, [r0, #4]
 791:STM32F10x_StdPeriph_Driver/src/stm32f10x_can.c ****     {
 1562              		.loc 1 791 24 view .LVU563
 1563 0016 03F00303 		and	r3, r3, #3
 791:STM32F10x_StdPeriph_Driver/src/stm32f10x_can.c ****     {
 1564              		.loc 1 791 58 view .LVU564
 1565 001a 012B     		cmp	r3, #1
 1566 001c 02D0     		beq	.L111
 791:STM32F10x_StdPeriph_Driver/src/stm32f10x_can.c ****     {
 1567              		.loc 1 791 58 discriminator 1 view .LVU565
 1568 001e 0AB1     		cbz	r2, .L111
 793:STM32F10x_StdPeriph_Driver/src/stm32f10x_can.c ****     }
 1569              		.loc 1 793 7 is_stmt 1 view .LVU566
 793:STM32F10x_StdPeriph_Driver/src/stm32f10x_can.c ****     }
 1570              		.loc 1 793 14 is_stmt 0 view .LVU567
 1571 0020 013A     		subs	r2, r2, #1
 1572              	.LVL86:
 793:STM32F10x_StdPeriph_Driver/src/stm32f10x_can.c ****     }
 1573              		.loc 1 793 14 view .LVU568
 1574 0022 F7E7     		b	.L110
 1575              	.LVL87:
 1576              	.L111:
 795:STM32F10x_StdPeriph_Driver/src/stm32f10x_can.c ****     {
 1577              		.loc 1 795 5 is_stmt 1 view .LVU569
 795:STM32F10x_StdPeriph_Driver/src/stm32f10x_can.c ****     {
 1578              		.loc 1 795 14 is_stmt 0 view .LVU570
 1579 0024 4368     		ldr	r3, [r0, #4]
 795:STM32F10x_StdPeriph_Driver/src/stm32f10x_can.c ****     {
 1580              		.loc 1 795 20 view .LVU571
 1581 0026 03F00303 		and	r3, r3, #3
 795:STM32F10x_StdPeriph_Driver/src/stm32f10x_can.c ****     {
 1582              		.loc 1 795 8 view .LVU572
 1583 002a 012B     		cmp	r3, #1
 1584 002c 33D0     		beq	.L121
 797:STM32F10x_StdPeriph_Driver/src/stm32f10x_can.c ****     }
 1585              		.loc 1 797 14 view .LVU573
 1586 002e 6046     		mov	r0, ip
 1587              	.LVL88:
 797:STM32F10x_StdPeriph_Driver/src/stm32f10x_can.c ****     }
 1588              		.loc 1 797 14 view .LVU574
 1589 0030 7047     		bx	lr
 1590              	.LVL89:
 1591              	.L109:
 804:STM32F10x_StdPeriph_Driver/src/stm32f10x_can.c ****   {
 1592              		.loc 1 804 9 is_stmt 1 view .LVU575
 804:STM32F10x_StdPeriph_Driver/src/stm32f10x_can.c ****   {
 1593              		.loc 1 804 12 is_stmt 0 view .LVU576
 1594 0032 0129     		cmp	r1, #1
 1595 0034 03D0     		beq	.L125
ARM GAS  C:\Users\kevin\AppData\Local\Temp\ccRSUIFU.s 			page 63


 823:STM32F10x_StdPeriph_Driver/src/stm32f10x_can.c ****   {
 1596              		.loc 1 823 9 is_stmt 1 view .LVU577
 823:STM32F10x_StdPeriph_Driver/src/stm32f10x_can.c ****   {
 1597              		.loc 1 823 12 is_stmt 0 view .LVU578
 1598 0036 0229     		cmp	r1, #2
 1599 0038 15D0     		beq	.L126
 844:STM32F10x_StdPeriph_Driver/src/stm32f10x_can.c ****   }
 1600              		.loc 1 844 12 view .LVU579
 1601 003a 0020     		movs	r0, #0
 1602              	.LVL90:
 844:STM32F10x_StdPeriph_Driver/src/stm32f10x_can.c ****   }
 1603              		.loc 1 844 12 view .LVU580
 1604 003c 7047     		bx	lr
 1605              	.LVL91:
 1606              	.L125:
 807:STM32F10x_StdPeriph_Driver/src/stm32f10x_can.c **** 
 1607              		.loc 1 807 5 is_stmt 1 view .LVU581
 807:STM32F10x_StdPeriph_Driver/src/stm32f10x_can.c **** 
 1608              		.loc 1 807 9 is_stmt 0 view .LVU582
 1609 003e 0368     		ldr	r3, [r0]
 807:STM32F10x_StdPeriph_Driver/src/stm32f10x_can.c **** 
 1610              		.loc 1 807 15 view .LVU583
 1611 0040 23F00303 		bic	r3, r3, #3
 1612 0044 0360     		str	r3, [r0]
 810:STM32F10x_StdPeriph_Driver/src/stm32f10x_can.c ****     {
 1613              		.loc 1 810 5 is_stmt 1 view .LVU584
 779:STM32F10x_StdPeriph_Driver/src/stm32f10x_can.c **** 
 1614              		.loc 1 779 12 is_stmt 0 view .LVU585
 1615 0046 4FF6FF73 		movw	r3, #65535
 810:STM32F10x_StdPeriph_Driver/src/stm32f10x_can.c ****     {
 1616              		.loc 1 810 11 view .LVU586
 1617 004a 00E0     		b	.L115
 1618              	.LVL92:
 1619              	.L117:
 812:STM32F10x_StdPeriph_Driver/src/stm32f10x_can.c ****     }
 1620              		.loc 1 812 7 is_stmt 1 view .LVU587
 812:STM32F10x_StdPeriph_Driver/src/stm32f10x_can.c ****     }
 1621              		.loc 1 812 14 is_stmt 0 view .LVU588
 1622 004c 013B     		subs	r3, r3, #1
 1623              	.LVL93:
 1624              	.L115:
 810:STM32F10x_StdPeriph_Driver/src/stm32f10x_can.c ****     {
 1625              		.loc 1 810 47 is_stmt 1 view .LVU589
 810:STM32F10x_StdPeriph_Driver/src/stm32f10x_can.c ****     {
 1626              		.loc 1 810 18 is_stmt 0 view .LVU590
 1627 004e 4268     		ldr	r2, [r0, #4]
 810:STM32F10x_StdPeriph_Driver/src/stm32f10x_can.c ****     {
 1628              		.loc 1 810 47 view .LVU591
 1629 0050 12F0030F 		tst	r2, #3
 1630 0054 01D0     		beq	.L116
 810:STM32F10x_StdPeriph_Driver/src/stm32f10x_can.c ****     {
 1631              		.loc 1 810 47 discriminator 1 view .LVU592
 1632 0056 002B     		cmp	r3, #0
 1633 0058 F8D1     		bne	.L117
 1634              	.L116:
 814:STM32F10x_StdPeriph_Driver/src/stm32f10x_can.c ****     {
 1635              		.loc 1 814 5 is_stmt 1 view .LVU593
ARM GAS  C:\Users\kevin\AppData\Local\Temp\ccRSUIFU.s 			page 64


 814:STM32F10x_StdPeriph_Driver/src/stm32f10x_can.c ****     {
 1636              		.loc 1 814 14 is_stmt 0 view .LVU594
 1637 005a 4368     		ldr	r3, [r0, #4]
 1638              	.LVL94:
 814:STM32F10x_StdPeriph_Driver/src/stm32f10x_can.c ****     {
 1639              		.loc 1 814 8 view .LVU595
 1640 005c 13F0030F 		tst	r3, #3
 1641 0060 1BD0     		beq	.L122
 816:STM32F10x_StdPeriph_Driver/src/stm32f10x_can.c ****     }
 1642              		.loc 1 816 14 view .LVU596
 1643 0062 0020     		movs	r0, #0
 1644              	.LVL95:
 816:STM32F10x_StdPeriph_Driver/src/stm32f10x_can.c ****     }
 1645              		.loc 1 816 14 view .LVU597
 1646 0064 7047     		bx	lr
 1647              	.LVL96:
 1648              	.L126:
 826:STM32F10x_StdPeriph_Driver/src/stm32f10x_can.c **** 
 1649              		.loc 1 826 5 is_stmt 1 view .LVU598
 826:STM32F10x_StdPeriph_Driver/src/stm32f10x_can.c **** 
 1650              		.loc 1 826 33 is_stmt 0 view .LVU599
 1651 0066 0368     		ldr	r3, [r0]
 826:STM32F10x_StdPeriph_Driver/src/stm32f10x_can.c **** 
 1652              		.loc 1 826 17 view .LVU600
 1653 0068 23F00303 		bic	r3, r3, #3
 1654 006c 43F00203 		orr	r3, r3, #2
 826:STM32F10x_StdPeriph_Driver/src/stm32f10x_can.c **** 
 1655              		.loc 1 826 15 view .LVU601
 1656 0070 0360     		str	r3, [r0]
 829:STM32F10x_StdPeriph_Driver/src/stm32f10x_can.c ****     {
 1657              		.loc 1 829 5 is_stmt 1 view .LVU602
 779:STM32F10x_StdPeriph_Driver/src/stm32f10x_can.c **** 
 1658              		.loc 1 779 12 is_stmt 0 view .LVU603
 1659 0072 4FF6FF72 		movw	r2, #65535
 829:STM32F10x_StdPeriph_Driver/src/stm32f10x_can.c ****     {
 1660              		.loc 1 829 11 view .LVU604
 1661 0076 00E0     		b	.L118
 1662              	.LVL97:
 1663              	.L120:
 831:STM32F10x_StdPeriph_Driver/src/stm32f10x_can.c ****     }
 1664              		.loc 1 831 7 is_stmt 1 view .LVU605
 831:STM32F10x_StdPeriph_Driver/src/stm32f10x_can.c ****     }
 1665              		.loc 1 831 14 is_stmt 0 view .LVU606
 1666 0078 013A     		subs	r2, r2, #1
 1667              	.LVL98:
 1668              	.L118:
 829:STM32F10x_StdPeriph_Driver/src/stm32f10x_can.c ****     {
 1669              		.loc 1 829 58 is_stmt 1 view .LVU607
 829:STM32F10x_StdPeriph_Driver/src/stm32f10x_can.c ****     {
 1670              		.loc 1 829 18 is_stmt 0 view .LVU608
 1671 007a 4368     		ldr	r3, [r0, #4]
 829:STM32F10x_StdPeriph_Driver/src/stm32f10x_can.c ****     {
 1672              		.loc 1 829 24 view .LVU609
 1673 007c 03F00303 		and	r3, r3, #3
 829:STM32F10x_StdPeriph_Driver/src/stm32f10x_can.c ****     {
 1674              		.loc 1 829 58 view .LVU610
 1675 0080 022B     		cmp	r3, #2
ARM GAS  C:\Users\kevin\AppData\Local\Temp\ccRSUIFU.s 			page 65


 1676 0082 01D0     		beq	.L119
 829:STM32F10x_StdPeriph_Driver/src/stm32f10x_can.c ****     {
 1677              		.loc 1 829 58 discriminator 1 view .LVU611
 1678 0084 002A     		cmp	r2, #0
 1679 0086 F7D1     		bne	.L120
 1680              	.L119:
 833:STM32F10x_StdPeriph_Driver/src/stm32f10x_can.c ****     {
 1681              		.loc 1 833 5 is_stmt 1 view .LVU612
 833:STM32F10x_StdPeriph_Driver/src/stm32f10x_can.c ****     {
 1682              		.loc 1 833 14 is_stmt 0 view .LVU613
 1683 0088 4368     		ldr	r3, [r0, #4]
 833:STM32F10x_StdPeriph_Driver/src/stm32f10x_can.c ****     {
 1684              		.loc 1 833 20 view .LVU614
 1685 008a 03F00303 		and	r3, r3, #3
 833:STM32F10x_StdPeriph_Driver/src/stm32f10x_can.c ****     {
 1686              		.loc 1 833 8 view .LVU615
 1687 008e 022B     		cmp	r3, #2
 1688 0090 05D0     		beq	.L124
 835:STM32F10x_StdPeriph_Driver/src/stm32f10x_can.c ****     }
 1689              		.loc 1 835 14 view .LVU616
 1690 0092 0020     		movs	r0, #0
 1691              	.LVL99:
 835:STM32F10x_StdPeriph_Driver/src/stm32f10x_can.c ****     }
 1692              		.loc 1 835 14 view .LVU617
 1693 0094 7047     		bx	lr
 1694              	.LVL100:
 1695              	.L121:
 801:STM32F10x_StdPeriph_Driver/src/stm32f10x_can.c ****     }
 1696              		.loc 1 801 14 view .LVU618
 1697 0096 0120     		movs	r0, #1
 1698              	.LVL101:
 801:STM32F10x_StdPeriph_Driver/src/stm32f10x_can.c ****     }
 1699              		.loc 1 801 14 view .LVU619
 1700 0098 7047     		bx	lr
 1701              	.LVL102:
 1702              	.L122:
 820:STM32F10x_StdPeriph_Driver/src/stm32f10x_can.c ****     }
 1703              		.loc 1 820 14 view .LVU620
 1704 009a 6046     		mov	r0, ip
 1705              	.LVL103:
 820:STM32F10x_StdPeriph_Driver/src/stm32f10x_can.c ****     }
 1706              		.loc 1 820 14 view .LVU621
 1707 009c 7047     		bx	lr
 1708              	.LVL104:
 1709              	.L124:
 839:STM32F10x_StdPeriph_Driver/src/stm32f10x_can.c ****     }
 1710              		.loc 1 839 14 view .LVU622
 1711 009e 0120     		movs	r0, #1
 1712              	.LVL105:
 847:STM32F10x_StdPeriph_Driver/src/stm32f10x_can.c **** }
 1713              		.loc 1 847 3 is_stmt 1 view .LVU623
 848:STM32F10x_StdPeriph_Driver/src/stm32f10x_can.c **** 
 1714              		.loc 1 848 1 is_stmt 0 view .LVU624
 1715 00a0 7047     		bx	lr
 1716              		.cfi_endproc
 1717              	.LFE42:
 1719              		.section	.text.CAN_Sleep,"ax",%progbits
ARM GAS  C:\Users\kevin\AppData\Local\Temp\ccRSUIFU.s 			page 66


 1720              		.align	1
 1721              		.global	CAN_Sleep
 1722              		.syntax unified
 1723              		.thumb
 1724              		.thumb_func
 1726              	CAN_Sleep:
 1727              	.LVL106:
 1728              	.LFB43:
 857:STM32F10x_StdPeriph_Driver/src/stm32f10x_can.c ****   uint8_t sleepstatus = CAN_Sleep_Failed;
 1729              		.loc 1 857 1 is_stmt 1 view -0
 1730              		.cfi_startproc
 1731              		@ args = 0, pretend = 0, frame = 0
 1732              		@ frame_needed = 0, uses_anonymous_args = 0
 1733              		@ link register save eliminated.
 858:STM32F10x_StdPeriph_Driver/src/stm32f10x_can.c ****   
 1734              		.loc 1 858 3 view .LVU626
 861:STM32F10x_StdPeriph_Driver/src/stm32f10x_can.c ****     
 1735              		.loc 1 861 3 view .LVU627
 864:STM32F10x_StdPeriph_Driver/src/stm32f10x_can.c ****    
 1736              		.loc 1 864 4 view .LVU628
 864:STM32F10x_StdPeriph_Driver/src/stm32f10x_can.c ****    
 1737              		.loc 1 864 23 is_stmt 0 view .LVU629
 1738 0000 0368     		ldr	r3, [r0]
 864:STM32F10x_StdPeriph_Driver/src/stm32f10x_can.c ****    
 1739              		.loc 1 864 69 view .LVU630
 1740 0002 23F00303 		bic	r3, r3, #3
 1741 0006 43F00203 		orr	r3, r3, #2
 864:STM32F10x_StdPeriph_Driver/src/stm32f10x_can.c ****    
 1742              		.loc 1 864 14 view .LVU631
 1743 000a 0360     		str	r3, [r0]
 867:STM32F10x_StdPeriph_Driver/src/stm32f10x_can.c ****   {
 1744              		.loc 1 867 3 is_stmt 1 view .LVU632
 867:STM32F10x_StdPeriph_Driver/src/stm32f10x_can.c ****   {
 1745              		.loc 1 867 12 is_stmt 0 view .LVU633
 1746 000c 4368     		ldr	r3, [r0, #4]
 867:STM32F10x_StdPeriph_Driver/src/stm32f10x_can.c ****   {
 1747              		.loc 1 867 18 view .LVU634
 1748 000e 03F00303 		and	r3, r3, #3
 867:STM32F10x_StdPeriph_Driver/src/stm32f10x_can.c ****   {
 1749              		.loc 1 867 6 view .LVU635
 1750 0012 022B     		cmp	r3, #2
 1751 0014 01D0     		beq	.L129
 858:STM32F10x_StdPeriph_Driver/src/stm32f10x_can.c ****   
 1752              		.loc 1 858 11 view .LVU636
 1753 0016 0020     		movs	r0, #0
 1754              	.LVL107:
 858:STM32F10x_StdPeriph_Driver/src/stm32f10x_can.c ****   
 1755              		.loc 1 858 11 view .LVU637
 1756 0018 7047     		bx	lr
 1757              	.LVL108:
 1758              	.L129:
 870:STM32F10x_StdPeriph_Driver/src/stm32f10x_can.c ****   }
 1759              		.loc 1 870 17 view .LVU638
 1760 001a 0120     		movs	r0, #1
 1761              	.LVL109:
 873:STM32F10x_StdPeriph_Driver/src/stm32f10x_can.c **** }
 1762              		.loc 1 873 4 is_stmt 1 view .LVU639
ARM GAS  C:\Users\kevin\AppData\Local\Temp\ccRSUIFU.s 			page 67


 874:STM32F10x_StdPeriph_Driver/src/stm32f10x_can.c **** 
 1763              		.loc 1 874 1 is_stmt 0 view .LVU640
 1764 001c 7047     		bx	lr
 1765              		.cfi_endproc
 1766              	.LFE43:
 1768              		.section	.text.CAN_WakeUp,"ax",%progbits
 1769              		.align	1
 1770              		.global	CAN_WakeUp
 1771              		.syntax unified
 1772              		.thumb
 1773              		.thumb_func
 1775              	CAN_WakeUp:
 1776              	.LVL110:
 1777              	.LFB44:
 883:STM32F10x_StdPeriph_Driver/src/stm32f10x_can.c ****   uint32_t wait_slak = SLAK_TIMEOUT;
 1778              		.loc 1 883 1 is_stmt 1 view -0
 1779              		.cfi_startproc
 1780              		@ args = 0, pretend = 0, frame = 0
 1781              		@ frame_needed = 0, uses_anonymous_args = 0
 1782              		@ link register save eliminated.
 884:STM32F10x_StdPeriph_Driver/src/stm32f10x_can.c ****   uint8_t wakeupstatus = CAN_WakeUp_Failed;
 1783              		.loc 1 884 3 view .LVU642
 885:STM32F10x_StdPeriph_Driver/src/stm32f10x_can.c ****   
 1784              		.loc 1 885 3 view .LVU643
 888:STM32F10x_StdPeriph_Driver/src/stm32f10x_can.c ****     
 1785              		.loc 1 888 3 view .LVU644
 891:STM32F10x_StdPeriph_Driver/src/stm32f10x_can.c ****     
 1786              		.loc 1 891 3 view .LVU645
 891:STM32F10x_StdPeriph_Driver/src/stm32f10x_can.c ****     
 1787              		.loc 1 891 7 is_stmt 0 view .LVU646
 1788 0000 0368     		ldr	r3, [r0]
 891:STM32F10x_StdPeriph_Driver/src/stm32f10x_can.c ****     
 1789              		.loc 1 891 13 view .LVU647
 1790 0002 23F00203 		bic	r3, r3, #2
 1791 0006 0360     		str	r3, [r0]
 894:STM32F10x_StdPeriph_Driver/src/stm32f10x_can.c ****   {
 1792              		.loc 1 894 3 is_stmt 1 view .LVU648
 884:STM32F10x_StdPeriph_Driver/src/stm32f10x_can.c ****   uint8_t wakeupstatus = CAN_WakeUp_Failed;
 1793              		.loc 1 884 12 is_stmt 0 view .LVU649
 1794 0008 4FF6FF73 		movw	r3, #65535
 1795              	.LVL111:
 1796              	.L131:
 894:STM32F10x_StdPeriph_Driver/src/stm32f10x_can.c ****   {
 1797              		.loc 1 894 53 is_stmt 1 view .LVU650
 894:STM32F10x_StdPeriph_Driver/src/stm32f10x_can.c ****   {
 1798              		.loc 1 894 15 is_stmt 0 view .LVU651
 1799 000c 4268     		ldr	r2, [r0, #4]
 894:STM32F10x_StdPeriph_Driver/src/stm32f10x_can.c ****   {
 1800              		.loc 1 894 53 view .LVU652
 1801 000e 12F0020F 		tst	r2, #2
 1802 0012 02D0     		beq	.L132
 894:STM32F10x_StdPeriph_Driver/src/stm32f10x_can.c ****   {
 1803              		.loc 1 894 53 discriminator 1 view .LVU653
 1804 0014 0BB1     		cbz	r3, .L132
 896:STM32F10x_StdPeriph_Driver/src/stm32f10x_can.c ****   }
 1805              		.loc 1 896 4 is_stmt 1 view .LVU654
 896:STM32F10x_StdPeriph_Driver/src/stm32f10x_can.c ****   }
ARM GAS  C:\Users\kevin\AppData\Local\Temp\ccRSUIFU.s 			page 68


 1806              		.loc 1 896 13 is_stmt 0 view .LVU655
 1807 0016 013B     		subs	r3, r3, #1
 1808              	.LVL112:
 896:STM32F10x_StdPeriph_Driver/src/stm32f10x_can.c ****   }
 1809              		.loc 1 896 13 view .LVU656
 1810 0018 F8E7     		b	.L131
 1811              	.LVL113:
 1812              	.L132:
 898:STM32F10x_StdPeriph_Driver/src/stm32f10x_can.c ****   {
 1813              		.loc 1 898 3 is_stmt 1 view .LVU657
 898:STM32F10x_StdPeriph_Driver/src/stm32f10x_can.c ****   {
 1814              		.loc 1 898 11 is_stmt 0 view .LVU658
 1815 001a 4368     		ldr	r3, [r0, #4]
 1816              	.LVL114:
 898:STM32F10x_StdPeriph_Driver/src/stm32f10x_can.c ****   {
 1817              		.loc 1 898 5 view .LVU659
 1818 001c 13F0020F 		tst	r3, #2
 1819 0020 01D0     		beq	.L135
 885:STM32F10x_StdPeriph_Driver/src/stm32f10x_can.c ****   
 1820              		.loc 1 885 11 view .LVU660
 1821 0022 0020     		movs	r0, #0
 1822              	.LVL115:
 885:STM32F10x_StdPeriph_Driver/src/stm32f10x_can.c ****   
 1823              		.loc 1 885 11 view .LVU661
 1824 0024 7047     		bx	lr
 1825              	.LVL116:
 1826              	.L135:
 901:STM32F10x_StdPeriph_Driver/src/stm32f10x_can.c ****   }
 1827              		.loc 1 901 18 view .LVU662
 1828 0026 0120     		movs	r0, #1
 1829              	.LVL117:
 904:STM32F10x_StdPeriph_Driver/src/stm32f10x_can.c **** }
 1830              		.loc 1 904 3 is_stmt 1 view .LVU663
 905:STM32F10x_StdPeriph_Driver/src/stm32f10x_can.c **** 
 1831              		.loc 1 905 1 is_stmt 0 view .LVU664
 1832 0028 7047     		bx	lr
 1833              		.cfi_endproc
 1834              	.LFE44:
 1836              		.section	.text.CAN_GetLastErrorCode,"ax",%progbits
 1837              		.align	1
 1838              		.global	CAN_GetLastErrorCode
 1839              		.syntax unified
 1840              		.thumb
 1841              		.thumb_func
 1843              	CAN_GetLastErrorCode:
 1844              	.LVL118:
 1845              	.LFB45:
 923:STM32F10x_StdPeriph_Driver/src/stm32f10x_can.c ****   uint8_t errorcode=0;
 1846              		.loc 1 923 1 is_stmt 1 view -0
 1847              		.cfi_startproc
 1848              		@ args = 0, pretend = 0, frame = 0
 1849              		@ frame_needed = 0, uses_anonymous_args = 0
 1850              		@ link register save eliminated.
 924:STM32F10x_StdPeriph_Driver/src/stm32f10x_can.c ****   
 1851              		.loc 1 924 3 view .LVU666
 927:STM32F10x_StdPeriph_Driver/src/stm32f10x_can.c ****   
 1852              		.loc 1 927 3 view .LVU667
ARM GAS  C:\Users\kevin\AppData\Local\Temp\ccRSUIFU.s 			page 69


 930:STM32F10x_StdPeriph_Driver/src/stm32f10x_can.c ****   
 1853              		.loc 1 930 3 view .LVU668
 930:STM32F10x_StdPeriph_Driver/src/stm32f10x_can.c ****   
 1854              		.loc 1 930 30 is_stmt 0 view .LVU669
 1855 0000 8069     		ldr	r0, [r0, #24]
 1856              	.LVL119:
 933:STM32F10x_StdPeriph_Driver/src/stm32f10x_can.c **** }
 1857              		.loc 1 933 3 is_stmt 1 view .LVU670
 934:STM32F10x_StdPeriph_Driver/src/stm32f10x_can.c **** /**
 1858              		.loc 1 934 1 is_stmt 0 view .LVU671
 1859 0002 00F07000 		and	r0, r0, #112
 1860              	.LVL120:
 934:STM32F10x_StdPeriph_Driver/src/stm32f10x_can.c **** /**
 1861              		.loc 1 934 1 view .LVU672
 1862 0006 7047     		bx	lr
 1863              		.cfi_endproc
 1864              	.LFE45:
 1866              		.section	.text.CAN_GetReceiveErrorCounter,"ax",%progbits
 1867              		.align	1
 1868              		.global	CAN_GetReceiveErrorCounter
 1869              		.syntax unified
 1870              		.thumb
 1871              		.thumb_func
 1873              	CAN_GetReceiveErrorCounter:
 1874              	.LVL121:
 1875              	.LFB46:
 947:STM32F10x_StdPeriph_Driver/src/stm32f10x_can.c ****   uint8_t counter=0;
 1876              		.loc 1 947 1 is_stmt 1 view -0
 1877              		.cfi_startproc
 1878              		@ args = 0, pretend = 0, frame = 0
 1879              		@ frame_needed = 0, uses_anonymous_args = 0
 1880              		@ link register save eliminated.
 948:STM32F10x_StdPeriph_Driver/src/stm32f10x_can.c ****   
 1881              		.loc 1 948 3 view .LVU674
 951:STM32F10x_StdPeriph_Driver/src/stm32f10x_can.c ****   
 1882              		.loc 1 951 3 view .LVU675
 954:STM32F10x_StdPeriph_Driver/src/stm32f10x_can.c ****   
 1883              		.loc 1 954 3 view .LVU676
 954:STM32F10x_StdPeriph_Driver/src/stm32f10x_can.c ****   
 1884              		.loc 1 954 28 is_stmt 0 view .LVU677
 1885 0000 8069     		ldr	r0, [r0, #24]
 1886              	.LVL122:
 957:STM32F10x_StdPeriph_Driver/src/stm32f10x_can.c **** }
 1887              		.loc 1 957 3 is_stmt 1 view .LVU678
 958:STM32F10x_StdPeriph_Driver/src/stm32f10x_can.c **** 
 1888              		.loc 1 958 1 is_stmt 0 view .LVU679
 1889 0002 000E     		lsrs	r0, r0, #24
 1890              	.LVL123:
 958:STM32F10x_StdPeriph_Driver/src/stm32f10x_can.c **** 
 1891              		.loc 1 958 1 view .LVU680
 1892 0004 7047     		bx	lr
 1893              		.cfi_endproc
 1894              	.LFE46:
 1896              		.section	.text.CAN_GetLSBTransmitErrorCounter,"ax",%progbits
 1897              		.align	1
 1898              		.global	CAN_GetLSBTransmitErrorCounter
 1899              		.syntax unified
ARM GAS  C:\Users\kevin\AppData\Local\Temp\ccRSUIFU.s 			page 70


 1900              		.thumb
 1901              		.thumb_func
 1903              	CAN_GetLSBTransmitErrorCounter:
 1904              	.LVL124:
 1905              	.LFB47:
 967:STM32F10x_StdPeriph_Driver/src/stm32f10x_can.c ****   uint8_t counter=0;
 1906              		.loc 1 967 1 is_stmt 1 view -0
 1907              		.cfi_startproc
 1908              		@ args = 0, pretend = 0, frame = 0
 1909              		@ frame_needed = 0, uses_anonymous_args = 0
 1910              		@ link register save eliminated.
 968:STM32F10x_StdPeriph_Driver/src/stm32f10x_can.c ****   
 1911              		.loc 1 968 3 view .LVU682
 971:STM32F10x_StdPeriph_Driver/src/stm32f10x_can.c ****   
 1912              		.loc 1 971 3 view .LVU683
 974:STM32F10x_StdPeriph_Driver/src/stm32f10x_can.c ****   
 1913              		.loc 1 974 3 view .LVU684
 974:STM32F10x_StdPeriph_Driver/src/stm32f10x_can.c ****   
 1914              		.loc 1 974 28 is_stmt 0 view .LVU685
 1915 0000 8069     		ldr	r0, [r0, #24]
 1916              	.LVL125:
 977:STM32F10x_StdPeriph_Driver/src/stm32f10x_can.c **** }
 1917              		.loc 1 977 3 is_stmt 1 view .LVU686
 978:STM32F10x_StdPeriph_Driver/src/stm32f10x_can.c **** 
 1918              		.loc 1 978 1 is_stmt 0 view .LVU687
 1919 0002 C0F30740 		ubfx	r0, r0, #16, #8
 1920              	.LVL126:
 978:STM32F10x_StdPeriph_Driver/src/stm32f10x_can.c **** 
 1921              		.loc 1 978 1 view .LVU688
 1922 0006 7047     		bx	lr
 1923              		.cfi_endproc
 1924              	.LFE47:
 1926              		.section	.text.CAN_ITConfig,"ax",%progbits
 1927              		.align	1
 1928              		.global	CAN_ITConfig
 1929              		.syntax unified
 1930              		.thumb
 1931              		.thumb_func
 1933              	CAN_ITConfig:
 1934              	.LVL127:
 1935              	.LFB48:
1004:STM32F10x_StdPeriph_Driver/src/stm32f10x_can.c ****   /* Check the parameters */
 1936              		.loc 1 1004 1 is_stmt 1 view -0
 1937              		.cfi_startproc
 1938              		@ args = 0, pretend = 0, frame = 0
 1939              		@ frame_needed = 0, uses_anonymous_args = 0
 1940              		@ link register save eliminated.
1006:STM32F10x_StdPeriph_Driver/src/stm32f10x_can.c ****   assert_param(IS_CAN_IT(CAN_IT));
 1941              		.loc 1 1006 3 view .LVU690
1007:STM32F10x_StdPeriph_Driver/src/stm32f10x_can.c ****   assert_param(IS_FUNCTIONAL_STATE(NewState));
 1942              		.loc 1 1007 3 view .LVU691
1008:STM32F10x_StdPeriph_Driver/src/stm32f10x_can.c **** 
 1943              		.loc 1 1008 3 view .LVU692
1010:STM32F10x_StdPeriph_Driver/src/stm32f10x_can.c ****   {
 1944              		.loc 1 1010 3 view .LVU693
1010:STM32F10x_StdPeriph_Driver/src/stm32f10x_can.c ****   {
 1945              		.loc 1 1010 6 is_stmt 0 view .LVU694
ARM GAS  C:\Users\kevin\AppData\Local\Temp\ccRSUIFU.s 			page 71


 1946 0000 1AB1     		cbz	r2, .L140
1013:STM32F10x_StdPeriph_Driver/src/stm32f10x_can.c ****   }
 1947              		.loc 1 1013 5 is_stmt 1 view .LVU695
1013:STM32F10x_StdPeriph_Driver/src/stm32f10x_can.c ****   }
 1948              		.loc 1 1013 9 is_stmt 0 view .LVU696
 1949 0002 4369     		ldr	r3, [r0, #20]
1013:STM32F10x_StdPeriph_Driver/src/stm32f10x_can.c ****   }
 1950              		.loc 1 1013 15 view .LVU697
 1951 0004 0B43     		orrs	r3, r3, r1
 1952 0006 4361     		str	r3, [r0, #20]
 1953 0008 7047     		bx	lr
 1954              	.L140:
1018:STM32F10x_StdPeriph_Driver/src/stm32f10x_can.c ****   }
 1955              		.loc 1 1018 5 is_stmt 1 view .LVU698
1018:STM32F10x_StdPeriph_Driver/src/stm32f10x_can.c ****   }
 1956              		.loc 1 1018 9 is_stmt 0 view .LVU699
 1957 000a 4369     		ldr	r3, [r0, #20]
1018:STM32F10x_StdPeriph_Driver/src/stm32f10x_can.c ****   }
 1958              		.loc 1 1018 15 view .LVU700
 1959 000c 23EA0103 		bic	r3, r3, r1
 1960 0010 4361     		str	r3, [r0, #20]
1020:STM32F10x_StdPeriph_Driver/src/stm32f10x_can.c **** /**
 1961              		.loc 1 1020 1 view .LVU701
 1962 0012 7047     		bx	lr
 1963              		.cfi_endproc
 1964              	.LFE48:
 1966              		.section	.text.CAN_GetFlagStatus,"ax",%progbits
 1967              		.align	1
 1968              		.global	CAN_GetFlagStatus
 1969              		.syntax unified
 1970              		.thumb
 1971              		.thumb_func
 1973              	CAN_GetFlagStatus:
 1974              	.LVL128:
 1975              	.LFB49:
1044:STM32F10x_StdPeriph_Driver/src/stm32f10x_can.c ****   FlagStatus bitstatus = RESET;
 1976              		.loc 1 1044 1 is_stmt 1 view -0
 1977              		.cfi_startproc
 1978              		@ args = 0, pretend = 0, frame = 0
 1979              		@ frame_needed = 0, uses_anonymous_args = 0
 1980              		@ link register save eliminated.
1045:STM32F10x_StdPeriph_Driver/src/stm32f10x_can.c ****   
 1981              		.loc 1 1045 3 view .LVU703
1048:STM32F10x_StdPeriph_Driver/src/stm32f10x_can.c ****   assert_param(IS_CAN_GET_FLAG(CAN_FLAG));
 1982              		.loc 1 1048 3 view .LVU704
1049:STM32F10x_StdPeriph_Driver/src/stm32f10x_can.c ****   
 1983              		.loc 1 1049 3 view .LVU705
1052:STM32F10x_StdPeriph_Driver/src/stm32f10x_can.c ****   { 
 1984              		.loc 1 1052 3 view .LVU706
1052:STM32F10x_StdPeriph_Driver/src/stm32f10x_can.c ****   { 
 1985              		.loc 1 1052 5 is_stmt 0 view .LVU707
 1986 0000 11F4700F 		tst	r1, #15728640
 1987 0004 06D0     		beq	.L143
1055:STM32F10x_StdPeriph_Driver/src/stm32f10x_can.c ****     { 
 1988              		.loc 1 1055 5 is_stmt 1 view .LVU708
1055:STM32F10x_StdPeriph_Driver/src/stm32f10x_can.c ****     { 
 1989              		.loc 1 1055 14 is_stmt 0 view .LVU709
ARM GAS  C:\Users\kevin\AppData\Local\Temp\ccRSUIFU.s 			page 72


 1990 0006 8369     		ldr	r3, [r0, #24]
1055:STM32F10x_StdPeriph_Driver/src/stm32f10x_can.c ****     { 
 1991              		.loc 1 1055 20 view .LVU710
 1992 0008 0B40     		ands	r3, r3, r1
 1993 000a C3F31303 		ubfx	r3, r3, #0, #20
1055:STM32F10x_StdPeriph_Driver/src/stm32f10x_can.c ****     { 
 1994              		.loc 1 1055 8 view .LVU711
 1995 000e 33B3     		cbz	r3, .L148
1058:STM32F10x_StdPeriph_Driver/src/stm32f10x_can.c ****     }
 1996              		.loc 1 1058 17 view .LVU712
 1997 0010 0120     		movs	r0, #1
 1998              	.LVL129:
1058:STM32F10x_StdPeriph_Driver/src/stm32f10x_can.c ****     }
 1999              		.loc 1 1058 17 view .LVU713
 2000 0012 7047     		bx	lr
 2001              	.LVL130:
 2002              	.L143:
1066:STM32F10x_StdPeriph_Driver/src/stm32f10x_can.c ****   { 
 2003              		.loc 1 1066 8 is_stmt 1 view .LVU714
1066:STM32F10x_StdPeriph_Driver/src/stm32f10x_can.c ****   { 
 2004              		.loc 1 1066 10 is_stmt 0 view .LVU715
 2005 0014 11F0807F 		tst	r1, #16777216
 2006 0018 06D0     		beq	.L145
1069:STM32F10x_StdPeriph_Driver/src/stm32f10x_can.c ****     { 
 2007              		.loc 1 1069 5 is_stmt 1 view .LVU716
1069:STM32F10x_StdPeriph_Driver/src/stm32f10x_can.c ****     { 
 2008              		.loc 1 1069 14 is_stmt 0 view .LVU717
 2009 001a 4368     		ldr	r3, [r0, #4]
1069:STM32F10x_StdPeriph_Driver/src/stm32f10x_can.c ****     { 
 2010              		.loc 1 1069 20 view .LVU718
 2011 001c 0B40     		ands	r3, r3, r1
 2012 001e C3F31303 		ubfx	r3, r3, #0, #20
1069:STM32F10x_StdPeriph_Driver/src/stm32f10x_can.c ****     { 
 2013              		.loc 1 1069 8 view .LVU719
 2014 0022 F3B1     		cbz	r3, .L149
1072:STM32F10x_StdPeriph_Driver/src/stm32f10x_can.c ****     }
 2015              		.loc 1 1072 17 view .LVU720
 2016 0024 0120     		movs	r0, #1
 2017              	.LVL131:
1072:STM32F10x_StdPeriph_Driver/src/stm32f10x_can.c ****     }
 2018              		.loc 1 1072 17 view .LVU721
 2019 0026 7047     		bx	lr
 2020              	.LVL132:
 2021              	.L145:
1080:STM32F10x_StdPeriph_Driver/src/stm32f10x_can.c ****   { 
 2022              		.loc 1 1080 8 is_stmt 1 view .LVU722
1080:STM32F10x_StdPeriph_Driver/src/stm32f10x_can.c ****   { 
 2023              		.loc 1 1080 10 is_stmt 0 view .LVU723
 2024 0028 11F0006F 		tst	r1, #134217728
 2025 002c 06D0     		beq	.L146
1083:STM32F10x_StdPeriph_Driver/src/stm32f10x_can.c ****     { 
 2026              		.loc 1 1083 5 is_stmt 1 view .LVU724
1083:STM32F10x_StdPeriph_Driver/src/stm32f10x_can.c ****     { 
 2027              		.loc 1 1083 14 is_stmt 0 view .LVU725
 2028 002e 8368     		ldr	r3, [r0, #8]
1083:STM32F10x_StdPeriph_Driver/src/stm32f10x_can.c ****     { 
 2029              		.loc 1 1083 20 view .LVU726
ARM GAS  C:\Users\kevin\AppData\Local\Temp\ccRSUIFU.s 			page 73


 2030 0030 0B40     		ands	r3, r3, r1
 2031 0032 C3F31303 		ubfx	r3, r3, #0, #20
1083:STM32F10x_StdPeriph_Driver/src/stm32f10x_can.c ****     { 
 2032              		.loc 1 1083 8 view .LVU727
 2033 0036 B3B1     		cbz	r3, .L150
1086:STM32F10x_StdPeriph_Driver/src/stm32f10x_can.c ****     }
 2034              		.loc 1 1086 17 view .LVU728
 2035 0038 0120     		movs	r0, #1
 2036              	.LVL133:
1086:STM32F10x_StdPeriph_Driver/src/stm32f10x_can.c ****     }
 2037              		.loc 1 1086 17 view .LVU729
 2038 003a 7047     		bx	lr
 2039              	.LVL134:
 2040              	.L146:
1094:STM32F10x_StdPeriph_Driver/src/stm32f10x_can.c ****   { 
 2041              		.loc 1 1094 8 is_stmt 1 view .LVU730
1094:STM32F10x_StdPeriph_Driver/src/stm32f10x_can.c ****   { 
 2042              		.loc 1 1094 10 is_stmt 0 view .LVU731
 2043 003c 11F0007F 		tst	r1, #33554432
 2044 0040 06D0     		beq	.L147
1097:STM32F10x_StdPeriph_Driver/src/stm32f10x_can.c ****     { 
 2045              		.loc 1 1097 5 is_stmt 1 view .LVU732
1097:STM32F10x_StdPeriph_Driver/src/stm32f10x_can.c ****     { 
 2046              		.loc 1 1097 14 is_stmt 0 view .LVU733
 2047 0042 C368     		ldr	r3, [r0, #12]
1097:STM32F10x_StdPeriph_Driver/src/stm32f10x_can.c ****     { 
 2048              		.loc 1 1097 21 view .LVU734
 2049 0044 0B40     		ands	r3, r3, r1
 2050 0046 C3F31303 		ubfx	r3, r3, #0, #20
1097:STM32F10x_StdPeriph_Driver/src/stm32f10x_can.c ****     { 
 2051              		.loc 1 1097 8 view .LVU735
 2052 004a 73B1     		cbz	r3, .L151
1100:STM32F10x_StdPeriph_Driver/src/stm32f10x_can.c ****     }
 2053              		.loc 1 1100 17 view .LVU736
 2054 004c 0120     		movs	r0, #1
 2055              	.LVL135:
1100:STM32F10x_StdPeriph_Driver/src/stm32f10x_can.c ****     }
 2056              		.loc 1 1100 17 view .LVU737
 2057 004e 7047     		bx	lr
 2058              	.LVL136:
 2059              	.L147:
1111:STM32F10x_StdPeriph_Driver/src/stm32f10x_can.c ****     { 
 2060              		.loc 1 1111 5 is_stmt 1 view .LVU738
1111:STM32F10x_StdPeriph_Driver/src/stm32f10x_can.c ****     { 
 2061              		.loc 1 1111 24 is_stmt 0 view .LVU739
 2062 0050 0369     		ldr	r3, [r0, #16]
1111:STM32F10x_StdPeriph_Driver/src/stm32f10x_can.c ****     { 
 2063              		.loc 1 1111 9 view .LVU740
 2064 0052 0B40     		ands	r3, r3, r1
 2065 0054 C3F31303 		ubfx	r3, r3, #0, #20
1111:STM32F10x_StdPeriph_Driver/src/stm32f10x_can.c ****     { 
 2066              		.loc 1 1111 8 view .LVU741
 2067 0058 4BB1     		cbz	r3, .L152
1114:STM32F10x_StdPeriph_Driver/src/stm32f10x_can.c ****     }
 2068              		.loc 1 1114 17 view .LVU742
 2069 005a 0120     		movs	r0, #1
 2070              	.LVL137:
ARM GAS  C:\Users\kevin\AppData\Local\Temp\ccRSUIFU.s 			page 74


1114:STM32F10x_StdPeriph_Driver/src/stm32f10x_can.c ****     }
 2071              		.loc 1 1114 17 view .LVU743
 2072 005c 7047     		bx	lr
 2073              	.LVL138:
 2074              	.L148:
1063:STM32F10x_StdPeriph_Driver/src/stm32f10x_can.c ****     }
 2075              		.loc 1 1063 17 view .LVU744
 2076 005e 0020     		movs	r0, #0
 2077              	.LVL139:
1063:STM32F10x_StdPeriph_Driver/src/stm32f10x_can.c ****     }
 2078              		.loc 1 1063 17 view .LVU745
 2079 0060 7047     		bx	lr
 2080              	.LVL140:
 2081              	.L149:
1077:STM32F10x_StdPeriph_Driver/src/stm32f10x_can.c ****     }
 2082              		.loc 1 1077 17 view .LVU746
 2083 0062 0020     		movs	r0, #0
 2084              	.LVL141:
1077:STM32F10x_StdPeriph_Driver/src/stm32f10x_can.c ****     }
 2085              		.loc 1 1077 17 view .LVU747
 2086 0064 7047     		bx	lr
 2087              	.LVL142:
 2088              	.L150:
1091:STM32F10x_StdPeriph_Driver/src/stm32f10x_can.c ****     }
 2089              		.loc 1 1091 17 view .LVU748
 2090 0066 0020     		movs	r0, #0
 2091              	.LVL143:
1091:STM32F10x_StdPeriph_Driver/src/stm32f10x_can.c ****     }
 2092              		.loc 1 1091 17 view .LVU749
 2093 0068 7047     		bx	lr
 2094              	.LVL144:
 2095              	.L151:
1105:STM32F10x_StdPeriph_Driver/src/stm32f10x_can.c ****     }
 2096              		.loc 1 1105 17 view .LVU750
 2097 006a 0020     		movs	r0, #0
 2098              	.LVL145:
1105:STM32F10x_StdPeriph_Driver/src/stm32f10x_can.c ****     }
 2099              		.loc 1 1105 17 view .LVU751
 2100 006c 7047     		bx	lr
 2101              	.LVL146:
 2102              	.L152:
1119:STM32F10x_StdPeriph_Driver/src/stm32f10x_can.c ****     }
 2103              		.loc 1 1119 17 view .LVU752
 2104 006e 0020     		movs	r0, #0
 2105              	.LVL147:
1123:STM32F10x_StdPeriph_Driver/src/stm32f10x_can.c **** }
 2106              		.loc 1 1123 3 is_stmt 1 view .LVU753
1124:STM32F10x_StdPeriph_Driver/src/stm32f10x_can.c **** 
 2107              		.loc 1 1124 1 is_stmt 0 view .LVU754
 2108 0070 7047     		bx	lr
 2109              		.cfi_endproc
 2110              	.LFE49:
 2112              		.section	.text.CAN_ClearFlag,"ax",%progbits
 2113              		.align	1
 2114              		.global	CAN_ClearFlag
 2115              		.syntax unified
 2116              		.thumb
ARM GAS  C:\Users\kevin\AppData\Local\Temp\ccRSUIFU.s 			page 75


 2117              		.thumb_func
 2119              	CAN_ClearFlag:
 2120              	.LVL148:
 2121              	.LFB50:
1144:STM32F10x_StdPeriph_Driver/src/stm32f10x_can.c ****   uint32_t flagtmp=0;
 2122              		.loc 1 1144 1 is_stmt 1 view -0
 2123              		.cfi_startproc
 2124              		@ args = 0, pretend = 0, frame = 0
 2125              		@ frame_needed = 0, uses_anonymous_args = 0
 2126              		@ link register save eliminated.
1145:STM32F10x_StdPeriph_Driver/src/stm32f10x_can.c ****   /* Check the parameters */
 2127              		.loc 1 1145 3 view .LVU756
1147:STM32F10x_StdPeriph_Driver/src/stm32f10x_can.c ****   assert_param(IS_CAN_CLEAR_FLAG(CAN_FLAG));
 2128              		.loc 1 1147 3 view .LVU757
1148:STM32F10x_StdPeriph_Driver/src/stm32f10x_can.c ****   
 2129              		.loc 1 1148 3 view .LVU758
1150:STM32F10x_StdPeriph_Driver/src/stm32f10x_can.c ****   {
 2130              		.loc 1 1150 3 view .LVU759
1150:STM32F10x_StdPeriph_Driver/src/stm32f10x_can.c ****   {
 2131              		.loc 1 1150 6 is_stmt 0 view .LVU760
 2132 0000 0C4B     		ldr	r3, .L160
 2133 0002 9942     		cmp	r1, r3
 2134 0004 06D0     		beq	.L159
1157:STM32F10x_StdPeriph_Driver/src/stm32f10x_can.c **** 
 2135              		.loc 1 1157 5 is_stmt 1 view .LVU761
1157:STM32F10x_StdPeriph_Driver/src/stm32f10x_can.c **** 
 2136              		.loc 1 1157 13 is_stmt 0 view .LVU762
 2137 0006 C1F31303 		ubfx	r3, r1, #0, #20
 2138              	.LVL149:
1159:STM32F10x_StdPeriph_Driver/src/stm32f10x_can.c ****     {
 2139              		.loc 1 1159 5 is_stmt 1 view .LVU763
1159:STM32F10x_StdPeriph_Driver/src/stm32f10x_can.c ****     {
 2140              		.loc 1 1159 8 is_stmt 0 view .LVU764
 2141 000a 11F0007F 		tst	r1, #33554432
 2142 000e 04D0     		beq	.L156
1162:STM32F10x_StdPeriph_Driver/src/stm32f10x_can.c ****     }
 2143              		.loc 1 1162 7 is_stmt 1 view .LVU765
1162:STM32F10x_StdPeriph_Driver/src/stm32f10x_can.c ****     }
 2144              		.loc 1 1162 18 is_stmt 0 view .LVU766
 2145 0010 C360     		str	r3, [r0, #12]
 2146 0012 7047     		bx	lr
 2147              	.LVL150:
 2148              	.L159:
1153:STM32F10x_StdPeriph_Driver/src/stm32f10x_can.c ****   }
 2149              		.loc 1 1153 5 is_stmt 1 view .LVU767
1153:STM32F10x_StdPeriph_Driver/src/stm32f10x_can.c ****   }
 2150              		.loc 1 1153 15 is_stmt 0 view .LVU768
 2151 0014 0023     		movs	r3, #0
 2152 0016 8361     		str	r3, [r0, #24]
 2153 0018 7047     		bx	lr
 2154              	.LVL151:
 2155              	.L156:
1164:STM32F10x_StdPeriph_Driver/src/stm32f10x_can.c ****     {
 2156              		.loc 1 1164 10 is_stmt 1 view .LVU769
1164:STM32F10x_StdPeriph_Driver/src/stm32f10x_can.c ****     {
 2157              		.loc 1 1164 13 is_stmt 0 view .LVU770
 2158 001a 11F0806F 		tst	r1, #67108864
ARM GAS  C:\Users\kevin\AppData\Local\Temp\ccRSUIFU.s 			page 76


 2159 001e 01D0     		beq	.L157
1167:STM32F10x_StdPeriph_Driver/src/stm32f10x_can.c ****     }
 2160              		.loc 1 1167 7 is_stmt 1 view .LVU771
1167:STM32F10x_StdPeriph_Driver/src/stm32f10x_can.c ****     }
 2161              		.loc 1 1167 18 is_stmt 0 view .LVU772
 2162 0020 0361     		str	r3, [r0, #16]
 2163 0022 7047     		bx	lr
 2164              	.L157:
1169:STM32F10x_StdPeriph_Driver/src/stm32f10x_can.c ****     {
 2165              		.loc 1 1169 10 is_stmt 1 view .LVU773
1169:STM32F10x_StdPeriph_Driver/src/stm32f10x_can.c ****     {
 2166              		.loc 1 1169 13 is_stmt 0 view .LVU774
 2167 0024 11F0006F 		tst	r1, #134217728
 2168 0028 01D0     		beq	.L158
1172:STM32F10x_StdPeriph_Driver/src/stm32f10x_can.c ****     }
 2169              		.loc 1 1172 7 is_stmt 1 view .LVU775
1172:STM32F10x_StdPeriph_Driver/src/stm32f10x_can.c ****     }
 2170              		.loc 1 1172 17 is_stmt 0 view .LVU776
 2171 002a 8360     		str	r3, [r0, #8]
 2172 002c 7047     		bx	lr
 2173              	.L158:
1177:STM32F10x_StdPeriph_Driver/src/stm32f10x_can.c ****     }
 2174              		.loc 1 1177 7 is_stmt 1 view .LVU777
1177:STM32F10x_StdPeriph_Driver/src/stm32f10x_can.c ****     }
 2175              		.loc 1 1177 17 is_stmt 0 view .LVU778
 2176 002e 4360     		str	r3, [r0, #4]
1180:STM32F10x_StdPeriph_Driver/src/stm32f10x_can.c **** 
 2177              		.loc 1 1180 1 view .LVU779
 2178 0030 7047     		bx	lr
 2179              	.L161:
 2180 0032 00BF     		.align	2
 2181              	.L160:
 2182 0034 7000F030 		.word	821035120
 2183              		.cfi_endproc
 2184              	.LFE50:
 2186              		.section	.text.CAN_GetITStatus,"ax",%progbits
 2187              		.align	1
 2188              		.global	CAN_GetITStatus
 2189              		.syntax unified
 2190              		.thumb
 2191              		.thumb_func
 2193              	CAN_GetITStatus:
 2194              	.LVL152:
 2195              	.LFB51:
1204:STM32F10x_StdPeriph_Driver/src/stm32f10x_can.c ****   ITStatus itstatus = RESET;
 2196              		.loc 1 1204 1 is_stmt 1 view -0
 2197              		.cfi_startproc
 2198              		@ args = 0, pretend = 0, frame = 0
 2199              		@ frame_needed = 0, uses_anonymous_args = 0
1204:STM32F10x_StdPeriph_Driver/src/stm32f10x_can.c ****   ITStatus itstatus = RESET;
 2200              		.loc 1 1204 1 is_stmt 0 view .LVU781
 2201 0000 08B5     		push	{r3, lr}
 2202              	.LCFI9:
 2203              		.cfi_def_cfa_offset 8
 2204              		.cfi_offset 3, -8
 2205              		.cfi_offset 14, -4
1205:STM32F10x_StdPeriph_Driver/src/stm32f10x_can.c ****   /* Check the parameters */
ARM GAS  C:\Users\kevin\AppData\Local\Temp\ccRSUIFU.s 			page 77


 2206              		.loc 1 1205 3 is_stmt 1 view .LVU782
 2207              	.LVL153:
1207:STM32F10x_StdPeriph_Driver/src/stm32f10x_can.c ****   assert_param(IS_CAN_IT(CAN_IT));
 2208              		.loc 1 1207 3 view .LVU783
1208:STM32F10x_StdPeriph_Driver/src/stm32f10x_can.c ****   
 2209              		.loc 1 1208 3 view .LVU784
1211:STM32F10x_StdPeriph_Driver/src/stm32f10x_can.c ****  {
 2210              		.loc 1 1211 2 view .LVU785
1211:STM32F10x_StdPeriph_Driver/src/stm32f10x_can.c ****  {
 2211              		.loc 1 1211 10 is_stmt 0 view .LVU786
 2212 0002 4369     		ldr	r3, [r0, #20]
1211:STM32F10x_StdPeriph_Driver/src/stm32f10x_can.c ****  {
 2213              		.loc 1 1211 4 view .LVU787
 2214 0004 0B42     		tst	r3, r1
 2215 0006 7DD0     		beq	.L182
1214:STM32F10x_StdPeriph_Driver/src/stm32f10x_can.c ****     {
 2216              		.loc 1 1214 5 is_stmt 1 view .LVU788
 2217 0008 B1F5807F 		cmp	r1, #256
 2218 000c 66D0     		beq	.L164
 2219 000e 21D8     		bhi	.L165
 2220 0010 2029     		cmp	r1, #32
 2221 0012 16D8     		bhi	.L166
 2222 0014 0029     		cmp	r1, #0
 2223 0016 77D0     		beq	.L183
 2224 0018 0139     		subs	r1, r1, #1
 2225              	.LVL154:
1214:STM32F10x_StdPeriph_Driver/src/stm32f10x_can.c ****     {
 2226              		.loc 1 1214 5 is_stmt 0 view .LVU789
 2227 001a 1F29     		cmp	r1, #31
 2228 001c 76D8     		bhi	.L184
 2229 001e DFE801F0 		tbb	[pc, r1]
 2230              	.L168:
 2231 0022 3A       		.byte	(.L173-.L168)/2
 2232 0023 3F       		.byte	(.L172-.L168)/2
 2233 0024 75       		.byte	(.L184-.L168)/2
 2234 0025 44       		.byte	(.L171-.L168)/2
 2235 0026 75       		.byte	(.L184-.L168)/2
 2236 0027 75       		.byte	(.L184-.L168)/2
 2237 0028 75       		.byte	(.L184-.L168)/2
 2238 0029 49       		.byte	(.L170-.L168)/2
 2239 002a 75       		.byte	(.L184-.L168)/2
 2240 002b 75       		.byte	(.L184-.L168)/2
 2241 002c 75       		.byte	(.L184-.L168)/2
 2242 002d 75       		.byte	(.L184-.L168)/2
 2243 002e 75       		.byte	(.L184-.L168)/2
 2244 002f 75       		.byte	(.L184-.L168)/2
 2245 0030 75       		.byte	(.L184-.L168)/2
 2246 0031 4E       		.byte	(.L169-.L168)/2
 2247 0032 75       		.byte	(.L184-.L168)/2
 2248 0033 75       		.byte	(.L184-.L168)/2
 2249 0034 75       		.byte	(.L184-.L168)/2
 2250 0035 75       		.byte	(.L184-.L168)/2
 2251 0036 75       		.byte	(.L184-.L168)/2
 2252 0037 75       		.byte	(.L184-.L168)/2
 2253 0038 75       		.byte	(.L184-.L168)/2
 2254 0039 75       		.byte	(.L184-.L168)/2
 2255 003a 75       		.byte	(.L184-.L168)/2
ARM GAS  C:\Users\kevin\AppData\Local\Temp\ccRSUIFU.s 			page 78


 2256 003b 75       		.byte	(.L184-.L168)/2
 2257 003c 75       		.byte	(.L184-.L168)/2
 2258 003d 75       		.byte	(.L184-.L168)/2
 2259 003e 75       		.byte	(.L184-.L168)/2
 2260 003f 75       		.byte	(.L184-.L168)/2
 2261 0040 75       		.byte	(.L184-.L168)/2
 2262 0041 53       		.byte	(.L167-.L168)/2
 2263              	.LVL155:
 2264              		.p2align 1
 2265              	.L166:
1214:STM32F10x_StdPeriph_Driver/src/stm32f10x_can.c ****     {
 2266              		.loc 1 1214 5 view .LVU790
 2267 0042 4029     		cmp	r1, #64
 2268 0044 04D1     		bne	.L186
1242:STM32F10x_StdPeriph_Driver/src/stm32f10x_can.c **** 	      break;
 2269              		.loc 1 1242 15 is_stmt 1 view .LVU791
1242:STM32F10x_StdPeriph_Driver/src/stm32f10x_can.c **** 	      break;
 2270              		.loc 1 1242 44 is_stmt 0 view .LVU792
 2271 0046 0069     		ldr	r0, [r0, #16]
 2272              	.LVL156:
1242:STM32F10x_StdPeriph_Driver/src/stm32f10x_can.c **** 	      break;
 2273              		.loc 1 1242 26 view .LVU793
 2274 0048 1021     		movs	r1, #16
 2275              	.LVL157:
1242:STM32F10x_StdPeriph_Driver/src/stm32f10x_can.c **** 	      break;
 2276              		.loc 1 1242 26 view .LVU794
 2277 004a FFF7FEFF 		bl	CheckITStatus
 2278              	.LVL158:
1243:STM32F10x_StdPeriph_Driver/src/stm32f10x_can.c ****       case CAN_IT_WKU:
 2279              		.loc 1 1243 8 is_stmt 1 view .LVU795
 2280 004e 5AE0     		b	.L163
 2281              	.LVL159:
 2282              	.L186:
1214:STM32F10x_StdPeriph_Driver/src/stm32f10x_can.c ****     {
 2283              		.loc 1 1214 5 is_stmt 0 view .LVU796
 2284 0050 0020     		movs	r0, #0
 2285              	.LVL160:
1214:STM32F10x_StdPeriph_Driver/src/stm32f10x_can.c ****     {
 2286              		.loc 1 1214 5 view .LVU797
 2287 0052 58E0     		b	.L163
 2288              	.LVL161:
 2289              	.L165:
1214:STM32F10x_StdPeriph_Driver/src/stm32f10x_can.c ****     {
 2290              		.loc 1 1214 5 view .LVU798
 2291 0054 B1F5004F 		cmp	r1, #32768
 2292 0058 4FD0     		beq	.L175
 2293 005a 0FD8     		bhi	.L176
 2294 005c B1F5806F 		cmp	r1, #1024
 2295 0060 41D0     		beq	.L177
 2296 0062 B1F5006F 		cmp	r1, #2048
 2297 0066 43D0     		beq	.L178
 2298 0068 B1F5007F 		cmp	r1, #512
 2299 006c 04D1     		bne	.L187
1258:STM32F10x_StdPeriph_Driver/src/stm32f10x_can.c **** 	      break;
 2300              		.loc 1 1258 15 is_stmt 1 view .LVU799
1258:STM32F10x_StdPeriph_Driver/src/stm32f10x_can.c **** 	      break;
 2301              		.loc 1 1258 44 is_stmt 0 view .LVU800
ARM GAS  C:\Users\kevin\AppData\Local\Temp\ccRSUIFU.s 			page 79


 2302 006e 8069     		ldr	r0, [r0, #24]
 2303              	.LVL162:
1258:STM32F10x_StdPeriph_Driver/src/stm32f10x_can.c **** 	      break;
 2304              		.loc 1 1258 26 view .LVU801
 2305 0070 0221     		movs	r1, #2
 2306              	.LVL163:
1258:STM32F10x_StdPeriph_Driver/src/stm32f10x_can.c **** 	      break;
 2307              		.loc 1 1258 26 view .LVU802
 2308 0072 FFF7FEFF 		bl	CheckITStatus
 2309              	.LVL164:
1259:STM32F10x_StdPeriph_Driver/src/stm32f10x_can.c ****       case CAN_IT_BOF:
 2310              		.loc 1 1259 8 is_stmt 1 view .LVU803
 2311 0076 46E0     		b	.L163
 2312              	.LVL165:
 2313              	.L187:
1214:STM32F10x_StdPeriph_Driver/src/stm32f10x_can.c ****     {
 2314              		.loc 1 1214 5 is_stmt 0 view .LVU804
 2315 0078 0020     		movs	r0, #0
 2316              	.LVL166:
1214:STM32F10x_StdPeriph_Driver/src/stm32f10x_can.c ****     {
 2317              		.loc 1 1214 5 view .LVU805
 2318 007a 44E0     		b	.L163
 2319              	.LVL167:
 2320              	.L176:
1214:STM32F10x_StdPeriph_Driver/src/stm32f10x_can.c ****     {
 2321              		.loc 1 1214 5 view .LVU806
 2322 007c B1F5803F 		cmp	r1, #65536
 2323 0080 27D0     		beq	.L180
 2324 0082 B1F5003F 		cmp	r1, #131072
 2325 0086 04D1     		bne	.L188
1250:STM32F10x_StdPeriph_Driver/src/stm32f10x_can.c **** 	      break;
 2326              		.loc 1 1250 15 is_stmt 1 view .LVU807
1250:STM32F10x_StdPeriph_Driver/src/stm32f10x_can.c **** 	      break;
 2327              		.loc 1 1250 44 is_stmt 0 view .LVU808
 2328 0088 4068     		ldr	r0, [r0, #4]
 2329              	.LVL168:
1250:STM32F10x_StdPeriph_Driver/src/stm32f10x_can.c **** 	      break;
 2330              		.loc 1 1250 26 view .LVU809
 2331 008a 1021     		movs	r1, #16
 2332              	.LVL169:
1250:STM32F10x_StdPeriph_Driver/src/stm32f10x_can.c **** 	      break;
 2333              		.loc 1 1250 26 view .LVU810
 2334 008c FFF7FEFF 		bl	CheckITStatus
 2335              	.LVL170:
1251:STM32F10x_StdPeriph_Driver/src/stm32f10x_can.c ****       case CAN_IT_EWG:
 2336              		.loc 1 1251 8 is_stmt 1 view .LVU811
 2337 0090 39E0     		b	.L163
 2338              	.LVL171:
 2339              	.L188:
1214:STM32F10x_StdPeriph_Driver/src/stm32f10x_can.c ****     {
 2340              		.loc 1 1214 5 is_stmt 0 view .LVU812
 2341 0092 0020     		movs	r0, #0
 2342              	.LVL172:
1214:STM32F10x_StdPeriph_Driver/src/stm32f10x_can.c ****     {
 2343              		.loc 1 1214 5 view .LVU813
 2344 0094 37E0     		b	.L163
 2345              	.LVL173:
ARM GAS  C:\Users\kevin\AppData\Local\Temp\ccRSUIFU.s 			page 80


 2346              	.L173:
1218:STM32F10x_StdPeriph_Driver/src/stm32f10x_can.c **** 	      break;
 2347              		.loc 1 1218 15 is_stmt 1 view .LVU814
1218:STM32F10x_StdPeriph_Driver/src/stm32f10x_can.c **** 	      break;
 2348              		.loc 1 1218 44 is_stmt 0 view .LVU815
 2349 0096 8068     		ldr	r0, [r0, #8]
 2350              	.LVL174:
1218:STM32F10x_StdPeriph_Driver/src/stm32f10x_can.c **** 	      break;
 2351              		.loc 1 1218 26 view .LVU816
 2352 0098 1D49     		ldr	r1, .L189
 2353              	.LVL175:
1218:STM32F10x_StdPeriph_Driver/src/stm32f10x_can.c **** 	      break;
 2354              		.loc 1 1218 26 view .LVU817
 2355 009a FFF7FEFF 		bl	CheckITStatus
 2356              	.LVL176:
1219:STM32F10x_StdPeriph_Driver/src/stm32f10x_can.c ****       case CAN_IT_FMP0:
 2357              		.loc 1 1219 8 is_stmt 1 view .LVU818
 2358 009e 32E0     		b	.L163
 2359              	.LVL177:
 2360              	.L172:
1222:STM32F10x_StdPeriph_Driver/src/stm32f10x_can.c **** 	      break;
 2361              		.loc 1 1222 15 view .LVU819
1222:STM32F10x_StdPeriph_Driver/src/stm32f10x_can.c **** 	      break;
 2362              		.loc 1 1222 44 is_stmt 0 view .LVU820
 2363 00a0 C068     		ldr	r0, [r0, #12]
 2364              	.LVL178:
1222:STM32F10x_StdPeriph_Driver/src/stm32f10x_can.c **** 	      break;
 2365              		.loc 1 1222 26 view .LVU821
 2366 00a2 0321     		movs	r1, #3
 2367 00a4 FFF7FEFF 		bl	CheckITStatus
 2368              	.LVL179:
1223:STM32F10x_StdPeriph_Driver/src/stm32f10x_can.c ****       case CAN_IT_FF0:
 2369              		.loc 1 1223 8 is_stmt 1 view .LVU822
 2370 00a8 2DE0     		b	.L163
 2371              	.LVL180:
 2372              	.L171:
1226:STM32F10x_StdPeriph_Driver/src/stm32f10x_can.c **** 	      break;
 2373              		.loc 1 1226 16 view .LVU823
1226:STM32F10x_StdPeriph_Driver/src/stm32f10x_can.c **** 	      break;
 2374              		.loc 1 1226 45 is_stmt 0 view .LVU824
 2375 00aa C068     		ldr	r0, [r0, #12]
 2376              	.LVL181:
1226:STM32F10x_StdPeriph_Driver/src/stm32f10x_can.c **** 	      break;
 2377              		.loc 1 1226 27 view .LVU825
 2378 00ac 0821     		movs	r1, #8
 2379 00ae FFF7FEFF 		bl	CheckITStatus
 2380              	.LVL182:
1227:STM32F10x_StdPeriph_Driver/src/stm32f10x_can.c ****       case CAN_IT_FOV0:
 2381              		.loc 1 1227 8 is_stmt 1 view .LVU826
 2382 00b2 28E0     		b	.L163
 2383              	.LVL183:
 2384              	.L170:
1230:STM32F10x_StdPeriph_Driver/src/stm32f10x_can.c **** 	      break;
 2385              		.loc 1 1230 16 view .LVU827
1230:STM32F10x_StdPeriph_Driver/src/stm32f10x_can.c **** 	      break;
 2386              		.loc 1 1230 45 is_stmt 0 view .LVU828
 2387 00b4 C068     		ldr	r0, [r0, #12]
ARM GAS  C:\Users\kevin\AppData\Local\Temp\ccRSUIFU.s 			page 81


 2388              	.LVL184:
1230:STM32F10x_StdPeriph_Driver/src/stm32f10x_can.c **** 	      break;
 2389              		.loc 1 1230 27 view .LVU829
 2390 00b6 1021     		movs	r1, #16
 2391 00b8 FFF7FEFF 		bl	CheckITStatus
 2392              	.LVL185:
1231:STM32F10x_StdPeriph_Driver/src/stm32f10x_can.c ****       case CAN_IT_FMP1:
 2393              		.loc 1 1231 8 is_stmt 1 view .LVU830
 2394 00bc 23E0     		b	.L163
 2395              	.LVL186:
 2396              	.L169:
1234:STM32F10x_StdPeriph_Driver/src/stm32f10x_can.c **** 	      break;
 2397              		.loc 1 1234 16 view .LVU831
1234:STM32F10x_StdPeriph_Driver/src/stm32f10x_can.c **** 	      break;
 2398              		.loc 1 1234 45 is_stmt 0 view .LVU832
 2399 00be 0069     		ldr	r0, [r0, #16]
 2400              	.LVL187:
1234:STM32F10x_StdPeriph_Driver/src/stm32f10x_can.c **** 	      break;
 2401              		.loc 1 1234 27 view .LVU833
 2402 00c0 0321     		movs	r1, #3
 2403 00c2 FFF7FEFF 		bl	CheckITStatus
 2404              	.LVL188:
1235:STM32F10x_StdPeriph_Driver/src/stm32f10x_can.c ****       case CAN_IT_FF1:
 2405              		.loc 1 1235 8 is_stmt 1 view .LVU834
 2406 00c6 1EE0     		b	.L163
 2407              	.LVL189:
 2408              	.L167:
1238:STM32F10x_StdPeriph_Driver/src/stm32f10x_can.c **** 	      break;
 2409              		.loc 1 1238 15 view .LVU835
1238:STM32F10x_StdPeriph_Driver/src/stm32f10x_can.c **** 	      break;
 2410              		.loc 1 1238 44 is_stmt 0 view .LVU836
 2411 00c8 0069     		ldr	r0, [r0, #16]
 2412              	.LVL190:
1238:STM32F10x_StdPeriph_Driver/src/stm32f10x_can.c **** 	      break;
 2413              		.loc 1 1238 26 view .LVU837
 2414 00ca 0821     		movs	r1, #8
 2415 00cc FFF7FEFF 		bl	CheckITStatus
 2416              	.LVL191:
1239:STM32F10x_StdPeriph_Driver/src/stm32f10x_can.c ****       case CAN_IT_FOV1:
 2417              		.loc 1 1239 8 is_stmt 1 view .LVU838
 2418 00d0 19E0     		b	.L163
 2419              	.LVL192:
 2420              	.L180:
1246:STM32F10x_StdPeriph_Driver/src/stm32f10x_can.c **** 	      break;
 2421              		.loc 1 1246 16 view .LVU839
1246:STM32F10x_StdPeriph_Driver/src/stm32f10x_can.c **** 	      break;
 2422              		.loc 1 1246 45 is_stmt 0 view .LVU840
 2423 00d2 4068     		ldr	r0, [r0, #4]
 2424              	.LVL193:
1246:STM32F10x_StdPeriph_Driver/src/stm32f10x_can.c **** 	      break;
 2425              		.loc 1 1246 27 view .LVU841
 2426 00d4 0821     		movs	r1, #8
 2427              	.LVL194:
1246:STM32F10x_StdPeriph_Driver/src/stm32f10x_can.c **** 	      break;
 2428              		.loc 1 1246 27 view .LVU842
 2429 00d6 FFF7FEFF 		bl	CheckITStatus
 2430              	.LVL195:
ARM GAS  C:\Users\kevin\AppData\Local\Temp\ccRSUIFU.s 			page 82


1247:STM32F10x_StdPeriph_Driver/src/stm32f10x_can.c ****       case CAN_IT_SLK:
 2431              		.loc 1 1247 8 is_stmt 1 view .LVU843
 2432 00da 14E0     		b	.L163
 2433              	.LVL196:
 2434              	.L164:
1254:STM32F10x_StdPeriph_Driver/src/stm32f10x_can.c **** 	      break;
 2435              		.loc 1 1254 15 view .LVU844
1254:STM32F10x_StdPeriph_Driver/src/stm32f10x_can.c **** 	      break;
 2436              		.loc 1 1254 44 is_stmt 0 view .LVU845
 2437 00dc 8069     		ldr	r0, [r0, #24]
 2438              	.LVL197:
1254:STM32F10x_StdPeriph_Driver/src/stm32f10x_can.c **** 	      break;
 2439              		.loc 1 1254 26 view .LVU846
 2440 00de 0121     		movs	r1, #1
 2441              	.LVL198:
1254:STM32F10x_StdPeriph_Driver/src/stm32f10x_can.c **** 	      break;
 2442              		.loc 1 1254 26 view .LVU847
 2443 00e0 FFF7FEFF 		bl	CheckITStatus
 2444              	.LVL199:
1255:STM32F10x_StdPeriph_Driver/src/stm32f10x_can.c ****       case CAN_IT_EPV:
 2445              		.loc 1 1255 8 is_stmt 1 view .LVU848
 2446 00e4 0FE0     		b	.L163
 2447              	.LVL200:
 2448              	.L177:
1262:STM32F10x_StdPeriph_Driver/src/stm32f10x_can.c **** 	      break;
 2449              		.loc 1 1262 15 view .LVU849
1262:STM32F10x_StdPeriph_Driver/src/stm32f10x_can.c **** 	      break;
 2450              		.loc 1 1262 44 is_stmt 0 view .LVU850
 2451 00e6 8069     		ldr	r0, [r0, #24]
 2452              	.LVL201:
1262:STM32F10x_StdPeriph_Driver/src/stm32f10x_can.c **** 	      break;
 2453              		.loc 1 1262 26 view .LVU851
 2454 00e8 0421     		movs	r1, #4
 2455              	.LVL202:
1262:STM32F10x_StdPeriph_Driver/src/stm32f10x_can.c **** 	      break;
 2456              		.loc 1 1262 26 view .LVU852
 2457 00ea FFF7FEFF 		bl	CheckITStatus
 2458              	.LVL203:
1263:STM32F10x_StdPeriph_Driver/src/stm32f10x_can.c ****       case CAN_IT_LEC:
 2459              		.loc 1 1263 8 is_stmt 1 view .LVU853
 2460 00ee 0AE0     		b	.L163
 2461              	.LVL204:
 2462              	.L178:
1266:STM32F10x_StdPeriph_Driver/src/stm32f10x_can.c **** 	      break;
 2463              		.loc 1 1266 15 view .LVU854
1266:STM32F10x_StdPeriph_Driver/src/stm32f10x_can.c **** 	      break;
 2464              		.loc 1 1266 44 is_stmt 0 view .LVU855
 2465 00f0 8069     		ldr	r0, [r0, #24]
 2466              	.LVL205:
1266:STM32F10x_StdPeriph_Driver/src/stm32f10x_can.c **** 	      break;
 2467              		.loc 1 1266 26 view .LVU856
 2468 00f2 7021     		movs	r1, #112
 2469              	.LVL206:
1266:STM32F10x_StdPeriph_Driver/src/stm32f10x_can.c **** 	      break;
 2470              		.loc 1 1266 26 view .LVU857
 2471 00f4 FFF7FEFF 		bl	CheckITStatus
 2472              	.LVL207:
ARM GAS  C:\Users\kevin\AppData\Local\Temp\ccRSUIFU.s 			page 83


1267:STM32F10x_StdPeriph_Driver/src/stm32f10x_can.c ****       case CAN_IT_ERR:
 2473              		.loc 1 1267 8 is_stmt 1 view .LVU858
 2474 00f8 05E0     		b	.L163
 2475              	.LVL208:
 2476              	.L175:
1270:STM32F10x_StdPeriph_Driver/src/stm32f10x_can.c **** 	      break;
 2477              		.loc 1 1270 16 view .LVU859
1270:STM32F10x_StdPeriph_Driver/src/stm32f10x_can.c **** 	      break;
 2478              		.loc 1 1270 45 is_stmt 0 view .LVU860
 2479 00fa 4068     		ldr	r0, [r0, #4]
 2480              	.LVL209:
1270:STM32F10x_StdPeriph_Driver/src/stm32f10x_can.c **** 	      break;
 2481              		.loc 1 1270 27 view .LVU861
 2482 00fc 0421     		movs	r1, #4
 2483              	.LVL210:
1270:STM32F10x_StdPeriph_Driver/src/stm32f10x_can.c **** 	      break;
 2484              		.loc 1 1270 27 view .LVU862
 2485 00fe FFF7FEFF 		bl	CheckITStatus
 2486              	.LVL211:
1271:STM32F10x_StdPeriph_Driver/src/stm32f10x_can.c ****       default :
 2487              		.loc 1 1271 8 is_stmt 1 view .LVU863
 2488 0102 00E0     		b	.L163
 2489              	.LVL212:
 2490              	.L182:
1281:STM32F10x_StdPeriph_Driver/src/stm32f10x_can.c ****   }
 2491              		.loc 1 1281 15 is_stmt 0 view .LVU864
 2492 0104 0020     		movs	r0, #0
 2493              	.LVL213:
 2494              	.L163:
1285:STM32F10x_StdPeriph_Driver/src/stm32f10x_can.c **** }
 2495              		.loc 1 1285 3 is_stmt 1 view .LVU865
1286:STM32F10x_StdPeriph_Driver/src/stm32f10x_can.c **** 
 2496              		.loc 1 1286 1 is_stmt 0 view .LVU866
 2497 0106 08BD     		pop	{r3, pc}
 2498              	.LVL214:
 2499              	.L183:
1214:STM32F10x_StdPeriph_Driver/src/stm32f10x_can.c ****     {
 2500              		.loc 1 1214 5 view .LVU867
 2501 0108 0020     		movs	r0, #0
 2502              	.LVL215:
1214:STM32F10x_StdPeriph_Driver/src/stm32f10x_can.c ****     {
 2503              		.loc 1 1214 5 view .LVU868
 2504 010a FCE7     		b	.L163
 2505              	.LVL216:
 2506              	.L184:
1214:STM32F10x_StdPeriph_Driver/src/stm32f10x_can.c ****     {
 2507              		.loc 1 1214 5 view .LVU869
 2508 010c 0020     		movs	r0, #0
 2509              	.LVL217:
1214:STM32F10x_StdPeriph_Driver/src/stm32f10x_can.c ****     {
 2510              		.loc 1 1214 5 view .LVU870
 2511 010e FAE7     		b	.L163
 2512              	.L190:
 2513              		.align	2
 2514              	.L189:
 2515 0110 01010100 		.word	65793
 2516              		.cfi_endproc
ARM GAS  C:\Users\kevin\AppData\Local\Temp\ccRSUIFU.s 			page 84


 2517              	.LFE51:
 2519              		.section	.text.CAN_ClearITPendingBit,"ax",%progbits
 2520              		.align	1
 2521              		.global	CAN_ClearITPendingBit
 2522              		.syntax unified
 2523              		.thumb
 2524              		.thumb_func
 2526              	CAN_ClearITPendingBit:
 2527              	.LVL218:
 2528              	.LFB52:
1307:STM32F10x_StdPeriph_Driver/src/stm32f10x_can.c ****   /* Check the parameters */
 2529              		.loc 1 1307 1 is_stmt 1 view -0
 2530              		.cfi_startproc
 2531              		@ args = 0, pretend = 0, frame = 0
 2532              		@ frame_needed = 0, uses_anonymous_args = 0
 2533              		@ link register save eliminated.
1309:STM32F10x_StdPeriph_Driver/src/stm32f10x_can.c ****   assert_param(IS_CAN_CLEAR_IT(CAN_IT));
 2534              		.loc 1 1309 3 view .LVU872
1310:STM32F10x_StdPeriph_Driver/src/stm32f10x_can.c **** 
 2535              		.loc 1 1310 3 view .LVU873
1312:STM32F10x_StdPeriph_Driver/src/stm32f10x_can.c ****   {
 2536              		.loc 1 1312 3 view .LVU874
 2537 0000 B1F5007F 		cmp	r1, #512
 2538 0004 4ED0     		beq	.L192
 2539 0006 21D8     		bhi	.L193
 2540 0008 2029     		cmp	r1, #32
 2541 000a 16D8     		bhi	.L194
 2542 000c 0029     		cmp	r1, #0
 2543 000e 53D0     		beq	.L191
 2544 0010 0139     		subs	r1, r1, #1
 2545              	.LVL219:
1312:STM32F10x_StdPeriph_Driver/src/stm32f10x_can.c ****   {
 2546              		.loc 1 1312 3 is_stmt 0 view .LVU875
 2547 0012 1F29     		cmp	r1, #31
 2548 0014 50D8     		bhi	.L191
 2549 0016 DFE801F0 		tbb	[pc, r1]
 2550              	.L197:
 2551 001a 33       		.byte	(.L200-.L197)/2
 2552 001b 4F       		.byte	(.L191-.L197)/2
 2553 001c 4F       		.byte	(.L191-.L197)/2
 2554 001d 36       		.byte	(.L199-.L197)/2
 2555 001e 4F       		.byte	(.L191-.L197)/2
 2556 001f 4F       		.byte	(.L191-.L197)/2
 2557 0020 4F       		.byte	(.L191-.L197)/2
 2558 0021 39       		.byte	(.L198-.L197)/2
 2559 0022 4F       		.byte	(.L191-.L197)/2
 2560 0023 4F       		.byte	(.L191-.L197)/2
 2561 0024 4F       		.byte	(.L191-.L197)/2
 2562 0025 4F       		.byte	(.L191-.L197)/2
 2563 0026 4F       		.byte	(.L191-.L197)/2
 2564 0027 4F       		.byte	(.L191-.L197)/2
 2565 0028 4F       		.byte	(.L191-.L197)/2
 2566 0029 4F       		.byte	(.L191-.L197)/2
 2567 002a 4F       		.byte	(.L191-.L197)/2
 2568 002b 4F       		.byte	(.L191-.L197)/2
 2569 002c 4F       		.byte	(.L191-.L197)/2
 2570 002d 4F       		.byte	(.L191-.L197)/2
ARM GAS  C:\Users\kevin\AppData\Local\Temp\ccRSUIFU.s 			page 85


 2571 002e 4F       		.byte	(.L191-.L197)/2
 2572 002f 4F       		.byte	(.L191-.L197)/2
 2573 0030 4F       		.byte	(.L191-.L197)/2
 2574 0031 4F       		.byte	(.L191-.L197)/2
 2575 0032 4F       		.byte	(.L191-.L197)/2
 2576 0033 4F       		.byte	(.L191-.L197)/2
 2577 0034 4F       		.byte	(.L191-.L197)/2
 2578 0035 4F       		.byte	(.L191-.L197)/2
 2579 0036 4F       		.byte	(.L191-.L197)/2
 2580 0037 4F       		.byte	(.L191-.L197)/2
 2581 0038 4F       		.byte	(.L191-.L197)/2
 2582 0039 3C       		.byte	(.L196-.L197)/2
 2583              	.LVL220:
 2584              		.p2align 1
 2585              	.L194:
1312:STM32F10x_StdPeriph_Driver/src/stm32f10x_can.c ****   {
 2586              		.loc 1 1312 3 view .LVU876
 2587 003a 4029     		cmp	r1, #64
 2588 003c 2CD0     		beq	.L201
 2589 003e B1F5807F 		cmp	r1, #256
 2590 0042 02D1     		bne	.L210
1344:STM32F10x_StdPeriph_Driver/src/stm32f10x_can.c ****               /* Note : the corresponding Flag is cleared by hardware depending 
 2591              		.loc 1 1344 8 is_stmt 1 view .LVU877
1344:STM32F10x_StdPeriph_Driver/src/stm32f10x_can.c ****               /* Note : the corresponding Flag is cleared by hardware depending 
 2592              		.loc 1 1344 18 is_stmt 0 view .LVU878
 2593 0044 0423     		movs	r3, #4
 2594 0046 4360     		str	r3, [r0, #4]
1347:STM32F10x_StdPeriph_Driver/src/stm32f10x_can.c ****       case CAN_IT_EPV:
 2595              		.loc 1 1347 8 is_stmt 1 view .LVU879
 2596 0048 7047     		bx	lr
 2597              	.L210:
1347:STM32F10x_StdPeriph_Driver/src/stm32f10x_can.c ****       case CAN_IT_EPV:
 2598              		.loc 1 1347 8 is_stmt 0 view .LVU880
 2599 004a 7047     		bx	lr
 2600              	.L193:
1312:STM32F10x_StdPeriph_Driver/src/stm32f10x_can.c ****   {
 2601              		.loc 1 1312 3 view .LVU881
 2602 004c B1F5004F 		cmp	r1, #32768
 2603 0050 2ED0     		beq	.L203
 2604 0052 08D9     		bls	.L211
 2605 0054 B1F5803F 		cmp	r1, #65536
 2606 0058 21D0     		beq	.L207
 2607 005a B1F5003F 		cmp	r1, #131072
 2608 005e 0ED1     		bne	.L212
1340:STM32F10x_StdPeriph_Driver/src/stm32f10x_can.c **** 	      break;
 2609              		.loc 1 1340 8 is_stmt 1 view .LVU882
1340:STM32F10x_StdPeriph_Driver/src/stm32f10x_can.c **** 	      break;
 2610              		.loc 1 1340 18 is_stmt 0 view .LVU883
 2611 0060 1023     		movs	r3, #16
 2612 0062 4360     		str	r3, [r0, #4]
1341:STM32F10x_StdPeriph_Driver/src/stm32f10x_can.c ****       case CAN_IT_EWG:
 2613              		.loc 1 1341 8 is_stmt 1 view .LVU884
 2614 0064 7047     		bx	lr
 2615              	.L211:
1312:STM32F10x_StdPeriph_Driver/src/stm32f10x_can.c ****   {
 2616              		.loc 1 1312 3 is_stmt 0 view .LVU885
 2617 0066 B1F5806F 		cmp	r1, #1024
ARM GAS  C:\Users\kevin\AppData\Local\Temp\ccRSUIFU.s 			page 86


 2618 006a 1ED0     		beq	.L205
 2619 006c B1F5006F 		cmp	r1, #2048
 2620 0070 04D1     		bne	.L213
1362:STM32F10x_StdPeriph_Driver/src/stm32f10x_can.c ****               /* Clear CAN_MSR_ERRI (rc_w1) */
 2621              		.loc 1 1362 8 is_stmt 1 view .LVU886
1362:STM32F10x_StdPeriph_Driver/src/stm32f10x_can.c ****               /* Clear CAN_MSR_ERRI (rc_w1) */
 2622              		.loc 1 1362 18 is_stmt 0 view .LVU887
 2623 0072 0023     		movs	r3, #0
 2624 0074 8361     		str	r3, [r0, #24]
1364:STM32F10x_StdPeriph_Driver/src/stm32f10x_can.c **** 	      break;
 2625              		.loc 1 1364 8 is_stmt 1 view .LVU888
1364:STM32F10x_StdPeriph_Driver/src/stm32f10x_can.c **** 	      break;
 2626              		.loc 1 1364 18 is_stmt 0 view .LVU889
 2627 0076 0423     		movs	r3, #4
 2628 0078 4360     		str	r3, [r0, #4]
1365:STM32F10x_StdPeriph_Driver/src/stm32f10x_can.c ****       case CAN_IT_ERR:
 2629              		.loc 1 1365 8 is_stmt 1 view .LVU890
 2630 007a 7047     		bx	lr
 2631              	.L213:
1365:STM32F10x_StdPeriph_Driver/src/stm32f10x_can.c ****       case CAN_IT_ERR:
 2632              		.loc 1 1365 8 is_stmt 0 view .LVU891
 2633 007c 7047     		bx	lr
 2634              	.L212:
1365:STM32F10x_StdPeriph_Driver/src/stm32f10x_can.c ****       case CAN_IT_ERR:
 2635              		.loc 1 1365 8 view .LVU892
 2636 007e 7047     		bx	lr
 2637              	.LVL221:
 2638              	.L200:
1316:STM32F10x_StdPeriph_Driver/src/stm32f10x_can.c **** 	      break;
 2639              		.loc 1 1316 8 is_stmt 1 view .LVU893
1316:STM32F10x_StdPeriph_Driver/src/stm32f10x_can.c **** 	      break;
 2640              		.loc 1 1316 18 is_stmt 0 view .LVU894
 2641 0080 0E4B     		ldr	r3, .L214
 2642 0082 8360     		str	r3, [r0, #8]
1317:STM32F10x_StdPeriph_Driver/src/stm32f10x_can.c ****       case CAN_IT_FF0:
 2643              		.loc 1 1317 8 is_stmt 1 view .LVU895
 2644 0084 7047     		bx	lr
 2645              	.L199:
1320:STM32F10x_StdPeriph_Driver/src/stm32f10x_can.c **** 	      break;
 2646              		.loc 1 1320 8 view .LVU896
1320:STM32F10x_StdPeriph_Driver/src/stm32f10x_can.c **** 	      break;
 2647              		.loc 1 1320 19 is_stmt 0 view .LVU897
 2648 0086 0823     		movs	r3, #8
 2649 0088 C360     		str	r3, [r0, #12]
1321:STM32F10x_StdPeriph_Driver/src/stm32f10x_can.c ****       case CAN_IT_FOV0:
 2650              		.loc 1 1321 8 is_stmt 1 view .LVU898
 2651 008a 7047     		bx	lr
 2652              	.L198:
1324:STM32F10x_StdPeriph_Driver/src/stm32f10x_can.c **** 	      break;
 2653              		.loc 1 1324 8 view .LVU899
1324:STM32F10x_StdPeriph_Driver/src/stm32f10x_can.c **** 	      break;
 2654              		.loc 1 1324 19 is_stmt 0 view .LVU900
 2655 008c 1023     		movs	r3, #16
 2656 008e C360     		str	r3, [r0, #12]
1325:STM32F10x_StdPeriph_Driver/src/stm32f10x_can.c ****       case CAN_IT_FF1:
 2657              		.loc 1 1325 8 is_stmt 1 view .LVU901
 2658 0090 7047     		bx	lr
ARM GAS  C:\Users\kevin\AppData\Local\Temp\ccRSUIFU.s 			page 87


 2659              	.L196:
1328:STM32F10x_StdPeriph_Driver/src/stm32f10x_can.c **** 	      break;
 2660              		.loc 1 1328 8 view .LVU902
1328:STM32F10x_StdPeriph_Driver/src/stm32f10x_can.c **** 	      break;
 2661              		.loc 1 1328 19 is_stmt 0 view .LVU903
 2662 0092 0823     		movs	r3, #8
 2663 0094 0361     		str	r3, [r0, #16]
1329:STM32F10x_StdPeriph_Driver/src/stm32f10x_can.c ****       case CAN_IT_FOV1:
 2664              		.loc 1 1329 8 is_stmt 1 view .LVU904
 2665 0096 7047     		bx	lr
 2666              	.LVL222:
 2667              	.L201:
1332:STM32F10x_StdPeriph_Driver/src/stm32f10x_can.c **** 	      break;
 2668              		.loc 1 1332 8 view .LVU905
1332:STM32F10x_StdPeriph_Driver/src/stm32f10x_can.c **** 	      break;
 2669              		.loc 1 1332 19 is_stmt 0 view .LVU906
 2670 0098 1023     		movs	r3, #16
 2671 009a 0361     		str	r3, [r0, #16]
1333:STM32F10x_StdPeriph_Driver/src/stm32f10x_can.c ****       case CAN_IT_WKU:
 2672              		.loc 1 1333 8 is_stmt 1 view .LVU907
 2673 009c 7047     		bx	lr
 2674              	.L207:
1336:STM32F10x_StdPeriph_Driver/src/stm32f10x_can.c **** 	      break;
 2675              		.loc 1 1336 8 view .LVU908
1336:STM32F10x_StdPeriph_Driver/src/stm32f10x_can.c **** 	      break;
 2676              		.loc 1 1336 18 is_stmt 0 view .LVU909
 2677 009e 0823     		movs	r3, #8
 2678 00a0 4360     		str	r3, [r0, #4]
1337:STM32F10x_StdPeriph_Driver/src/stm32f10x_can.c ****       case CAN_IT_SLK:
 2679              		.loc 1 1337 8 is_stmt 1 view .LVU910
 2680 00a2 7047     		bx	lr
 2681              	.L192:
1350:STM32F10x_StdPeriph_Driver/src/stm32f10x_can.c ****               /* Note : the corresponding Flag is cleared by hardware depending 
 2682              		.loc 1 1350 8 view .LVU911
1350:STM32F10x_StdPeriph_Driver/src/stm32f10x_can.c ****               /* Note : the corresponding Flag is cleared by hardware depending 
 2683              		.loc 1 1350 18 is_stmt 0 view .LVU912
 2684 00a4 0423     		movs	r3, #4
 2685 00a6 4360     		str	r3, [r0, #4]
1353:STM32F10x_StdPeriph_Driver/src/stm32f10x_can.c ****       case CAN_IT_BOF:
 2686              		.loc 1 1353 8 is_stmt 1 view .LVU913
 2687 00a8 7047     		bx	lr
 2688              	.L205:
1356:STM32F10x_StdPeriph_Driver/src/stm32f10x_can.c ****               /* Note : the corresponding Flag is cleared by hardware depending 
 2689              		.loc 1 1356 8 view .LVU914
1356:STM32F10x_StdPeriph_Driver/src/stm32f10x_can.c ****               /* Note : the corresponding Flag is cleared by hardware depending 
 2690              		.loc 1 1356 18 is_stmt 0 view .LVU915
 2691 00aa 0423     		movs	r3, #4
 2692 00ac 4360     		str	r3, [r0, #4]
1359:STM32F10x_StdPeriph_Driver/src/stm32f10x_can.c ****       case CAN_IT_LEC:
 2693              		.loc 1 1359 8 is_stmt 1 view .LVU916
 2694 00ae 7047     		bx	lr
 2695              	.L203:
1368:STM32F10x_StdPeriph_Driver/src/stm32f10x_can.c ****               /* Clear CAN_MSR_ERRI (rc_w1) */
 2696              		.loc 1 1368 8 view .LVU917
1368:STM32F10x_StdPeriph_Driver/src/stm32f10x_can.c ****               /* Clear CAN_MSR_ERRI (rc_w1) */
 2697              		.loc 1 1368 18 is_stmt 0 view .LVU918
 2698 00b0 0023     		movs	r3, #0
ARM GAS  C:\Users\kevin\AppData\Local\Temp\ccRSUIFU.s 			page 88


 2699 00b2 8361     		str	r3, [r0, #24]
1370:STM32F10x_StdPeriph_Driver/src/stm32f10x_can.c **** 	      /* Note : BOFF, EPVF and EWGF Flags are cleared by hardware depending 
 2700              		.loc 1 1370 8 is_stmt 1 view .LVU919
1370:STM32F10x_StdPeriph_Driver/src/stm32f10x_can.c **** 	      /* Note : BOFF, EPVF and EWGF Flags are cleared by hardware depending 
 2701              		.loc 1 1370 18 is_stmt 0 view .LVU920
 2702 00b4 0423     		movs	r3, #4
 2703 00b6 4360     		str	r3, [r0, #4]
1373:STM32F10x_StdPeriph_Driver/src/stm32f10x_can.c ****       default :
 2704              		.loc 1 1373 8 is_stmt 1 view .LVU921
 2705              	.LVL223:
 2706              	.L191:
1377:STM32F10x_StdPeriph_Driver/src/stm32f10x_can.c **** 
 2707              		.loc 1 1377 1 is_stmt 0 view .LVU922
 2708 00b8 7047     		bx	lr
 2709              	.L215:
 2710 00ba 00BF     		.align	2
 2711              	.L214:
 2712 00bc 01010100 		.word	65793
 2713              		.cfi_endproc
 2714              	.LFE52:
 2716              		.text
 2717              	.Letext0:
 2718              		.file 2 "D:/Arm_GNU_Toolchain/arm-none-eabi/arm-none-eabi/include/machine/_default_types.h"
 2719              		.file 3 "D:/Arm_GNU_Toolchain/arm-none-eabi/arm-none-eabi/include/sys/_stdint.h"
 2720              		.file 4 "CMSIS/CM3/DeviceSupport/ST/STM32F10x/stm32f10x.h"
 2721              		.file 5 "STM32F10x_StdPeriph_Driver/inc/stm32f10x_can.h"
 2722              		.file 6 "STM32F10x_StdPeriph_Driver/inc/stm32f10x_rcc.h"
ARM GAS  C:\Users\kevin\AppData\Local\Temp\ccRSUIFU.s 			page 89


DEFINED SYMBOLS
                            *ABS*:00000000 stm32f10x_can.c
C:\Users\kevin\AppData\Local\Temp\ccRSUIFU.s:19     .text.CheckITStatus:00000000 $t
C:\Users\kevin\AppData\Local\Temp\ccRSUIFU.s:24     .text.CheckITStatus:00000000 CheckITStatus
C:\Users\kevin\AppData\Local\Temp\ccRSUIFU.s:54     .text.CAN_DeInit:00000000 $t
C:\Users\kevin\AppData\Local\Temp\ccRSUIFU.s:60     .text.CAN_DeInit:00000000 CAN_DeInit
C:\Users\kevin\AppData\Local\Temp\ccRSUIFU.s:112    .text.CAN_DeInit:00000034 $d
C:\Users\kevin\AppData\Local\Temp\ccRSUIFU.s:117    .text.CAN_Init:00000000 $t
C:\Users\kevin\AppData\Local\Temp\ccRSUIFU.s:123    .text.CAN_Init:00000000 CAN_Init
C:\Users\kevin\AppData\Local\Temp\ccRSUIFU.s:401    .text.CAN_FilterInit:00000000 $t
C:\Users\kevin\AppData\Local\Temp\ccRSUIFU.s:407    .text.CAN_FilterInit:00000000 CAN_FilterInit
C:\Users\kevin\AppData\Local\Temp\ccRSUIFU.s:612    .text.CAN_FilterInit:00000108 $d
C:\Users\kevin\AppData\Local\Temp\ccRSUIFU.s:617    .text.CAN_StructInit:00000000 $t
C:\Users\kevin\AppData\Local\Temp\ccRSUIFU.s:623    .text.CAN_StructInit:00000000 CAN_StructInit
C:\Users\kevin\AppData\Local\Temp\ccRSUIFU.s:674    .text.CAN_SlaveStartBank:00000000 $t
C:\Users\kevin\AppData\Local\Temp\ccRSUIFU.s:680    .text.CAN_SlaveStartBank:00000000 CAN_SlaveStartBank
C:\Users\kevin\AppData\Local\Temp\ccRSUIFU.s:720    .text.CAN_SlaveStartBank:00000038 $d
C:\Users\kevin\AppData\Local\Temp\ccRSUIFU.s:725    .text.CAN_DBGFreeze:00000000 $t
C:\Users\kevin\AppData\Local\Temp\ccRSUIFU.s:731    .text.CAN_DBGFreeze:00000000 CAN_DBGFreeze
C:\Users\kevin\AppData\Local\Temp\ccRSUIFU.s:764    .text.CAN_TTComModeCmd:00000000 $t
C:\Users\kevin\AppData\Local\Temp\ccRSUIFU.s:770    .text.CAN_TTComModeCmd:00000000 CAN_TTComModeCmd
C:\Users\kevin\AppData\Local\Temp\ccRSUIFU.s:839    .text.CAN_Transmit:00000000 $t
C:\Users\kevin\AppData\Local\Temp\ccRSUIFU.s:845    .text.CAN_Transmit:00000000 CAN_Transmit
C:\Users\kevin\AppData\Local\Temp\ccRSUIFU.s:1052   .text.CAN_TransmitStatus:00000000 $t
C:\Users\kevin\AppData\Local\Temp\ccRSUIFU.s:1058   .text.CAN_TransmitStatus:00000000 CAN_TransmitStatus
C:\Users\kevin\AppData\Local\Temp\ccRSUIFU.s:1203   .text.CAN_TransmitStatus:00000088 $d
C:\Users\kevin\AppData\Local\Temp\ccRSUIFU.s:1211   .text.CAN_CancelTransmit:00000000 $t
C:\Users\kevin\AppData\Local\Temp\ccRSUIFU.s:1217   .text.CAN_CancelTransmit:00000000 CAN_CancelTransmit
C:\Users\kevin\AppData\Local\Temp\ccRSUIFU.s:1265   .text.CAN_Receive:00000000 $t
C:\Users\kevin\AppData\Local\Temp\ccRSUIFU.s:1271   .text.CAN_Receive:00000000 CAN_Receive
C:\Users\kevin\AppData\Local\Temp\ccRSUIFU.s:1429   .text.CAN_FIFORelease:00000000 $t
C:\Users\kevin\AppData\Local\Temp\ccRSUIFU.s:1435   .text.CAN_FIFORelease:00000000 CAN_FIFORelease
C:\Users\kevin\AppData\Local\Temp\ccRSUIFU.s:1468   .text.CAN_MessagePending:00000000 $t
C:\Users\kevin\AppData\Local\Temp\ccRSUIFU.s:1474   .text.CAN_MessagePending:00000000 CAN_MessagePending
C:\Users\kevin\AppData\Local\Temp\ccRSUIFU.s:1524   .text.CAN_OperatingModeRequest:00000000 $t
C:\Users\kevin\AppData\Local\Temp\ccRSUIFU.s:1530   .text.CAN_OperatingModeRequest:00000000 CAN_OperatingModeRequest
C:\Users\kevin\AppData\Local\Temp\ccRSUIFU.s:1720   .text.CAN_Sleep:00000000 $t
C:\Users\kevin\AppData\Local\Temp\ccRSUIFU.s:1726   .text.CAN_Sleep:00000000 CAN_Sleep
C:\Users\kevin\AppData\Local\Temp\ccRSUIFU.s:1769   .text.CAN_WakeUp:00000000 $t
C:\Users\kevin\AppData\Local\Temp\ccRSUIFU.s:1775   .text.CAN_WakeUp:00000000 CAN_WakeUp
C:\Users\kevin\AppData\Local\Temp\ccRSUIFU.s:1837   .text.CAN_GetLastErrorCode:00000000 $t
C:\Users\kevin\AppData\Local\Temp\ccRSUIFU.s:1843   .text.CAN_GetLastErrorCode:00000000 CAN_GetLastErrorCode
C:\Users\kevin\AppData\Local\Temp\ccRSUIFU.s:1867   .text.CAN_GetReceiveErrorCounter:00000000 $t
C:\Users\kevin\AppData\Local\Temp\ccRSUIFU.s:1873   .text.CAN_GetReceiveErrorCounter:00000000 CAN_GetReceiveErrorCounter
C:\Users\kevin\AppData\Local\Temp\ccRSUIFU.s:1897   .text.CAN_GetLSBTransmitErrorCounter:00000000 $t
C:\Users\kevin\AppData\Local\Temp\ccRSUIFU.s:1903   .text.CAN_GetLSBTransmitErrorCounter:00000000 CAN_GetLSBTransmitErrorCounter
C:\Users\kevin\AppData\Local\Temp\ccRSUIFU.s:1927   .text.CAN_ITConfig:00000000 $t
C:\Users\kevin\AppData\Local\Temp\ccRSUIFU.s:1933   .text.CAN_ITConfig:00000000 CAN_ITConfig
C:\Users\kevin\AppData\Local\Temp\ccRSUIFU.s:1967   .text.CAN_GetFlagStatus:00000000 $t
C:\Users\kevin\AppData\Local\Temp\ccRSUIFU.s:1973   .text.CAN_GetFlagStatus:00000000 CAN_GetFlagStatus
C:\Users\kevin\AppData\Local\Temp\ccRSUIFU.s:2113   .text.CAN_ClearFlag:00000000 $t
C:\Users\kevin\AppData\Local\Temp\ccRSUIFU.s:2119   .text.CAN_ClearFlag:00000000 CAN_ClearFlag
C:\Users\kevin\AppData\Local\Temp\ccRSUIFU.s:2182   .text.CAN_ClearFlag:00000034 $d
C:\Users\kevin\AppData\Local\Temp\ccRSUIFU.s:2187   .text.CAN_GetITStatus:00000000 $t
C:\Users\kevin\AppData\Local\Temp\ccRSUIFU.s:2193   .text.CAN_GetITStatus:00000000 CAN_GetITStatus
C:\Users\kevin\AppData\Local\Temp\ccRSUIFU.s:2231   .text.CAN_GetITStatus:00000022 $d
C:\Users\kevin\AppData\Local\Temp\ccRSUIFU.s:2264   .text.CAN_GetITStatus:00000042 $t
ARM GAS  C:\Users\kevin\AppData\Local\Temp\ccRSUIFU.s 			page 90


C:\Users\kevin\AppData\Local\Temp\ccRSUIFU.s:2515   .text.CAN_GetITStatus:00000110 $d
C:\Users\kevin\AppData\Local\Temp\ccRSUIFU.s:2520   .text.CAN_ClearITPendingBit:00000000 $t
C:\Users\kevin\AppData\Local\Temp\ccRSUIFU.s:2526   .text.CAN_ClearITPendingBit:00000000 CAN_ClearITPendingBit
C:\Users\kevin\AppData\Local\Temp\ccRSUIFU.s:2551   .text.CAN_ClearITPendingBit:0000001a $d
C:\Users\kevin\AppData\Local\Temp\ccRSUIFU.s:2584   .text.CAN_ClearITPendingBit:0000003a $t
C:\Users\kevin\AppData\Local\Temp\ccRSUIFU.s:2712   .text.CAN_ClearITPendingBit:000000bc $d

UNDEFINED SYMBOLS
RCC_APB1PeriphResetCmd
